
 Start         Length     Name                   Class
 0001:00000000 00011CD2CH .text                  CODE
 0002:00000000 000000130H .exit.text             CODE
 0003:00000000 0000001ECH .init.text             CODE
 0004:00000000 000000010H __ksymtab              CONST
 0005:00000000 000000008H __kcrctab              CONST
 0006:00000000 00001A4A0H .rodata                CONST
 0007:00000000 000050802H .rodata.str1.1         CONST
 0008:00000000 000000000H .ARM.extab.exit.text   CONST
 0009:00000000 000000000H .ARM.extab.init.text   CONST
 000A:00000000 0000000CCH .modinfo               CONST
 000B:00000000 000000043H __ksymtab_strings      CONST
 000C:00000000 000000020H __param                CONST
 000D:00000000 0000001AEH .rodata.str            CONST
 000E:00000000 00000003CH __bug_table            CONST
 000F:00000000 0000007D4H .ARM.extab             CONST
 0010:00000000 000003708H .data                  DATA
 0011:00000000 000000168H .gnu.linkonce.this_mod DATA
 0012:00000000 000003300H __versions             CONST
 0013:00000000 000037C70H .bss                   BSS


  Address         Publics by Value

 0001:00000000       vos_get_skip_ssid_check
 0001:00000008       vos_get_skip_11e_check
 0001:00000010       vos_atomic_decrement_U32_by_value
 0001:00000060       vos_atomic_increment_U32_by_value
 0001:000000B0       vos_atomic_decrement_U32
 0001:00000100       vos_atomic_increment_U32
 0001:00000150       vos_atomic_set_U32
 0001:000001A8       vos_wait_multiple_events
 0001:000001B0       vos_event_reset
 0001:00000260       vos_wait_single_event
 0001:000003A0       vos_wait_events
 0001:000003A8       vos_event_destroy
 0001:00000464       vos_event_set
 0001:00000514       vos_event_init
 0001:000005DC       vos_concurrent_sessions_running
 0001:00000618       vos_get_concurrency_mode
 0001:0000061C       vos_get_conparam
 0001:00000620       vos_get_binary_blob
 0001:00000704       vos_list_remove_node
 0001:00000828       vos_list_insert_after
 0001:00000948       vos_list_insert_before
 0001:00000A64       vos_list_peek_prev
 0001:00000B74       vos_list_peek_next
 0001:00000C84       vos_list_peek_back
 0001:00000D64       vos_list_peek_front
 0001:00000E40       vos_list_size
 0001:00000EEC       vos_list_remove_back
 0001:00001000       vos_list_remove_front
 0001:00001110       vos_list_insert_back_size
 0001:000011E8       vos_list_insert_back
 0001:000012AC       vos_list_insert_front
 0001:0000136C       vos_list_destroy
 0001:0000143C       vos_list_init
 0001:000014D4       vos_spin_lock_init
 0001:000014E8       vos_spin_lock_destroy
 0001:000014F0       vos_spin_lock_release
 0001:00001500       vos_spin_lock_acquire
 0001:00001510       vos_lock_destroy
 0001:000015B8       vos_lock_release
 0001:000016B4       vos_lock_acquire
 0001:000017B8       vos_lock_init
 0001:0000187C       vos_mem_dma_free
 0001:00001888       vos_mem_free
 0001:00001894       vos_mem_dma_malloc
 0001:000018E8       vos_mem_malloc
 0001:00001974       vos_mem_compare2
 0001:00001978       vos_mem_compare
 0001:000019BC       vos_mem_move
 0001:000019E8       vos_mem_copy
 0001:00001A54       vos_mem_zero
 0001:00001A84       vos_mem_set
 0001:00001AC0       vos_mq_deinit
 0001:00001AE4       vos_mq_init
 0001:00001B30       vos_is_mq_empty
 0001:00001B8C       vos_mq_get
 0001:00001C2C       vos_mq_put
 0001:00001C90       vos_nv_init
 0001:00001C98       vos_nv_getChannelListWithPower
 0001:00001D60       vos_nv_getDefaultRegDomain
 0001:00001D70       vos_nv_getSupportedChannels
 0001:00001DE0       vos_nv_getNVBuffer
 0001:00001E04       vos_nv_getChannelEnabledState
 0001:00001E68       vos_nv_setRegDomain
 0001:00001EC8       vos_nv_getValidity
 0001:00001F18       vos_nv_getSupportedCountryCode
 0001:00001FAC       vos_nv_read
 0001:000023FC       vos_nv_readDefaultCountryTable
 0001:00002410       vos_nv_readRxAntennaCount
 0001:0000246C       vos_nv_readTxAntennaCount
 0001:000024C8       vos_nv_readMacAddress
 0001:000025A0       vos_nv_setValidity
 0001:0000264C       vos_nv_write
 0001:00002A30       vos_nv_readMultiMacAddress
 0001:00002B1C       vos_nv_getRegDomainFromCountryCode
 0001:00002C18       vos_nv_close
 0001:00002C88       vos_nv_open
 0001:000030DC       vos_pkt_flatten_rx_pkt
 0001:000030E4       vos_pkt_set_rx_length
 0001:00003170       vos_pkt_get_timestamp
 0001:000031E0       vos_pkt_trim_tail
 0001:000032A0       vos_pkt_get_packet_chain_length
 0001:00003340       vos_pkt_get_packet_length
 0001:000033D0       vos_pkt_get_packet_type
 0001:00003440       vos_pkt_peek_data
 0001:00003530       vos_pkt_walk_packet_chain
 0001:000035B4       vos_pkt_chain_packet
 0001:00003640       vos_pkt_set_user_data_ptr
 0001:000036CC       vos_pkt_get_user_data_ptr
 0001:0000376C       vos_pkt_get_os_packet
 0001:000037EC       vos_pkt_set_os_packet
 0001:000038C4       vos_pkt_wrap_data_packet
 0001:00003A58       vos_pkti_replenish_raw_pool
 0001:00003CB4       vos_pkt_get_available_buffer_pool
 0001:00003D9C       vos_pkt_return_packet
 0001:00004060       vos_pkt_get_packet
 0001:0000432C       vos_pkti_packet_init
 0001:000043B0       vos_pkt_pop_tail
 0001:00004480       n
 0001:00004488       vos_pkt_extract_data_chain
 0001:00004590       vos_pkt_extract_data
 0001:0000467C       dest
 0001:00004684       vos_pkt_reserve_tail
 0001:00004774       vos_pkt_push_tail
 0001:00004870       vos_pkt_trim_head
 0001:00004924       vos_pkt_pop_head
 0001:000049F8       vos_pkt_reserve_head_fast
 0001:00004AC4       vos_pkt_reserve_head
 0001:00004BE8       vos_pkt_push_head
 0001:00004CCC       vos_pkt_get_data_vector
 0001:00004D04       vos_pkti_list_destroy
 0001:00004DF0       vos_packet_close
 0001:00004EBC       vos_packet_open
 0001:00005208       vos_chipPowerUp
 0001:00005210       vos_chipPowerDown
 0001:00005218       vos_chipVoteOnPASupply
 0001:00005220       vos_chipVoteOffPASupply
 0001:00005228       vos_chipAssertDeepSleep
 0001:00005230       vos_chipDeAssertDeepSleep
 0001:00005238       vos_chipExitDeepSleepVREGHandler
 0001:00005240       vos_chipVoteOnRFSupply
 0001:00005248       vos_chipVoteOffRFSupply
 0001:00005250       vos_chipVoteOnBBAnalogSupply
 0001:00005258       vos_chipVoteOffBBAnalogSupply
 0001:00005260       vos_chipVoteOnXOBuffer
 0001:00005268       vos_chipVoteOffXOBuffer
 0001:00005270       vos_chipVoteFreqFor1p3VSupply
 0001:00005278       vos_chipVoteXOCore
 0001:00005324       vos_chipReset
 0001:0000532C       vos_busy_wait
 0001:00005330       vos_sleep_us
 0001:000053A4       vos_sleep
 0001:000053E4       vos_timer_get_system_time
 0001:0000540C       vos_timer_get_system_ticks
 0001:0000542C       vos_timer_getCurrentState
 0001:0000549C       vos_timer_stop
 0001:000055EC       vos_timer_destroy
 0001:0000573C       vos_timer_start
 0001:000058F4       vos_timer_init
 0001:000059B0       vos_linux_timer_callback
 0001:00005C3C       vos_timer_module_init
 0001:00005C64       vos_trace_getLevel
 0001:00005CA4       vos_trace_display
 0001:00005D80       vos_trace_setValue
 0001:00005E14       vos_trace_setLevel
 0001:00005E5C       vos_trace_msg
 0001:00005F64       format
 0001:00005F6C       vos_snprintf
 0001:00005F94       vos_preventSuspend
 0001:00005F98       vos_allowSuspend
 0001:00005F9C       vos_rivaSubsystemRestart
 0001:00005FB4       vos_wlanReInit
 0001:00005FB8       vos_wlanShutdown
 0001:00005FBC       vos_fetch_tl_cfg_parms
 0001:00006014       vos_set_load_unload_in_progress
 0001:00006050       vos_is_load_unload_in_progress
 0001:0000609C       vos_set_logp_in_progress
 0001:000060D8       vos_is_logp_in_progress
 0001:00006124       vos_get_global_context
 0001:00006164       vos_preClose
 0001:00006204       vos_wda_shutdown
 0001:0000625C       vos_get_context
 0001:000063AC       vos_shutdown
 0001:00006658       vos_abort_mac_scan
 0001:000066B8       vos_is_apps_power_collapse_allowed
 0001:000066BC       vos_core_return_msg
 0001:0000677C       vos_WDAComplete_cback
 0001:000067D4       vos_sys_probe_thread_cback
 0001:00006830       vos_rx_mq_serialize
 0001:0000696C       vos_tx_mq_serialize
 0001:00006ABC       vos_mq_post_message
 0001:00006C44       vos_free_context
 0001:00006DBC       vos_preOpen
 0001:00006E60       vos_alloc_context
 0001:0000703C       vos_close
 0001:0000732C       vos_stop
 0001:00007488       vos_start
 0001:000077C0       vos_preStart
 0001:00007984       vos_open
 0001:00007EAC       vos_watchdog_chip_reset
 0001:00007EB4       vos_watchdog_wlan_re_init
 0001:00007F00       get_vos_watchdog_ctxt
 0001:00007F40       get_vos_sched_ctxt
 0001:00007F80       isWDresetInProgress
 0001:00007FB8       vos_sched_is_rx_thread
 0001:0000804C       vos_sched_is_tx_thread
 0001:000080E0       vos_watchdog_wlan_shutdown
 0001:0000826C       vos_sched_flush_rx_mqs
 0001:0000834C       vos_sched_flush_tx_mqs
 0001:00008498       vos_sched_flush_mc_mqs
 0001:00008750       vos_sched_deinit_mqs
 0001:000088C4       vos_sched_init_mqs
 0001:00008CBC       vos_watchdog_close
 0001:00008D58       vos_sched_close
 0001:00008EB0       vos_watchdog_open
 0001:00008FFC       vos_sched_open
 0001:00009390       VosWDThread
 0001:000096C0       VosRXThread
 0001:00009AD0       VosTXThread
 0001:00009F68       VosMCThread
 0001:0000A60C       vos_crypto_init
 0001:0000A620       vos_crypto_deinit
 0001:0000A628       vos_decrypt_AES
 0001:0000A7EC       vos_encrypt_AES
 0001:0000A9B0       ecb_aes_complete
 0001:0000A9C4       hmac_sha1_complete
 0001:0000A9D8       hmac_sha1
 0001:0000AC44       vos_sha1_hmac_str
 0001:0000AC98       vos_rand_get_bytes
 0001:0000ACB8       WLANBAP_GetCtxFromStaId
 0001:0000ACE8       bapAllocNextLogLinkIndex
 0001:0000AD00       WLANBAP_pmcFullPwrReqCB
 0001:0000AD04       WLANBAP_UpdatePhyLinkCtxStaId
 0001:0000AD3C       WLANBAP_GetStaIdFromLinkCtx
 0001:0000AD80       WLANBAP_RxCallback
 0001:0000AE48       WLANBAP_NeedBTCoexPriority
 0001:0000AF00       WLANBAP_ReadMacConfig
 0001:0000B010       WLANBAP_CreateNewPhyLinkCtx
 0001:0000B0AC       WLANBAP_CreateNewLogLinkCtx
 0001:0000B188       WLANBAP_CleanCB
 0001:0000B34C       WLANBAP_ReleaseHndl
 0001:0000B3C4       WLANBAP_GetNewHndl
 0001:0000B48C       WLANBAP_Close
 0001:0000B500       WLANBAP_Stop
 0001:0000B5B0       WLANBAP_Start
 0001:0000B664       WLANBAP_Open
 0001:0000B6F4       btampUnpackTlvAMP_Assoc_PAL_Capabilities
 0001:0000B738       btampUnpackTlvHCI_Channel_Selected_Event
 0001:0000B750       btampUnpackTlvHCI_Data_Buffer_Overflow_Event
 0001:0000B768       btampUnpackTlvHCI_Disconnect_Physical_Link_Cmd
 0001:0000B788       btampUnpackTlvHCI_Disconnect_Physical_Link_Complete_Event
 0001:0000B7B4       btampUnpackTlvHCI_Hardware_Error_Event
 0001:0000B7CC       btampUnpackTlvHCI_Logical_Link_Cancel_Cmd
 0001:0000B7F4       btampUnpackTlvHCI_Physical_Link_Complete_Event
 0001:0000B814       btampUnpackTlvHCI_Physical_Link_Loss_Warning_Event
 0001:0000B834       btampUnpackTlvHCI_Physical_Link_Recovery_Event
 0001:0000B84C       btampUnpackTlvHCI_Read_Buffer_Size_Cmd
 0001:0000B85C       btampUnpackTlvHCI_Read_Connection_Accept_Timeout_Cmd
 0001:0000B86C       btampUnpackTlvHCI_Read_Data_Block_Size_Cmd
 0001:0000B87C       btampUnpackTlvHCI_Read_Flow_Control_Mode_Cmd
 0001:0000B88C       btampUnpackTlvHCI_Read_Local_AMP_Information_Cmd
 0001:0000B89C       btampUnpackTlvHCI_Read_Local_Supported_Cmds_Cmd
 0001:0000B8AC       btampUnpackTlvHCI_Read_Local_Version_Info_Cmd
 0001:0000B8BC       btampUnpackTlvHCI_Read_Location_Data_Cmd
 0001:0000B8CC       btampUnpackTlvHCI_Read_Logical_Link_Accept_Timeout_Cmd
 0001:0000B8DC       btampUnpackTlvHCI_Read_Loopback_Mode_Cmd
 0001:0000B8EC       btampUnpackTlvHCI_Reset_Cmd
 0001:0000B8FC       btampUnpackTlvHCI_Set_Short_Range_Mode_Cmd
 0001:0000B924       btampUnpackTlvHCI_Short_Range_Mode_Change_Complete_Event
 0001:0000B950       btampUnpackTlvHCI_Write_Flow_Control_Mode_Cmd
 0001:0000B96C       btampUnpackTlvHCI_Write_Loopback_Mode_Cmd
 0001:0000B988       btampGetPackedTlvAMP_Assoc_Connected_Channel
 0001:0000B9BC       btampGetPackedTlvAMP_Assoc_MAC_Addr
 0001:0000B9D8       btampGetPackedTlvAMP_Assoc_PAL_Capabilities
 0001:0000B9F4       btampGetPackedTlvAMP_Assoc_PAL_Version
 0001:0000BA10       btampGetPackedTlvAMP_Assoc_Preferred_Channel_List
 0001:0000BA44       btampGetPackedTlvFlow_Spec
 0001:0000BA60       btampGetPackedTlvHCI_Accept_Logical_Link_Cmd
 0001:0000BA7C       btampGetPackedTlvHCI_Accept_Physical_Link_Cmd
 0001:0000BAA8       btampGetPackedTlvHCI_Channel_Selected_Event
 0001:0000BAC4       btampGetPackedTlvHCI_Command_Complete_Event
 0001:0000BCFC       btampGetPackedTlvHCI_Command_Status_Event
 0001:0000BD18       btampGetPackedTlvHCI_Create_Logical_Link_Cmd
 0001:0000BD34       btampGetPackedTlvHCI_Create_Physical_Link_Cmd
 0001:0000BD60       btampGetPackedTlvHCI_Data_Buffer_Overflow_Event
 0001:0000BD7C       btampGetPackedTlvHCI_Disconnect_Logical_Link_Cmd
 0001:0000BD98       btampGetPackedTlvHCI_Disconnect_Logical_Link_Complete_Event
 0001:0000BDB4       btampGetPackedTlvHCI_Disconnect_Physical_Link_Cmd
 0001:0000BDD0       btampGetPackedTlvHCI_Disconnect_Physical_Link_Complete_Event
 0001:0000BDEC       btampGetPackedTlvHCI_Flow_Spec_Modify_Cmd
 0001:0000BE08       btampGetPackedTlvHCI_Flow_Spec_Modify_Complete_Event
 0001:0000BE24       btampGetPackedTlvHCI_Flush_Cmd
 0001:0000BE40       btampGetPackedTlvHCI_Flush_Occurred_Event
 0001:0000BE5C       btampGetPackedTlvHCI_Num_Completed_Pkts_Event
 0001:0000BE70       btampGetPackedTlvHCI_Num_Completed_Data_Blocks_Event
 0001:0000BE84       btampGetPackedTlvHCI_Generic_AMP_Link_Key_Notification_Event
 0001:0000BEA0       btampGetPackedTlvHCI_Hardware_Error_Event
 0001:0000BEBC       btampGetPackedTlvHCI_Logical_Link_Cancel_Cmd
 0001:0000BED8       btampGetPackedTlvHCI_Logical_Link_Complete_Event
 0001:0000BEF4       btampGetPackedTlvHCI_Loopback_Command_Event
 0001:0000BF10       btampGetPackedTlvHCI_Physical_Link_Complete_Event
 0001:0000BF2C       btampGetPackedTlvHCI_Physical_Link_Loss_Warning_Event
 0001:0000BF48       btampGetPackedTlvHCI_Physical_Link_Recovery_Event
 0001:0000BF64       btampGetPackedTlvHCI_Qos_Violation_Event
 0001:0000BF80       btampGetPackedTlvHCI_Read_Best_Effort_Flush_Timeout_Cmd
 0001:0000BF9C       btampGetPackedTlvHCI_Read_Buffer_Size_Cmd
 0001:0000BFA4       btampGetPackedTlvHCI_Read_Connection_Accept_Timeout_Cmd
 0001:0000BFAC       btampGetPackedTlvHCI_Read_Data_Block_Size_Cmd
 0001:0000BFB4       btampGetPackedTlvHCI_Read_Failed_Contact_Counter_Cmd
 0001:0000BFD0       btampGetPackedTlvHCI_Read_Flow_Control_Mode_Cmd
 0001:0000BFD8       btampGetPackedTlvHCI_Read_Link_Quality_Cmd
 0001:0000BFF4       btampGetPackedTlvHCI_Read_Link_Supervision_Timeout_Cmd
 0001:0000C010       btampGetPackedTlvHCI_Read_Local_AMP_Assoc_Cmd
 0001:0000C02C       btampGetPackedTlvHCI_Read_Local_AMP_Information_Cmd
 0001:0000C034       btampGetPackedTlvHCI_Read_Local_Supported_Cmds_Cmd
 0001:0000C03C       btampGetPackedTlvHCI_Read_Local_Version_Info_Cmd
 0001:0000C044       btampGetPackedTlvHCI_Read_Location_Data_Cmd
 0001:0000C04C       btampGetPackedTlvHCI_Read_Logical_Link_Accept_Timeout_Cmd
 0001:0000C054       btampGetPackedTlvHCI_Read_Loopback_Mode_Cmd
 0001:0000C05C       btampGetPackedTlvHCI_Read_RSSI_Cmd
 0001:0000C078       btampGetPackedTlvHCI_Reset_Cmd
 0001:0000C080       btampGetPackedTlvHCI_Reset_Failed_Contact_Counter_Cmd
 0001:0000C09C       btampGetPackedTlvHCI_Set_Event_Mask_Cmd
 0001:0000C0B8       btampGetPackedTlvHCI_Set_Event_Mask_Page_2_Cmd
 0001:0000C0D4       btampGetPackedTlvHCI_Set_Short_Range_Mode_Cmd
 0001:0000C0F0       btampGetPackedTlvHCI_Short_Range_Mode_Change_Complete_Event
 0001:0000C10C       btampGetPackedTlvHCI_Write_Best_Effort_Flush_Timeout_Cmd
 0001:0000C128       btampGetPackedTlvHCI_Write_Connection_Accept_Timeout_Cmd
 0001:0000C144       btampGetPackedTlvHCI_Write_Flow_Control_Mode_Cmd
 0001:0000C160       btampGetPackedTlvHCI_Write_Link_Supervision_Timeout_Cmd
 0001:0000C17C       btampGetPackedTlvHCI_Write_Location_Data_Cmd
 0001:0000C198       btampGetPackedTlvHCI_Write_Logical_Link_Accept_Timeout_Cmd
 0001:0000C1B4       btampGetPackedTlvHCI_Write_Loopback_Mode_Cmd
 0001:0000C1D0       btampGetPackedTlvHCI_Write_Remote_AMP_ASSOC_Cmd
 0001:0000C1FC       btampGetPackedTlvHCI_Enhanced_Flush_Cmd
 0001:0000C218       btampGetPackedTlvHCI_Enhanced_Flush_Complete_Event
 0001:0000C234       btampPackTlvHCI_Short_Range_Mode_Change_Complete_Event
 0001:0000C314       btampPackTlvHCI_Physical_Link_Recovery_Event
 0001:0000C3C8       btampPackTlvHCI_Physical_Link_Loss_Warning_Event
 0001:0000C490       btampPackTlvHCI_Physical_Link_Complete_Event
 0001:0000C558       btampPackTlvHCI_Hardware_Error_Event
 0001:0000C60C       btampPackTlvHCI_Disconnect_Physical_Link_Complete_Event
 0001:0000C6EC       btampPackTlvHCI_Data_Buffer_Overflow_Event
 0001:0000C7A0       btampPackTlvHCI_Channel_Selected_Event
 0001:0000C854       btampPackTlvHCI_Loopback_Command_Event
 0001:0000C910       btampPackTlvHCI_Generic_AMP_Link_Key_Notification_Event
 0001:0000CA08       framesntohs
 0001:0000CA34       btampUnpackTlvHCI_Enhanced_Flush_Complete_Event
 0001:0000CA58       btampUnpackTlvHCI_Enhanced_Flush_Cmd
 0001:0000CA98       btampUnpackTlvHCI_Write_Logical_Link_Accept_Timeout_Cmd
 0001:0000CAC8       btampUnpackTlvHCI_Write_Link_Supervision_Timeout_Cmd
 0001:0000CB18       btampUnpackTlvHCI_Write_Connection_Accept_Timeout_Cmd
 0001:0000CB48       btampUnpackTlvHCI_Write_Best_Effort_Flush_Timeout_Cmd
 0001:0000CBA8       btampUnpackTlvHCI_Reset_Failed_Contact_Counter_Cmd
 0001:0000CBD8       btampUnpackTlvHCI_Read_RSSI_Cmd
 0001:0000CC08       btampUnpackTlvHCI_Read_Local_AMP_Assoc_Cmd
 0001:0000CC78       btampUnpackTlvHCI_Read_Link_Supervision_Timeout_Cmd
 0001:0000CCA8       btampUnpackTlvHCI_Read_Link_Quality_Cmd
 0001:0000CCD8       btampUnpackTlvHCI_Read_Failed_Contact_Counter_Cmd
 0001:0000CD08       btampUnpackTlvHCI_Read_Best_Effort_Flush_Timeout_Cmd
 0001:0000CD38       btampUnpackTlvHCI_Qos_Violation_Event
 0001:0000CD5C       btampUnpackTlvHCI_Logical_Link_Complete_Event
 0001:0000CD98       btampUnpackTlvHCI_Flush_Occurred_Event
 0001:0000CDBC       btampUnpackTlvHCI_Flush_Cmd
 0001:0000CDEC       btampUnpackTlvHCI_Flow_Spec_Modify_Complete_Event
 0001:0000CE1C       btampUnpackTlvHCI_Disconnect_Logical_Link_Complete_Event
 0001:0000CE58       btampUnpackTlvHCI_Disconnect_Logical_Link_Cmd
 0001:0000CE88       btampUnpackTlvHCI_Command_Status_Event
 0001:0000CEC8       btampUnpackTlvFlow_Spec
 0001:0000CF8C       btampUnpackTlvAMP_Assoc_PAL_Version
 0001:0000CFE4       btampUnpackTlvHCI_Write_Remote_AMP_ASSOC_Cmd
 0001:0000D060       btampUnpackTlvHCI_Write_Location_Data_Cmd
 0001:0000D0A8       btampUnpackTlvHCI_Set_Event_Mask_Page_2_Cmd
 0001:0000D0F4       btampUnpackTlvHCI_Set_Event_Mask_Cmd
 0001:0000D11C       btampUnpackTlvHCI_Loopback_Command_Event
 0001:0000D13C       btampUnpackTlvHCI_Generic_AMP_Link_Key_Notification_Event
 0001:0000D17C       btampUnpackTlvHCI_Flow_Spec_Modify_Cmd
 0001:0000D1DC       btampUnpackTlvHCI_Create_Physical_Link_Cmd
 0001:0000D23C       btampUnpackTlvHCI_Create_Logical_Link_Cmd
 0001:0000D280       btampUnpackTlvHCI_Command_Complete_Event
 0001:0000D818       btampUnpackTlvHCI_Accept_Physical_Link_Cmd
 0001:0000D878       btampUnpackTlvHCI_Accept_Logical_Link_Cmd
 0001:0000D8BC       btampUnpackTlvAMP_Assoc_Preferred_Channel_List
 0001:0000D944       btampUnpackTlvAMP_Assoc_MAC_Addr
 0001:0000D96C       btampUnpackTlvAMP_Assoc_Connected_Channel
 0001:0000D9F0       btampPackAMP_ASSOC
 0001:0000E648       frameshtons.clone.1
 0001:0000E658       btampPackTlvAMP_Assoc_Connected_Channel
 0001:0000E770       btampPackTlvAMP_Assoc_MAC_Addr
 0001:0000E834       btampPackTlvAMP_Assoc_Preferred_Channel_List
 0001:0000E950       btampPackTlvHCI_Accept_Logical_Link_Cmd
 0001:0000EA48       btampPackTlvHCI_Accept_Physical_Link_Cmd
 0001:0000EB58       btampPackTlvHCI_Create_Logical_Link_Cmd
 0001:0000EC50       btampPackTlvHCI_Create_Physical_Link_Cmd
 0001:0000ED60       btampPackTlvHCI_Flow_Spec_Modify_Cmd
 0001:0000EE70       btampPackTlvHCI_Set_Event_Mask_Cmd
 0001:0000EF34       btampPackTlvHCI_Set_Event_Mask_Page_2_Cmd
 0001:0000EFF8       btampPackTlvHCI_Write_Location_Data_Cmd
 0001:0000F0EC       btampPackTlvHCI_Write_Remote_AMP_ASSOC_Cmd
 0001:0000F204       btampPackTlvAMP_Assoc_PAL_Version
 0001:0000F2F8       btampPackTlvHCI_Command_Status_Event
 0001:0000F3DC       btampPackTlvHCI_Disconnect_Logical_Link_Cmd
 0001:0000F49C       btampPackTlvHCI_Disconnect_Logical_Link_Complete_Event
 0001:0000F584       btampPackTlvHCI_Disconnect_Physical_Link_Cmd
 0001:0000F658       btampPackTlvHCI_Flow_Spec_Modify_Complete_Event
 0001:0000F724       btampPackTlvHCI_Flush_Cmd
 0001:0000F7E4       btampPackTlvHCI_Flush_Occurred_Event
 0001:0000F89C       btampPackTlvHCI_Num_Completed_Pkts_Event
 0001:0000F970       btampPackTlvHCI_Num_Completed_Data_Blocks_Event
 0001:0000FA74       btampPackTlvHCI_Logical_Link_Cancel_Cmd
 0001:0000FB48       btampPackTlvHCI_Logical_Link_Complete_Event
 0001:0000FC48       btampPackTlvHCI_Qos_Violation_Event
 0001:0000FD00       btampPackTlvHCI_Read_Best_Effort_Flush_Timeout_Cmd
 0001:0000FDC0       btampPackTlvHCI_Read_Buffer_Size_Cmd
 0001:0000FE58       btampPackTlvHCI_Read_Connection_Accept_Timeout_Cmd
 0001:0000FEF0       btampPackTlvHCI_Read_Data_Block_Size_Cmd
 0001:0000FF88       btampPackTlvHCI_Read_Failed_Contact_Counter_Cmd
 0001:00010048       btampPackTlvHCI_Read_Flow_Control_Mode_Cmd
 0001:000100E0       btampPackTlvHCI_Read_Link_Quality_Cmd
 0001:000101A0       btampPackTlvHCI_Read_Link_Supervision_Timeout_Cmd
 0001:00010260       btampPackTlvHCI_Read_Local_AMP_Assoc_Cmd
 0001:00010350       btampPackTlvHCI_Read_Local_AMP_Information_Cmd
 0001:000103E8       btampPackTlvHCI_Read_Local_Supported_Cmds_Cmd
 0001:00010480       btampPackTlvHCI_Read_Local_Version_Info_Cmd
 0001:00010518       btampPackTlvHCI_Read_Location_Data_Cmd
 0001:000105B0       btampPackTlvHCI_Read_Logical_Link_Accept_Timeout_Cmd
 0001:00010648       btampPackTlvHCI_Read_Loopback_Mode_Cmd
 0001:000106E0       btampPackTlvHCI_Read_RSSI_Cmd
 0001:000107A0       btampPackTlvHCI_Reset_Cmd
 0001:00010838       btampPackTlvHCI_Reset_Failed_Contact_Counter_Cmd
 0001:000108F8       btampPackTlvHCI_Set_Short_Range_Mode_Cmd
 0001:000109CC       btampPackTlvHCI_Write_Connection_Accept_Timeout_Cmd
 0001:00010A8C       btampPackTlvHCI_Write_Flow_Control_Mode_Cmd
 0001:00010B4C       btampPackTlvHCI_Write_Link_Supervision_Timeout_Cmd
 0001:00010C28       btampPackTlvHCI_Write_Logical_Link_Accept_Timeout_Cmd
 0001:00010CE8       btampPackTlvHCI_Write_Loopback_Mode_Cmd
 0001:00010DA8       btampPackTlvHCI_Enhanced_Flush_Cmd
 0001:00010E80       btampPackTlvHCI_Enhanced_Flush_Complete_Event
 0001:00010F38       frameshtonl.clone.2
 0001:00010F58       btampPackTlvHCI_Command_Complete_Event
 0001:0001163C       btampPackTlvAMP_Assoc_PAL_Capabilities
 0001:000116FC       btampPackTlvFlow_Spec
 0001:0001182C       btampPackTlvHCI_Write_Best_Effort_Flush_Timeout_Cmd
 0001:00011908       btampUnpackAMP_ASSOC
 0001:00011BE4       btampGetPackedAMP_ASSOCSize
 0001:000125F8       WLAN_BAPEstablishLogicalLink
 0001:00012704       WLAN_BAPLogicalLinkCancel
 0001:000127A8       WLAN_BAPLogicalLinkDisconnect
 0001:000129B0       WLAN_BAPFlowSpecModify
 0001:00012AE0       WLAN_BAPLogicalLinkAccept
 0001:00012D10       WLAN_BAPLogicalLinkCreate
 0001:00012F40       WLAN_BAPPhysicalLinkDisconnect
 0001:00013044       WLANBAP_RoamCallback
 0001:00013610       WLAN_BAPPhysicalLinkAccept
 0001:000136D8       WLAN_BAPPhysicalLinkCreate
 0001:0001379C       WLAN_BAPSetEventMask
 0001:000137A4       WLAN_BAPWriteFlowControlMode
 0001:000137AC       WLAN_BAPReadBestEffortFlushTimeout
 0001:000137B4       WLAN_BAPWriteBestEffortFlushTimeout
 0001:000137BC       WLANBAP_TLFlushCompCallback
 0001:000137C4       WLAN_BAPVendorSpecificCmd1
 0001:00013854       WLAN_BAPSetShortRangeMode
 0001:00013960       WLAN_BAPReadFlowControlMode
 0001:000139EC       WLAN_BAPWriteLogicalLinkAcceptTimeout
 0001:00013AC0       WLAN_BAPReadLogicalLinkAcceptTimeout
 0001:00013B50       WLAN_BAPWriteLinkSupervisionTimeout
 0001:00013C30       WLAN_BAPReadLinkSupervisionTimeout
 0001:00013D18       WLAN_BAPWriteConnectionAcceptTimeout
 0001:00013DEC       WLAN_BAPReadConnectionAcceptTimeout
 0001:00013E7C       WLAN_EnhancedBAPFlush
 0001:00013F64       WLAN_BAPFlush
 0001:0001400C       WLAN_BAPVendorSpecificCmd0
 0001:000140F4       WLAN_BAPWriteLocationData
 0001:000141AC       WLAN_BAPReadLocationData
 0001:00014258       WLAN_BAPSetEventMaskPage2
 0001:00014300       WLAN_BAPReset
 0001:00014414       WLAN_BAPSetConfig
 0001:00014438       WLAN_BAPGetMask
 0001:00014470       WLAN_BAPReadDataBlockSize
 0001:000144F0       WLAN_BAPReadBufferSize
 0001:0001456C       WLAN_BAPReadLocalSupportedCmds
 0001:00014668       WLAN_BAPReadLocalVersionInfo
 0001:000146E4       WLAN_BAPReadFailedContactCounter
 0001:000146EC       WLAN_BAPResetFailedContactCounter
 0001:000146F4       WLAN_BAPReadLocalAMPInfo
 0001:000147A0       WLAN_BAPReadLinkQuality
 0001:00014870       WLAN_BAPWriteRemoteAMPAssoc
 0001:00014988       WLAN_BAPReadLocalAMPAssoc
 0001:00014BFC       src
 0001:00014C08       WLAN_BAPReadRSSI
 0001:00014CF0       WLAN_BAPReadLoopbackMode
 0001:00014CF8       WLAN_BAPWriteLoopbackMode
 0001:00014D00       WLAN_BAPRegisterBAPCallbacks
 0001:00014D34       WLANBAP_RegisterDataPlane
 0001:00014D7C       WLANBAP_STAPktPending
 0001:00014E4C       WLANBAP_TxCompCB_0
 0001:00014F2C       WLANBAP_STAFetchPktCB_0
 0001:00014FA4       WLANBAP_GetAcFromTxDataPkt
 0001:00015070       WLANBAP_STARxCB_0
 0001:000151F8       WLANBAP_XlateRxDataPkt
 0001:00015404       WLANBAP_XlateTxDataPkt
 0001:00015664       WLANBAP_GetCurrentChannel
 0001:00015704       WLANBAP_SendCompletedDataBlksEvent
 0001:00015840       WLANBAP_SendCompletedPktsEvent
 0001:00015970       WLANBAP_StopTxPacketMonitorTimer
 0001:000159AC       WLANBAP_StopLinkSupervisionTimer
 0001:000159E8       WLANBAP_StopConnectionAcceptTimer
 0001:00015A24       WLANBAP_StartTxPacketMonitorTimer
 0001:00015A64       WLANBAP_TxPacketMonitorHandler
 0001:00015AE0       WLANBAP_StartLinkSupervisionTimer
 0001:00015B1C       WLANBAP_StartConnectionAcceptTimer
 0001:00015B58       WLANBAP_ConnectionAcceptTimerHandler
 0001:00015BE8       WLANBAP_LinkSupervisionTimerHandler
 0001:00015D40       WLANBAP_DeinitLinkSupervisionTimer
 0001:00015D7C       WLANBAP_DeinitConnectionAcceptTimer
 0001:00015DB8       WLANBAP_InitLinkSupervisionTimer
 0001:00015E04       WLANBAP_InitConnectionAcceptTimer
 0001:00015E50       bapSuppDisconnect
 0001:00015E58       bapAuthDisconnect
 0001:00015E60       gotoScanning
 0001:00015E70       convertRoleToBssType
 0001:00015E88       bapBin2Hex
 0001:00015EF8       signalHCIChanSelEvent
 0001:00015F58       signalHCIDiscLogLinkCompEvent
 0001:00015FD4       btampfsmChangeToState
 0001:00015FDC       btampEstablishLogLinkHdlr
 0001:0001601C       btampEstablishLogLink
 0001:000160C0       validAssocInd
 0001:000160DC       determineChan
 0001:00016118       signalHCIPhysLinkDiscEvent
 0001:00016230       signalHCIPhysLinkCompEvent
 0001:000162A4       gotoDisconnected
 0001:000162B8       gotoAuthenticating
 0001:000162CC       gotoConnecting
 0001:000162E0       gotoConnected
 0001:0001636C       gotoDisconnecting
 0001:000163B0       convertBSSIDToSSID
 0001:00016400       regStaWithTl
 0001:000165C0       initRsnAuthenticator
 0001:000165D8       initRsnSupplicant
 0001:000165F0       convertToCsrProfile
 0001:000168B8       gotoStarting
 0001:00016B80       gotoS1
 0001:00016C18       btampFsm
 0001:00017AC4       bapSetKey
 0001:00017C14       authRsnFsmInit
 0001:00017C34       authRsnAuthDisconEventHandler
 0001:00017C3C       aagAppendGroupKeyForRsn
 0001:00017D24       authRsnAuthStartEventHandler
 0001:00017D94       gotoStateDisconnect
 0001:00017DB4       stopAllTimers
 0001:00017DD4       gotoStatePtkInitNegoTx
 0001:000180F0       gotoStatePtkStart
 0001:000181FC       checkMic
 0001:00018250       authRsnFsmFree
 0001:0001833C       authRsnRxFrameHandler
 0001:00018414       authRsnTxCompleteHandler
 0001:00018514       checkTransition
 0001:00018B3C       authRsnFsmProcessEvent
 0001:00018C20       authEapolHandler
 0001:00018CE4       msg4TimerCallback
 0001:00018D24       msg2TimerCallback
 0001:00018D64       authRsnFsmCreate
 0001:00018FE8       suppRsnFsmInit
 0001:00019008       suppRsnAuthStartEventHandler
 0001:00019064       gotoStateStaKeyStart
 0001:0001922C       checkPeerReplayCounter
 0001:0001929C       gotoStateStaKeySet
 0001:00019434       checkTransition_0
 0001:00019730       suppRsnFsmProcessEvent
 0001:000197E0       suppEapolHandler
 0001:00019884       gotoStateGroupKeySet
 0001:00019A34       suppRsnFsmFree
 0001:00019A9C       suppRsnFsmCreate
 0001:00019C50       suppRsnRxFrameHandler
 0001:00019D28       suppRsnTxCompleteHandler
 0001:00019E08       aagGetKeyMaterialLen
 0001:00019E18       aagPrf
 0001:00019F2C       aagGtkPrf
 0001:00019FD0       aagPtkPrf
 0001:0001A104       aniAsfPacketCanAppendBuffer
 0001:0001A130       aniAsfPacketCanPrependBuffer
 0001:0001A160       aniAsfPacketTruncateFromFront
 0001:0001A194       aniAsfPacketTruncateFromRear
 0001:0001A1C8       aniAsfPacketGetLen
 0001:0001A1D8       aniAsfPacketGetBytes
 0001:0001A1F0       aniAsfPacketGetN
 0001:0001A230       aniAsfPacketGet32
 0001:0001A2D4       aniAsfPacketAppend32
 0001:0001A38C       aniAsfPacketGet16
 0001:0001A408       aniAsfPacketPrepend16
 0001:0001A474       aniAsfPacketPrependHdr
 0001:0001A4B4       aniAsfPacketAppend16
 0001:0001A544       aniAsfPacketGet8
 0001:0001A5A0       aniAsfPacketAppend8
 0001:0001A600       aniAsfPacketMoveLeft
 0001:0001A648       aniAsfPacketMoveRight
 0001:0001A68C       aniAsfPacketGetBytesFromTail
 0001:0001A6A4       aniAsfPacketGetMac
 0001:0001A6EC       aniAsfPacketPrependBuffer
 0001:0001A75C       aniAsfPacketAppendBuffer
 0001:0001A7C4       aniAsfPacketPrepend8
 0001:0001A848       aniAsfPacketEmptyExplicit
 0001:0001A8BC       aniAsfPacketEmpty
 0001:0001A8C8       aniAsfPacketFree
 0001:0001A8F8       aniAsfPacketAllocateExplicit
 0001:0001A9E8       aniAsfPacketDuplicate
 0001:0001AAA4       aniAsfPacketAllocate
 0001:0001AAB0       aniEapolType2Str
 0001:0001AACC       bapRsnFormPktFromVosPkt
 0001:0001AC38       aniEapolKeyFreeDesc
 0001:0001AC90       aniEapolKeyCheckMic
 0001:0001AE08       aniEapolParseKey
 0001:0001B16C       addEapolHeaders
 0001:0001B248       aniEapolWriteKey
 0001:0001B5C4       aniEapolWriteEapPacket
 0001:0001B5CC       aniEapolWriteStart
 0001:0001B5D4       aniEapolParse
 0001:0001B694       bapRsnEapolHandler
 0001:0001B74C       aniSsmReplayCtrFree
 0001:0001B774       aniSsmReplayCtrNext
 0001:0001B7F4       aniSsmReplayCtrUpdate
 0001:0001B80C       aniSsmReplayCtrCmp
 0001:0001B818       aniSsmReplayCtrCreate
 0001:0001B8D4       bapRsnRegisterTxRxCallbacks
 0001:0001B908       bapRsnClearTxRxCallbacks
 0001:0001B920       bapRsnRegisterRxCallback
 0001:0001B96C       bapRsnRxCallback
 0001:0001B9E4       bapRsnSendEapolFrame
 0001:0001BB04       bapRsnTxCompleteCallback
 0001:0001BC70       aniAsfPut32
 0001:0001BCB4       aniSsmAesKeyUnwrap
 0001:0001BEF8       s2
 0001:0001BF00       aniSsmAesKeyWrap
 0001:0001C140       WLANBAP_TxLinkSupervision
 0001:0001C270       WLANBAP_DeInitLinkSupervision
 0001:0001C2F8       WLANBAP_RxProcLsPkt
 0001:0001C45C       WLANBAP_AcquireLSPacket
 0001:0001C5F0       WLANBAP_TxLinkSupervisionCB
 0001:0001C728       WLANBAP_InitLinkSupervision
 0001:0001C858       WLANTL_ProcessFCFrame
 0001:0001C860       WLANTL_TxFreeMsg
 0001:0001C868       WLANTL_TxFCFrame
 0001:0001C870       WLANTL_UpdateRssiBmps
 0001:0001C8A0       WLANTL_IsReplayPacket
 0001:0001C8E8       WLANTL_SetACWeights
 0001:0001C968       WLANTL_GetACWeights
 0001:0001C9E8       WLANTL_ReadRSSI
 0001:0001CA68       WLANTL_ResetSpecStatistic
 0001:0001CBE0       WLANTL_GetSpecStatistic
 0001:0001CD54       WLANTL_STATxDisc
 0001:0001CDB4       WLANTL_GetRxPktCount
 0001:0001CE94       WLANTL_GetTxPktCount
 0001:0001CF78       WLANTL_SuspendCB
 0001:0001D004       WLANTL_RegisterMgmtFrmClient
 0001:0001D0A4       WLANTL_GetLinkQuality
 0001:0001D160       WLANTL_GetRssi
 0001:0001D260       WLANTL_RegisterBAPClient
 0001:0001D320       WLANTL_SetSTAPriority
 0001:0001D3B8       WLANTL_ChangeSTAState
 0001:0001D474       WLANTL_ConfigureSwFrameTXXlationForAll
 0001:0001D4F0       WLANTL_PostResNeeded
 0001:0001D538       WLANTL_SuspendDataTx
 0001:0001D61C       WLANTL_ResetStatistics
 0001:0001D6A8       WLANTL_StartForwarding
 0001:0001D70C       WLANTL_AssocFailed
 0001:0001D718       WLANTL_PowerStateChangedCB
 0001:0001D7E4       WLANTL_GetStatistics
 0001:0001D8B4       WLANTL_GetSoftAPStatistics
 0001:0001DA74       WLANTL_RegGetTrafficStatus
 0001:0001DA78       WLANTL_BMPSRSSIRegionChangedNotification
 0001:0001DA7C       WLANTL_SetAlpha
 0001:0001DA80       WLANTL_DeregRSSIIndicationCB
 0001:0001DA84       WLANTL_RegRSSIIndicationCB
 0001:0001DA88       WLANTL_DisableUAPSDForAC
 0001:0001DB20       WLANTL_EnableUAPSDForAC
 0001:0001DBF4       WLANTL_TxCompDefaultCb
 0001:0001DBFC       WLANTL_STARxDefaultCb
 0001:0001DC2C       WLANTL_MgmtFrmRxDefaultCb
 0001:0001DC40       WLANTL_STARxDisc
 0001:0001DCA0       WLANTL_DeRegisterMgmtFrmClient
 0001:0001DD44       WLANTL_RegisterSTAClient
 0001:0001E204       WLANTL_CleanSTA
 0001:0001E3DC       WLANTL_CleanCB
 0001:0001E4DC       WLANTL_ResetNotification
 0001:0001E520       WLANTL_STAFetchPktDefaultCb
 0001:0001E56C       WLANTL_BAPRxDefaultCb
 0001:0001E5B8       WLAN_TLAPGetNextTxIds
 0001:0001E7FC       WLAN_TLGetNextTxIds
 0001:0001E9F4       WLANTL_Translate80211To8023Header
 0001:0001EBE8       WLANTL_Translate8023To80211Header
 0001:0001EF50       WLANTL_GetTxResourcesCB
 0001:0001F050       WLANTL_ResourceCB
 0001:0001F0B8       WLANTL_ResumeDataTx
 0001:0001F190       WLANTL_STAPktPending
 0001:0001F2C8       WLANTL_McFreeMsg
 0001:0001F358       WLANTL_FlushStaTID
 0001:0001F470       WLANTL_McProcessMsg
 0001:0001F66C       WLANTL_ClearSTAClient
 0001:0001F73C       WLANTL_GetEtherType
 0001:0001F7C8       WLANTL_STARxConn
 0001:0001FA24       WLANTL_TxComp
 0001:0001FB60       WLANTL_FwdPktToHDD
 0001:0001FD14       WLANTL_STARxAuth
 0001:000202A0       WLANTL_STATxAuth
 0001:000207DC       WLANTL_STATxConn
 0001:00020BD0       WLANTL_ProcessBAPFrame
 0001:00020DB4       WLANTL_RxCachedFrames
 0001:00021040       WLANTL_TxProcessMsg
 0001:00021228       WLANTL_RxFrames
 0001:0002160C       WLANTL_GetFrames
 0001:00021A74       WLANTL_TxBAPFrm
 0001:00021CE0       WLANTL_TxMgmtFrm
 0001:00021EDC       WLANTL_Finish_ULA
 0001:00021EE0       WLANTL_Close
 0001:00021F8C       WLANTL_Stop
 0001:00022050       WLANTL_Start
 0001:00022108       WLANTL_Open
 0001:00022374       WLANTL_FillReplayCounter
 0001:00022388       WLANTL_QueueCurrent
 0001:000223DC       WLANTL_ChainFrontPkts
 0001:000224E8       WLANTL_MSDUReorder
 0001:00022BDC       WLANTL_InitBAReorderBuffer
 0001:00022C74       WLANTL_AMSDUProcess
 0001:00022F44       WLANTL_BaSessionDel
 0001:00023314       WLANTL_BaSessionAdd
 0001:00023598       WLANTL_ReorderingAgingTimerExpierCB
 0001:00023950       WLANTL_HSGetRSSI
 0001:00023A30       WLANTL_HSDebugDisplay
 0001:00023BC8       WLANTL_HSHandleRSSIChange
 0001:00023EB4       WLANTL_HSStop
 0001:00023F64       WLANTL_HSInit
 0001:00024060       WLANTL_HSRegGetTrafficStatus
 0001:000240F4       WLANTL_HSTrafficStatusTimerExpired
 0001:0002424C       WLANTL_HSSetAlpha
 0001:000242F0       WLANTL_HSBMPSRSSIRegionChangedNotification
 0001:000246D0       WLANTL_StatHandleTXFrame
 0001:000247DC       WLANTL_HSHandleTXFrame
 0001:0002488C       WLANTL_StatHandleRXFrame
 0001:00024A28       WLANTL_HSHandleRXFrame
 0001:00024BC4       WLANTL_SetFWRSSIThresholds
 0001:00024DA0       WLANTL_HSDeregRSSIIndicationCB
 0001:00025208       WLANTL_HSRegRSSIIndicationCB
 0001:000257F0       encodeCfgReq
 0001:00025878       sendCfg
 0001:00025980       ccmCfgUpdate
 0001:00025C5C       ccmCfgGetStr
 0001:00025CD8       ccmCfgGetInt
 0001:00025D20       freeCfgReq
 0001:00025D24       cfgSetSub
 0001:00025F4C       cfgSet
 0001:0002611C       ccmCfgSetStr
 0001:000261BC       ccmCfgSetInt
 0001:0002625C       ccmStop
 0001:0002633C       ccmStart
 0001:0002634C       sendQueuedReqToMacSw
 0001:0002646C       ccmCfgCnfMsgHandler
 0001:000266B8       ccmClose
 0001:00026714       ccmOpen
 0001:00026754       ccmDumpInit
 0001:00026764       csrLLCount
 0001:000267A8       csrListInsertEntry
 0001:000267E4       csrLLOpen
 0001:0002685C       csrLLUnlock
 0001:00026894       csrLLLock
 0001:000268CC       csrLLPeekHead
 0001:00026940       csrLLFindEntry
 0001:000269B8       csrLLRemoveEntry
 0001:00026A78       csrLLPrevious
 0001:00026B14       csrLLNext
 0001:00026BB0       csrLLRemoveHead
 0001:00026C3C       csrLLPurge
 0001:00026CAC       csrLLClose
 0001:00026CFC       csrLLPeekTail
 0001:00026D74       csrLLRemoveTail
 0001:00026E04       csrLLInsertEntry
 0001:00026E80       csrLLInsertHead
 0001:00026F00       csrLLInsertTail
 0001:00026F7C       csrLLIsListEmpty
 0001:00026FF4       csrScanEnable
 0001:00027014       csrIsSupportedChannel
 0001:00027098       csrGetChannelListFromChannelSet
 0001:00027160       csrScanGetNextCommandState
 0001:00027230       csrIsNetworkTypeEqual
 0001:00027248       csrRoamIsValidChannel
 0001:00027288       csrScanGetScanChannelInfo
 0001:000272E8       csrRemoveCmdFromPendingList
 0001:0002736C       csrScanResultGetFirst
 0001:000273B0       csrScanAbortMacScan
 0001:0002749C       csrScanAbortMacScanNotForConnect
 0001:000274C4       csrSendMBScanResultReq
 0001:00027554       csrScanRetrieveResult
 0001:00027580       csrSetCfgBackgroundScanPeriod
 0001:000275A4       csrSetCfgValidChannelList
 0001:000275C8       csrSetBGScanChannelList
 0001:000275EC       csrScanCallCallback
 0001:00027634       csrGetCountryCode
 0001:00027680       csrSetCfgScanControlList
 0001:0002778C       csrScanFreeRequest
 0001:0002781C       csrPurgeChannelPower
 0001:00027860       csrFreeScanResultEntry
 0001:00027898       csrLLScanPurgeResult
 0001:000278E0       csrScanFlushResult
 0001:000278EC       csrSetCfgCountryCode
 0001:00027974       csrAdjustBGScanChannelList
 0001:00027A24       csrAddBKIDCandidateList
 0001:00027AE4       csrAddPMKIDCandidateList
 0001:00027BA4       csrSaveTxPowerToCfg
 0001:00027DD4       csrApplyPower2Current
 0001:00027E2C       csrScanResultGetNext
 0001:00027E88       csrConstructCurrentValidChannelList
 0001:00027F14       csrGetChannelPowerInfo
 0001:00028000       csrScanGetSupportedChannels
 0001:00028074       csrInitBGScanChannelList
 0001:00028118       csrScanCopyRequest
 0001:00028354       csrScanForCapabilityChange
 0001:00028428       csrScanRemoveFreshScanCommand
 0001:0002852C       csrScanRemoveNotRoamingScanCommand
 0001:000285D8       csrScanBGScanAbort
 0001:00028664       csrScanSetBGScanparams
 0001:000287B0       csrScanGetScanChnInfo
 0001:00028880       csrScanRequestResult
 0001:00028950       csrScanGetResultTimerHandler
 0001:00028954       csrGetRemainingChannelsFor11dScan
 0001:00028A54       csrScanForSSID
 0001:00028DC0       csrReleaseScanCommand
 0001:00028E4C       csrScanCcmCfgSetCallback
 0001:00028ECC       csrScanStopIdleScanTimer
 0001:00028EE4       csrScanCancelIdleScan
 0001:00028F40       csrScanSuspendIMPS
 0001:00028F44       csrScanStopResultAgingTimer
 0001:00028F5C       csrProcessSetBGScanParam
 0001:00029044       csrScanStopGetResultTimer
 0001:0002905C       csrScanTriggerIdleScan
 0001:00029208       csrScanStopTimers
 0001:00029228       csrScanDisable
 0001:00029248       csrScanStartIdleScanTimer
 0001:00029328       csrScanStartResultAgingTimer
 0001:00029360       csrScanStartIdleScan
 0001:000293F4       csrScanResumeIMPS
 0001:000293F8       csrScanBGScanEnable
 0001:000294C8       csrScanStartGetResultTimer
 0001:00029500       csrStaApConcTimerHandler
 0001:00029728       csrScanGetAgeOutTime
 0001:000297DC       csrSendMBScanReq
 0001:00029C54       csrScanChannels
 0001:00029CA8       csrProcessScanCommand
 0001:00029D8C       csrHandleScan11dSuccess
 0001:00029E74       csrScanIsWildCardScan
 0001:00029EC8       csrMoveBssToHeadFromBSSID
 0001:00029F70       csrIsDuplicateBssDescription
 0001:0002A0DC       csrScanAgeOutBss
 0001:0002A208       csrScanResultAgingTimerHandler
 0001:0002A2D8       csrScanAgeResults
 0001:0002A38C       csrRemoveDupBssDescription
 0001:0002A48C       csrScanSaveBssDescriptionToInterimList
 0001:0002A578       csrScanAddResult
 0001:0002A67C       csrScanAppendBssDescription
 0001:0002A7C0       csrSaveToChannelPower2G_5G
 0001:0002A9CC       csrSaveChannelPowerForBand
 0001:0002AAD0       csrSetOppositeBandChannelInfo
 0001:0002AB50       csrReinitScanCmd
 0001:0002ABF8       csrSave11dCountryString
 0001:0002ACDC       csrLearnCountryInformation
 0001:0002B0E8       csrSetCountryCode
 0001:0002B16C       csrApplyChannelPowerCountryInfo
 0001:0002B290       csrResetCountryInformation
 0001:0002B33C       csrHandleScan11d1Failure
 0001:0002B370       csrResetCountryCodeInformation
 0001:0002B3E8       csrApplyCountryInformation
 0001:0002B57C       csrProcessBSSDescForBKIDList
 0001:0002B664       csrProcessBSSDescForPMKIDList
 0001:0002B750       csrScanResultPurge
 0001:0002B78C       csrScanCopyResultList
 0001:0002B988       csrScanGetResult
 0001:0002BDFC       csrScanGetBKIDCandidateList
 0001:0002BF68       csrScanGetPMKIDCandidateList
 0001:0002C0E0       csrIssueRoamAfterLostlinkScan
 0001:0002C2D4       csrScanHandleCapChangeScanComplete
 0001:0002C4C0       csrScanHandleSearchForSSID
 0001:0002C660       csrScanHandleSearchForSSIDFailure
 0001:0002C884       csrScanRequestLostLink3
 0001:0002C9D0       csrScanHandleFailedLostlink3
 0001:0002CA18       csrScanHandleFailedLostlink2
 0001:0002CAAC       csrScanRequestLostLink2
 0001:0002CD44       csrScanHandleFailedLostlink1
 0001:0002CE04       csrScanComplete
 0001:0002D338       csrScanProcessScanResults
 0001:0002D7BC       csrScanSmeScanResponse
 0001:0002D8EC       csrScanningStateMsgProcessor
 0001:0002D960       csrScanRequestLostLink1
 0001:0002DCE8       csrQueueScanRequest
 0001:0002E04C       csrScanRequest
 0001:0002E35C       csrScanAllChannels
 0001:0002E3DC       csrScanIMPSCallback
 0001:0002E4DC       csrScanIdleScanTimerHandler
 0001:0002E55C       csrCheckValidateLists
 0001:0002E6BC       csrScanClose
 0001:0002E7B4       csrScanOpen
 0001:0002E944       csrRoamStart
 0001:0002E94C       csrRoamGetConnectState
 0001:0002E978       csrAssignRssiForCategory
 0001:0002E9B8       csrGetCurrentBand
 0001:0002E9C4       csrGetConfigParam
 0001:0002EC10       csrIsValidChannel
 0001:0002EC58       csrRoamGetPhyModeFromDot11Mode
 0001:0002EC74       csrRoamRegisterCallback
 0001:0002EC7C       csrRoamIsValid40MhzChannel
 0001:0002ECC4       csrIsEncryptionInList
 0001:0002ECFC       csrIsAuthInList
 0001:0002ED34       csrRoamGetNumBKIDCache
 0001:0002ED50       csrRoamGetNumPMKIDCache
 0001:0002ED6C       csrGetRoamCompleteStatus
 0001:0002ED9C       csrRoamSaveStatsFromTl
 0001:0002EE94       csrRoamRegisterLinkQualityIndCallback
 0001:0002EECC       csrGetCBModeFromIes
 0001:0002EF98       csrSetPhyMode
 0001:0002F150       csrRoamSubstateChange
 0001:0002F18C       csrRoamStateChange
 0001:0002F1E8       csrRoamWaitForKeyTimeOutHandler
 0001:0002F234       csrRoamTlStatsTimerHandler
 0001:0002F2AC       csrRoamStartIbssJoinTimer
 0001:0002F2FC       csrRoamStartWaitForKeyTimer
 0001:0002F338       csrRoamReportStatistics
 0001:0002F6D0       csrRoamGetWapiRspIE
 0001:0002F730       csrRoamGetWapiReqIE
 0001:0002F790       csrRoamGetWpaRsnRspIE
 0001:0002F7F0       csrRoamGetWpaRsnReqIE
 0001:0002F850       csrRoamGetPMKIDCache
 0001:0002F914       csrRoamSetPMKIDCache
 0001:0002F994       csrRoamGetBKIDCache
 0001:0002FA90       csrRoamSetBKIDCache
 0001:0002FB64       csrSetChannels
 0001:0002FBF8       csrRoamIssueFTPreauthReq
 0001:0002FD18       csrSendMBStatsReqMsg
 0001:0002FDB0       csrRoamCopyConnectProfile
 0001:0002FEA8       csrRoamUpdateWPARSNIEs
 0001:0002FFB0       csrRoamUpdateAPWPSIE
 0001:000300B8       csrSendMBDelSelfStaReqMsg
 0001:0003013C       csrProcessDelStaSessionCommand
 0001:00030144       csrSendMBAddSelfStaReqMsg
 0001:00030228       csrProcessAddStaSessionCommand
 0001:00030230       csrSendMBStopBssReqMsg
 0001:000302E8       csrResetBKIDCandidateList
 0001:00030328       csrResetPMKIDCandidateList
 0001:00030368       csrReinitWmStatusChangeCmd
 0001:00030380       csrPruneChannelListForMode
 0001:00030470       csrReinitRemoveKeyCmd
 0001:00030488       csrReinitSetKeyCmd
 0001:000304A0       csrRoamInsertEntryIntoPeStatsReqList
 0001:00030574       csrReleaseCommand
 0001:000305E8       csrReleaseCommandRemoveKey
 0001:00030608       csrReleaseCommandSetKey
 0001:00030628       csrReleaseCommandWmStatusChange
 0001:00030648       csrRoamVccTrigger
 0001:0003073C       csrRoamCallCallback
 0001:000308F8       csrRoamFTPreAuthRspProcessor
 0001:00030A00       csrRoamShouldRoam
 0001:00030A64       csrGetCommandBuffer
 0001:00030A88       csrRoamVccTriggerRssiIndCallback
 0001:00030BD4       csrIsFullPowerNeeded
 0001:00030DCC       csrQueueSmeCommand
 0001:00030F0C       csrIssueDelStaForSessionReq
 0001:00030FB0       csrIssueAddStaForSessionReq
 0001:00031044       csrRoamIssueSetKeyCommand
 0001:00031264       csrRoamStopIbssJoinTimer
 0001:00031284       csrRoamIssueStopBss
 0001:000312CC       csrRoamStopWaitForKeyTimer
 0001:000312E4       csrRoamCheckClientReqList
 0001:00031364       csrRoamChecknUpdateClientReqList
 0001:00031420       csrRoamInsertEntryIntoList
 0001:00031508       csrRoamFindInPeStatsReqList
 0001:00031580       csrRoamRemoveStatListEntry
 0001:000315BC       csrRoamRemoveEntryFromPeStatsReqList
 0001:000316B8       csrRoamDeregStatisticsReq
 0001:00031874       csrRoamStop
 0001:000318A8       csrRoamFreeConnectedInfo
 0001:000318EC       csrSendMBDeauthReqMsg
 0001:00031A70       csrRoamIssueDeauth
 0001:00031B34       csrRoamIssueDeauthSta
 0001:00031B3C       csrSendMBTkipCounterMeasuresReqMsg
 0001:00031C10       csrRoamIssueTkipCounterMeasures
 0001:00031CFC       csrRoamFreeConnectProfile
 0001:00031D48       csrRoamCheckPeStatsReqList
 0001:00031FA0       csrGetStatistics
 0001:00032420       csrGetRssi
 0001:00032544       csrRoamStatsRspProcessor
 0001:000328CC       csrRoamStatsClientTimerHandler
 0001:000328D4       csrRoamPeStatsTimerHandler
 0001:000329E4       csrRoamGetSessionIdFromBSSID
 0001:00032A54       csrIsScanForRoamCommandActive
 0001:00032AB4       csrIsCommandWaiting
 0001:00032B04       csrIsRoamCommandWaitingForSession
 0001:00032BD0       csrIsRoamCommandWaiting
 0001:00032C28       csrRoamSaveConnectedBssDesc
 0001:00032CD0       csrProcessAddStaSessionRsp
 0001:00032DEC       csrRoamWmStatusChangeComplete
 0001:00032E94       csrRoamOpenSession
 0001:00032FE4       csrRoamOpen
 0001:000330C8       csrRoamGetConnectProfile
 0001:00033108       csrRoamIsSameProfileKeys
 0001:00033220       csrSendMBStartBssReqMsg
 0001:0003359C       csrSendMBSetContextReqMsg
 0001:00033874       csrSendAssocCnfMsg
 0001:00033990       csrSendMBDeauthCnfMsg
 0001:00033A64       csrSendMBDisassocCnfMsg
 0001:00033B38       csrSendMBGetWPSPBCSessions
 0001:00033C28       csrRoamGetWpsSessionOverlap
 0001:00033D2C       csrSendMBGetAssociatedStasReqMsg
 0001:00033E54       csrRoamGetAssociatedStas
 0001:00033F50       csrSendAssocIndToUpperLayerCnfMsg
 0001:000340CC       csrRoamIssueSetContextReq
 0001:000341B8       csrGetRateSet
 0001:00034364       csrIsBTAMPAllowed
 0001:00034448       csrRoamRemoveConnectedBssFromScanCache
 0001:000346AC       csrRoamGetPhyModeBandForBss
 0001:000347FC       csrRoamIssueStartBss
 0001:00034930       csrGetCfgValidChannels
 0001:00034940       csrPropareJoinReassocReqBuffer
 0001:00034AE0       csrSendSmeReassocReqMsg
 0001:0003520C       csrRoamIssueReassociate
 0001:0003527C       csrSendJoinReqMsg
 0001:000359CC       csrRoamIssueJoin
 0001:00035A50       csrRoamIsChannelValid
 0001:00035ABC       csrRoamPrepareFilterFromProfile
 0001:00035D98       csrIsSameProfile
 0001:00035F40       csrRoamGetIbssStartChannelNumber24
 0001:0003600C       csrRoamGetIbssStartChannelNumber50
 0001:00036110       csrRoamPrepareBssParams
 0001:000367B0       csrFindIbssSession
 0001:00036818       csrRoamCompleteRoaming
 0001:00036968       csrRoamCompletion
 0001:00036A60       csrRoamCancelRoaming
 0001:00036B10       csrRoamStartRoaming
 0001:00036B40       csrRoamRoamingTimerHandler
 0001:00036BAC       csrRoamLostLink
 0001:00036E60       csrRoamLinkDown
 0001:00036EA4       csrRoamLinkUp
 0001:00036F50       csrRoamSetKey
 0001:00036F90       csrRoamProcessRemoveKeyCommand
 0001:00037134       csrRoamProcessSetKeyCommand
 0001:0003724C       csrRoamIssueRemoveKeyCommand
 0001:000373F4       csrRoamPrepareBssConfigFromProfile
 0001:000375CC       csrRoamCopyConnectedProfile
 0001:0003773C       csrRoamCopyProfile
 0001:00037B04       csrRoamSaveConnectedInfomation
 0001:00037DAC       csrReinitRoamCmd
 0001:00037E18       csrReleaseCommandRoam
 0001:00037E38       csrRoamLostLinkAfterhandoffFailure
 0001:00037F0C       csrRoamIssueStopBssCmd
 0001:00037FF4       csrRoamProcessWmStatusChangeCommand
 0001:000380B8       csrRoamIssueDisassociateCmd
 0001:00038224       csrRoamDisconnectInternal
 0001:000382C8       csrRoamIbssJoinTimerHandler
 0001:00038300       csrRoamIssueReassoc
 0001:00038454       csrReassoc
 0001:00038504       csrRoamIssueConnect
 0001:00038664       csrRoamRemoveDuplicateCommand
 0001:000387C0       csrRoamDisconnect
 0001:00038820       csrRoamJoinLastProfile
 0001:00038A00       csrRoamConnectToLastProfile
 0001:00038A80       csrRoamReconnect
 0001:00038AC4       csrRoamReassoc
 0001:00038C6C       csrRoamConnectWithBSSList
 0001:00038D20       csrRoamConnect
 0001:000390B8       csrRoamIs11rAssoc
 0001:000390BC       csrSendMBDisassocReqMsg
 0001:0003929C       csrRoamIssueDisassociateSta
 0001:000392A4       csrRoamIssueDisassociate
 0001:00039420       csrRoamIsHandoffInProgress
 0001:00039424       csrSetQosToCfg
 0001:00039498       csrSetDefaultDot11Mode
 0001:000394CC       csrRoamIssueWmStatusChange
 0001:000395E8       csrRoamCheckForLinkStatusChange
 0001:0003A5B0       csrRoamJoinedStateMsgProcessor
 0001:0003A7A4       csrRoamProcessResults
 0001:0003BECC       csrRoamComplete
 0001:0003BFC8       csrRoamProcessDisassocDeauth
 0001:0003C198       csrSetCfgPrivacy
 0001:0003C484       csrRoamSetBssConfigCfg
 0001:0003CB4C       csrRoamStartWds
 0001:0003CCFC       csrRoamPrepareBssConfig
 0001:0003CF34       csrRoamStopNetwork
 0001:0003D0E0       csrRoamJoin
 0001:0003D3A8       csrRoamJoinNextBss
 0001:0003D948       csrRoam
 0001:0003DAB8       csrRoamingStateConfigCnfProcessor
 0001:0003DE14       csrRoamCcmCfgSetCallback
 0001:0003DE38       csrRoamProcessCommand
 0001:0003E0A8       csrRoamReissueRoamCommand
 0001:0003E240       csrRoamRoamingStateDisassocRspProcessor
 0001:0003E624       csrRoamingStateMsgProcessor
 0001:0003EBCC       CsrInit11dInfo
 0001:0003ED68       csrChangeConfigParams
 0001:0003ED6C       csrInitChannelList
 0001:0003EDB0       csrInitGetChannels
 0001:0003EED0       csrChangeDefaultConfigParam
 0001:0003F3A4       csrSetBand
 0001:0003F474       csrReleaseCommandScan
 0001:0003F494       csrAbortCommand
 0001:0003F5A0       purgeCsrSessionCmdList
 0001:0003F62C       csrCleanupSession
 0001:0003F808       csrProcessDelStaSessionRsp
 0001:0003F908       csrRoamCloseSession
 0001:0003F988       csrRoamClose
 0001:0003FA00       csrSetGlobalCfgs
 0001:0003FAC4       csrReady
 0001:0003FB24       csrStop
 0001:0003FBD8       csrStart
 0001:0003FC90       csrClose
 0001:0003FCF8       csrSetRegInfo
 0001:0003FE64       csrOpen
 0001:00040278       csrFullPowerCallback
 0001:000402C0       csrCheckPSReady
 0001:00040314       csrMsgProcessor
 0001:0004042C       get_eRoamCmdStatus_str
 0001:0004044C       get_eCsrRoamResult_str
 0001:0004046C       csrIsConnStateConnectedIbss
 0001:00040490       csrIsConnStateDisconnectedIbss
 0001:000404B4       csrIsConnStateConnectedInfra
 0001:000404D8       csrIsConnStateConnected
 0001:00040514       csrIsConnStateInfra
 0001:00040538       csrIsConnStateIbss
 0001:00040568       csrIsConnStateConnectedWds
 0001:0004058C       csrIsConnStateConnectedInfraAp
 0001:000405B4       csrIsConnStateDisconnectedWds
 0001:000405D8       csrIsConnStateWds
 0001:00040608       csrIsAnySessionInConnectState
 0001:00040670       csrGetInfraSessionId
 0001:000406B8       csrGetInfraOperationChannel
 0001:000406E8       csrGetConcurrentOperationChannel
 0001:00040764       csrIsAllSessionDisconnected
 0001:000407AC       csrIsInfraConnected
 0001:000407EC       csrIsConcurrentInfraConnected
 0001:00040838       csrIsIBSSStarted
 0001:00040898       csrIsBTAMPStarted
 0001:000408E0       csrIsBTAMP
 0001:00040904       csrIsConnStateDisconnected
 0001:00040924       csrIsInfraBssDesc
 0001:00040938       csrIsIbssBssDesc
 0001:0004094C       csrIsQoSBssDesc
 0001:00040960       csrIsPrivacy
 0001:00040974       csrIs11dSupported
 0001:00040980       csrIs11hSupported
 0001:0004098C       csrIs11eSupported
 0001:00040998       csrIsWmmSupported
 0001:000409AC       csrIsAniWmeSupported
 0001:000409DC       csrIsHcfEnabled
 0001:00040A1C       csrIsNULLSSID
 0001:00040A5C       csrGetFragThresh
 0001:00040A68       csrGetRTSThresh
 0001:00040A74       csrTranslateToPhyModeFromBssDesc
 0001:00040A94       csrGetPhyModeFromBss
 0001:00040AF8       csrGetPhyModeInUse
 0001:00040C50       csrIsPhyModeMatch
 0001:00040DC4       csrFindBestPhyMode
 0001:00040E30       csrGet11hPowerConstraint
 0001:00040E58       csrIsProfileWpa
 0001:00040EA4       csrIsProfileRSN
 0001:00040EF0       csrIsProfileWapi
 0001:00040F34       csrGetOUIIndexFromCipher
 0001:00040F50       csrRatesIsDot11Rate11bSupportedRate
 0001:00040F78       csrRatesIsDot11Rate11aSupportedRate
 0001:00040FD4       csrTranslateEncryptTypeToEdType
 0001:00040FF4       csrIsBSSTypeMatch
 0001:00041014       csrIsBssTypeIBSS
 0001:00041028       csrIsBssTypeWDS
 0001:0004103C       csrIsBSSTypeCapsMatch
 0001:00041094       csrIsChannelBandMatch
 0001:000410B4       csrIsAggregateRateSupported
 0001:00041250       csrIsRateSetMatch
 0001:000412F4       csrRatesIsDot11RateSupported
 0001:000412FC       csrRatesMacPropToDot11
 0001:00041418       csrRatesFindBestRate
 0001:000414E8       csrGetDisassocRspStatusCode
 0001:00041510       csrGetDeAuthRspStatusCode
 0001:00041538       csrToUpper
 0001:00041550       csrTranslateBsstypeToMacType
 0001:0004156C       csrGetCfgDot11ModeFromCsrPhyMode
 0001:00041658       csrIs40MhzChannel
 0001:000416A0       csrSetRegulatoryDomain
 0001:000416E8       csrGetCurrentRegulatoryDomain
 0001:000416F4       csrIsSetKeyAllowed
 0001:00041778       csrTranslateToWNICfgDot11Mode
 0001:0004186C       csrScanGetBaseChannels
 0001:000418FC       csrSetModifyProfileFields
 0001:0004192C       csrGetModifyProfileFields
 0001:00041970       csrGetBssIdBssDesc
 0001:00041998       csrGetSupportedCountryCode
 0001:00041A0C       csrIsMacAddressEqual
 0001:00041A1C       csrIsBssIdEqual
 0001:00041A8C       csrIsMacAddressBroadcast
 0001:00041AC8       csrIsMacAddressZero
 0001:00041AF4       csrIsBssidMatch
 0001:00041B68       csrIsSsidInList
 0001:00041C28       csrIsSsidMatch
 0001:00041CB8       csrValidateWep
 0001:00041E38       csrGetWpaRsnIe
 0001:00042028       csrIsOuiMatch
 0001:000420BC       csrGetWpaCyphers
 0001:0004230C       csrIsWpaEncryptionMatch
 0001:00042350       csrGetRSNInformation
 0001:000426D8       csrIsRSNMatch
 0001:00042720       csrLookupBKID
 0001:00042824       csrIsWapiOuiMatch
 0001:000428B8       csrGetWapiInformation
 0001:00042B54       csrIsWapiMatch
 0001:00042B98       csrIsSecurityMatch
 0001:00042F34       csrMatchConnectedBSSSecurity
 0001:00042F98       csrLookupPMKID
 0001:0004309C       csrGetRegulatoryDomainForCountry
 0001:0004312C       csrMatchCountryCode
 0001:0004326C       csrGetScanType
 0001:00043288       csrFreeConnectBssDesc
 0001:000432C0       csrFreeScanFilter
 0001:00043330       csrReleaseProfile
 0001:0004346C       csrFreeRoamProfile
 0001:000434B0       csrSearchChannelListForTxPower
 0001:0004354C       csrParseBssDescriptionIEs
 0001:0004357C       csrGetParsedBssDescriptionIEs
 0001:0004364C       csrMatchBSSToConnectProfile
 0001:0004376C       csrMatchBSS
 0001:00043A20       csrConstructWpaIe
 0001:00043BC4       csrRetrieveWpaIe
 0001:00043C90       csrConstructWapiIe
 0001:00043E8C       csrRetrieveWapiIe
 0001:00043F4C       csrConstructRSNIe
 0001:00044198       csrRetrieveRsnIe
 0001:0004426C       csrIsBssDescriptionWme
 0001:00044340       csrGetQoSFromBssDesc
 0001:00044410       csrIsSsidEqual
 0001:00044598       csrDumpInit
 0001:000445A8       dump_btcSetEvent
 0001:0004469C       dump_csr
 0001:0004473C       csrNeighborRoamIsHandoffInProgress
 0001:00044754       csrNeighborRoamIs11rAssoc
 0001:00044760       csrNeighborRoamIndicateDisconnect
 0001:00044878       csrNeighborRoamAddBssIdToPreauthFailList
 0001:00044944       csrNeighborRoamPurgePreauthFailedList
 0001:00044994       csrNeighborRoamPurgePreauthFailList
 0001:000449FC       csrNeighborRoamFreeNeighborRoamBSSNode
 0001:00044A2C       csrNeighborRoamPrepareScanProfileFilter
 0001:00044C14       csrNeighborRoamInit11rAssocInfo
 0001:00044D40       csrNeighborRoamInit
 0001:00045098       csrNeighborRoamTransitToCFGChanScan
 0001:0004524C       csrNeighborRoamNeighborLookupDownEvent
 0001:000453DC       csrNeighborRoamNeighborLookupDOWNCallback
 0001:00045484       csrNeighborRoamIssueBgScanRequest
 0001:00045640       csrNeighborRoamPerformBgScan
 0001:0004581C       csrNeighborRoamNeighborScanTimerCallback
 0001:00045904       csrNeighborRoamIsPreauthCandidate
 0001:000459C8       csrNeighborRoamGetRoamableAPListNextEntry
 0001:00045A04       csrNeighborRoamGetHandoffAPInfo
 0001:00045ADC       csrNeighborRoamRequestHandoff
 0001:00045C7C       csrNeighborRoamIssuePreauthReq
 0001:00045DEC       csrNeighborRoamReassocIndCallback
 0001:00046010       csrNeighborRoamRemoveRoamableAPListEntry
 0001:00046074       csrNeighborRoamPreauthRspHandler
 0001:000462AC       csrNeighborRoamPreAuthResponseWaitTimerHandler
 0001:000462C8       csrNeighborRoamFreeRoamableBSSList
 0001:00046340       csrNeighborRoamClose
 0001:000464D8       csrNeighborRoamResetConnectedStateControlInfo
 0001:000465C4       csrNeighborRoamNeighborLookupUpEvent
 0001:00046860       csrNeighborRoamNeighborLookupUPCallback
 0001:00046908       csrNeighborRoamResultsRefreshTimerCallback
 0001:000469D4       csrNeighborRoamScanRequestCallback
 0001:0004725C       csrNeighborRoamResetInitStateControlInfo
 0001:00047478       csrNeighborRoamIndicateConnect
 0001:000476B8       pmcGetFilterMatchCount
 0001:00047770       pmcSetPowerParams
 0001:00047824       pmcUpdateScanParams
 0001:0004793C       pmcSetRssiFilter
 0001:000479D4       pmcSetKeepAlive
 0001:00047AAC       pmcSetHostOffload
 0001:00047B4C       pmcPrepareProbeReqTemplate
 0001:00047D38       pmcSetPreferredNetworkList
 0001:00047EA0       pmcIsPowerSaveEnabled
 0001:00047FAC       pmcQueryPowerState
 0001:00048028       pmcGetConfigPowerSave
 0001:000480F4       pmcSignalPowerEvent
 0001:00048154       pmcCloseDeferredMsgList
 0001:000481D8       pmcCloseDeviceStateUpdateList
 0001:0004825C       pmcCloseRequestStartUapsdList
 0001:000482E0       pmcCloseRequestBmpsList
 0001:00048364       pmcCloseRequestFullPowerList
 0001:000483E8       pmcClosePowerSaveCheckList
 0001:0004846C       pmcExitWowl
 0001:000484B8       pmcWowlDelBcastPattern
 0001:000485C4       pmcWowlAddBcastPattern
 0001:000486F4       pmcDisablePowerSave
 0001:00048804       pmcEnablePowerSave
 0001:0004896C       pmcReady
 0001:000489EC       pmcSetConfigPowerSave
 0001:00048CC4       pmcDeregisterDeviceStateUpdateInd
 0001:00048DA8       pmcDeregisterPowerSaveCheck
 0001:00048E8C       pmcRegisterDeviceStateUpdateInd
 0001:00048F34       pmcRegisterPowerSaveCheck
 0001:00048FDC       pmcAllowImps
 0001:0004903C       pmcRequestStandby
 0001:00049188       pmcStopUapsd
 0001:000491F0       pmcRequestBmps
 0001:000492EC       pmcValidateConnectState
 0001:000493A8       pmcEnterWowl
 0001:00049570       pmcStartUapsd
 0001:0004970C       pmcMessageProcessor
 0001:00049FA4       pmcRequestImps
 0001:0004A014       pmcRequestFullPower
 0001:0004A1CC       pmcStopAutoBmpsTimer
 0001:0004A230       pmcStartAutoBmpsTimer
 0001:0004A2BC       pmcClose
 0001:0004A3C8       pmcStop
 0001:0004A504       pmcStart
 0001:0004A640       pmcOpen
 0001:0004A900       pmcGetPmcState
 0001:0004A90C       pmcGetPmcStateStr
 0001:0004A928       pmcDoEnterWowlCallbacks
 0001:0004A97C       pmcDoStandbyCallbacks
 0001:0004A9D0       pmcShouldBmpsTimerRun
 0001:0004AA90       pmcReleaseCommand
 0001:0004AAB0       pmcPrepareCommand
 0001:0004AD38       pmcIssueCommand
 0001:0004AD84       pmcRequestExitWowlState
 0001:0004AE3C       pmcEnterRequestStopUapsdState
 0001:0004AED0       pmcDeferMsg
 0001:0004B03C       pmcDoDeviceStateUpdateCallbacks
 0001:0004B0CC       pmcPowerSaveCheck
 0001:0004B164       pmcEnterBmpsCheck
 0001:0004B2B0       pmcEnterImpsCheck
 0001:0004B47C       pmcDoStartUapsdCallbacks
 0001:0004B4E8       pmcDoBmpsCallbacks
 0001:0004B55C       pmcStartTrafficTimer
 0001:0004B5F8       pmcExitLowPowerState
 0001:0004B6B4       pmcStopTrafficTimer
 0001:0004B6F0       pmcEnterRequestStandbyState
 0001:0004B7AC       pmcEnterRequestBmpsState
 0001:0004B8F8       pmcRequestEnterWowlState
 0001:0004BA48       pmcEnterRequestStartUapsdState
 0001:0004BC58       pmcTrafficTimerExpired
 0001:0004BE40       pmcEnterRequestImpsState
 0001:0004BF3C       pmcDoCallbacks
 0001:0004C01C       pmcSendMessage
 0001:0004C12C       pmcEnterFullPowerState
 0001:0004C3FC       pmcAbortCommand
 0001:0004C5F0       pmcSendPowerSaveConfigMessage
 0001:0004C768       pmcEnterRequestFullPowerState
 0001:0004CA84       pmcEnterWowlState
 0001:0004CB00       pmcEnterStandbyState
 0001:0004CBF4       pmcEnterUapsdState
 0001:0004CC6C       pmcExitPowerSaveTimerExpired
 0001:0004CCC4       pmcImpsTimerExpired
 0001:0004CD3C       pmcEnterBmpsState
 0001:0004CEE0       pmcProcessCommand
 0001:0004D4C0       pmcEnterImpsState
 0001:0004D63C       pmcEnterLowPowerState
 0001:0004D714       pmcDumpInit
 0001:0004D724       dump_pmc_disable_bmps
 0001:0004D738       dump_pmc_disable_uapsd
 0001:0004D74C       dump_pmc_disable_imps
 0001:0004D760       dump_pmc_enable_bmps
 0001:0004D774       dump_pmc_enable_uapsd
 0001:0004D788       dump_pmc_enable_imps
 0001:0004D79C       dump_pmc_callbackRoutine
 0001:0004D7B0       dump_pmc_remove_ptrn
 0001:0004D814       dump_pmc_exit_wowl
 0001:0004D824       dump_pmc_enter_wowl
 0001:0004D924       dump_pmc_test_Wowl
 0001:0004DA3C       dump_pmc_start_uapsd
 0001:0004DA6C       dump_pmc_stop_uapsd
 0001:0004DA7C       dump_pmc_test_uapsd
 0001:0004DB18       dump_pmc_request_full_power
 0001:0004DB38       dump_pmc_request_standby
 0001:0004DB60       dump_pmc_request_bmps
 0001:0004DB88       dump_pmc_stop_auto_bmps_timer
 0001:0004DB98       dump_pmc_start_auto_bmps_timer
 0001:0004DBB4       dump_pmc_request_imps
 0001:0004DBDC       dump_pmc_state
 0001:0004DDA4       dump_pmc_deviceUpdateRoutine
 0001:0004DDD0       sme_QosPmcStartUapsdCallback
 0001:0004DDDC       sme_QosPmcCheckRoutine
 0001:0004DE20       sme_QosStateTransition
 0001:0004DE94       sme_QosUpToAc
 0001:0004DEE8       sme_QosAcToUp
 0001:0004DF40       sme_QosSetParams
 0001:0004DFF0       sme_QosIsTSInfoAckPolicyValid
 0001:0004E168       sme_QosValidateRequestedParams
 0001:0004E18C       sme_QosValidateParams
 0001:0004E2C4       sme_QosModificationNotifyFnp
 0001:0004E3AC       sme_QosSetupFnp
 0001:0004E494       sme_QosIsACM
 0001:0004E608       sme_QosGetACMMask
 0001:0004E6A8       sme_QosProcessHandoffSuccessEv
 0001:0004E7A0       sme_QosRequestReassoc
 0001:0004E88C       sme_QosProcessIntoUapsdMode
 0001:0004E978       sme_QosProcessOutOfUapsdMode
 0001:0004EA64       sme_QosPmcDeviceStateUpdateInd
 0001:0004EAE0       sme_QosFindAllInFlowList
 0001:0004EC9C       sme_QosFindInFlowList
 0001:0004EE0C       sme_QosUpdateTspecMask
 0001:0004F028       sme_QosProcessHandoffAssocReqEv
 0001:0004F1A8       sme_QosAddTsSuccessFnp
 0001:0004F534       sme_QosAddTsFailureFnp
 0001:0004F6A8       sme_QosReassocSuccessEvFnp
 0001:0004F8C8       sme_QosDelTsIndFnp
 0001:0004F9E4       sme_QosModifyFnp
 0001:0004FAB0       sme_QosDeleteBufferedRequests
 0001:0004FB94       sme_QosDeleteExistingFlows
 0001:0004FCA0       sme_QosSaveAssocInfo
 0001:0004FD5C       sme_QosAggregateParams
 0001:00050004       sme_QosBufferCmd
 0001:000500C8       sme_QosBufferExistingFlows
 0001:00050360       sme_QosCleanupCtrlBlkForHandoff
 0001:000503E8       sme_QosProcessJoinReqEv
 0001:00050564       sme_QosInitACs
 0001:000505B8       sme_QosProcessDisconnectEv
 0001:000507A0       sme_QosProcessHandoffFailureEv
 0001:000508F0       sme_QosProcessReassocFailureEv
 0001:00050A64       sme_QosUpdateParams
 0001:00050C50       sme_QosProcessFTReassocReqEv
 0001:00050E28       sme_QosProcessReassocReqEv
 0001:000510E4       sme_QosProcessFTRICResponse
 0001:00051224       sme_QosFTAggrQosReq
 0001:00051494       sme_QosProcessFTReassocRspEv
 0001:00051760       sme_QosDelTsReq
 0001:00051AF4       sme_QosAddTsReq
 0001:00051D64       qosProcessCommand
 0001:00051DEC       sme_QosCreateTspecRICIE
 0001:000520C0       sme_QosProcessPreauthSuccessInd
 0001:00052308       qosReleaseCommand
 0001:00052330       qosIssueCommand
 0001:00052470       sme_QosSetup
 0001:00052964       sme_QosInternalReleaseReq
 0001:0005365C       sme_QosProcessBufferedCmd
 0001:000538E8       sme_QosReRequestAddTS
 0001:00053C3C       sme_QosTriggerUapsdChange
 0001:00054058       sme_QosPmcFullPowerCallback
 0001:000540C4       sme_QosProcessAddTsSuccessRsp
 0001:0005443C       sme_QosProcessAddTsFailureRsp
 0001:0005463C       sme_QosProcessAddTsRsp
 0001:00054794       sme_QosProcessAggrQosRsp
 0001:00054878       sme_QosProcessReassocSuccessEv
 0001:00054BC4       sme_QosProcessAssocCompleteEv
 0001:00054E28       sme_QosCsrEventInd
 0001:00054FC8       sme_QosProcessDelTsInd
 0001:00055170       sme_QosProcessDelTsRsp
 0001:000551D4       sme_QosInternalModifyReq
 0001:0005592C       sme_QosInternalSetupReq
 0001:0005666C       sme_QosMsgProcessor
 0001:000567F4       sme_QosReleaseReq
 0001:000568B4       sme_QosModifyReq
 0001:00056980       sme_QosSetupReq
 0001:00056B74       sme_QosClose
 0001:00056D10       sme_QosOpen
 0001:00056EC0       sme_GetPhyMode
 0001:00056ECC       sme_SetDHCPTillPowerActiveFlag
 0001:00056ED8       sme_GetSupportedRegulatoryDomains
 0001:00056F58       sme_GetOperationChannel
 0001:00056FB4       sme_ReceiveFilterClearFilter
 0001:00057074       sme_ReceiveFilterSetFilter
 0001:00057274       sme_8023MulticastList
 0001:0005733C       sme_sendBTAmpEvent
 0001:000573D8       sme_FreeMsg
 0001:000573F0       sme_SetCountryCode
 0001:000573F4       sme_GetRegulatoryDomainForCountry
 0001:000573F8       smsLog
 0001:0005743C       sme_HandleChangeCountryCode
 0001:00057678       sme_PreferredNetworkFoundInd
 0001:00057708       sme_PCFilterMatchCountResponseHandler
 0001:000577A4       dumpCsrCommandInfo
 0001:00057854       sme_ScanGetBaseChannels
 0001:00057858       sme_IsWmmSupported
 0001:0005785C       sme_Is11hSupported
 0001:00057860       sme_Is11dSupported
 0001:00057864       sme_SetRegulatoryDomain
 0001:00057868       sme_GetCurrentRegulatoryDomain
 0001:000578A4       sme_GetSupportedCountryCode
 0001:000578A8       sme_ResetCountryCodeInformation
 0001:000578AC       sme_GetCountryCode
 0001:000578B0       sme_CfgSetStr
 0001:000578B4       sme_CfgSetInt
 0001:000578B8       sme_RoamRegisterCallback
 0001:000578BC       sme_RoamRegisterLinkQualityIndCallback
 0001:000578C8       sme_Start
 0001:00057954       sme_HDDReadyInd
 0001:00057A78       sme_ChangeConfigParams
 0001:00057ACC       sme_UpdateConfig
 0001:00057B48       sme_UpdateChannelConfig
 0001:00057B6C       sme_setRegInfo
 0001:00057BC0       sme_set11dinfo
 0001:00057C14       sme_Open
 0001:00057E58       smeReleaseCommand
 0001:00057E70       smeCommandPending
 0001:00057EB0       smeGetCommandBuffer
 0001:00058024       sme_ReleaseGlobalLock
 0001:00058048       sme_AcquireGlobalLock
 0001:0005806C       sme_GetFreqBand
 0001:000580AC       sme_SetFreqBand
 0001:000580F0       sme_IsChannelValid
 0001:00058138       sme_HandlePostChannelSwitchInd
 0001:0005817C       sme_HandlePreChannelSwitchInd
 0001:000581C4       sme_GetFilterMatchCount
 0001:00058240       sme_SetTxPerTracking
 0001:00058314       sme_GetConcurrentOperationChannel
 0001:00058374       sme_GetInfraOperationChannel
 0001:000583BC       sme_GetInfraSessionId
 0001:000583FC       sme_ConfigureResumeReq
 0001:00058450       sme_ConfigureSuspendInd
 0001:000584A4       sme_ConfigureRxpFilter
 0001:000584F8       sme_p2pSetPs
 0001:0005853C       sme_CancelRemainOnChannel
 0001:00058580       smeAbortCommand
 0001:000585D8       smeReleaseCmdList
 0001:0005860C       purgeSmeCmdList
 0001:00058634       sme_Close
 0001:00058804       sme_Stop
 0001:000588D0       smeProcessCommand
 0001:00058FE0       smeProcessPendingQueue
 0001:00058FFC       smePushCommand
 0001:00059034       purgeSmeSessionCmdList
 0001:000590C0       sme_sendAction
 0001:0005912C       sme_updateP2pIe
 0001:00059210       sme_ReportProbeReq
 0001:00059268       sme_RemainOnChannel
 0001:000592CC       sme_DeregisterMgmtFrame
 0001:000593DC       sme_RegisterMgmtFrame
 0001:00059504       sme_AbortMacScan
 0001:00059540       sme_SetPowerParams
 0001:00059580       sme_SetRSSIFilter
 0001:000595C0       sme_SetPreferredNetworkList
 0001:00059618       sme_SetKeepAlive
 0001:00059680       sme_SetHostOffload
 0001:000596C4       sme_RoamUpdateAPWPARSNIEs
 0001:00059710       sme_RoamUpdateAPWPSIE
 0001:0005975C       sme_CloseSession
 0001:000597B4       sme_OpenSession
 0001:0005981C       sme_InNavMeasurementRequest
 0001:0005996C       sme_getInNavMeasurementResult
 0001:000599B4       sme_ScanGetBKIDCandidateList
 0001:00059A08       sme_RoamGetNumBKIDCache
 0001:00059A50       sme_RoamGetBKIDCache
 0001:00059AC4       sme_RoamSetBKIDCache
 0001:00059B18       sme_GetWcnssHardwareVersion
 0001:00059B84       sme_GetWcnssSoftwareVersion
 0001:00059BF0       sme_GetWcnssWlanReportedVersion
 0001:00059C54       sme_GetWcnssWlanCompiledVersion
 0001:00059CB8       sme_DbgWriteMemory
 0001:00059D58       sme_DbgReadMemory
 0001:00059E48       sme_DbgWriteRegister
 0001:00059EF8       sme_DbgReadRegister
 0001:00059FB0       sme_SetCfgPrivacy
 0001:00059FF4       sme_BtcGetConfig
 0001:0005A03C       sme_BtcSetConfig
 0001:0005A084       sme_BtcSignalBtEvent
 0001:0005A0CC       sme_ChangeCountryCode
 0001:0005A228       sme_GetStatistics
 0001:0005A2A4       sme_GetRssi
 0001:0005A300       sme_RoamRemoveKey
 0001:0005A368       sme_RoamSetKey
 0001:0005A4B0       sme_ExitWowl
 0001:0005A4EC       sme_EnterWowl
 0001:0005A540       sme_WowlDelBcastPattern
 0001:0005A584       sme_WowlAddBcastPattern
 0001:0005A5C8       sme_DeregisterDeviceStateUpdateInd
 0001:0005A60C       sme_RegisterDeviceStateUpdateInd
 0001:0005A658       sme_DeregisterPowerSaveCheck
 0001:0005A69C       sme_RegisterPowerSaveCheck
 0001:0005A6E8       sme_RequestStandby
 0001:0005A754       sme_StopUapsd
 0001:0005A790       sme_StartUapsd
 0001:0005A7DC       sme_RequestBmps
 0001:0005A828       sme_RequestFullPower
 0001:0005A87C       sme_IsPowerSaveEnabled
 0001:0005A8C4       sme_QueryPowerState
 0001:0005A914       sme_StopAutoBmpsTimer
 0001:0005A950       sme_StartAutoBmpsTimer
 0001:0005A98C       sme_DisablePowerSave
 0001:0005A9D0       sme_EnablePowerSave
 0001:0005AA14       sme_SignalPowerEvent
 0001:0005AA58       sme_GetConfigPowerSave
 0001:0005AAC0       sme_SetConfigPowerSave
 0001:0005AB28       sme_GetModifyProfileFields
 0001:0005ABA0       sme_GetConfigParam
 0001:0005ABE4       sme_RoamGetPMKIDCache
 0001:0005AC64       sme_RoamGetNumPMKIDCache
 0001:0005ACD8       sme_RoamGetSecurityRspIE
 0001:0005AD58       sme_RoamGetSecurityReqIE
 0001:0005ADD8       sme_RoamSetPMKIDCache
 0001:0005AE58       sme_RoamFreeConnectProfile
 0001:0005AE9C       sme_RoamGetConnectProfile
 0001:0005AF14       sme_RoamGetConnectState
 0001:0005AF8C       sme_RoamGetWpsSessionOverlap
 0001:0005B050       sme_RoamGetAssociatedStas
 0001:0005B114       sme_RoamTKIPCounterMeasures
 0001:0005B1C0       sme_RoamDeauthSta
 0001:0005B26C       sme_RoamDisconnectSta
 0001:0005B318       sme_RoamStopBss
 0001:0005B3AC       sme_RoamDisconnect
 0001:0005B444       sme_RoamConnectToLastProfile
 0001:0005B4B4       sme_RoamReassoc
 0001:0005B560       sme_RoamConnect
 0001:0005B604       sme_ScanGetPMKIDCandidateList
 0001:0005B658       sme_ScanResultPurge
 0001:0005B69C       sme_ScanSetBGScanparams
 0001:0005B6E8       sme_ScanResultGetNext
 0001:0005B730       sme_ScanResultGetFirst
 0001:0005B778       sme_ScanFlushResult
 0001:0005B7B4       sme_ScanGetResult
 0001:0005B844       sme_ScanRequest
 0001:0005B8DC       sme_ProcessMsg
 0001:0005BE2C       sme_PreauthReassocIntvlTimerCallback
 0001:0005BE30       sme_GetRICIEs
 0001:0005BED8       sme_GetFTPreAuthResponse
 0001:0005BFAC       sme_FTSendUpdateKeyInd
 0001:0005C268       sme_FTUpdateKey
 0001:0005C32C       sme_SetFTIEs
 0001:0005C5F8       sme_FTClose
 0001:0005C70C       sme_FTOpen
 0001:0005C79C       btcFindModeChangeEventHist
 0001:0005C884       btcFindSyncUpdateEventHist
 0001:0005C95C       btcIsReadyForUapsd
 0001:0005C968       btcHandleCoexInd
 0001:0005CA48       btcGetConfig
 0001:0005CA8C       btcSendCfgMsg
 0001:0005CB54       btcSetConfig
 0001:0005CBB8       btcCheckHeartBeatMonitoring
 0001:0005CD68       btcRestoreHeartBeatMonitoringHandle
 0001:0005CDE8       btcFindAclEventHist
 0001:0005CF2C       btcFindSyncEventHist
 0001:0005D090       btcDeferDisconnEvent
 0001:0005D480       btcSendBTEvent
 0001:0005DBA8       btcSignalBTEvent
 0001:0005E4AC       btcPowerStateCB
 0001:0005EA04       btcReady
 0001:0005EA7C       btcClose
 0001:0005EB18       btcOpen
 0001:0005EBF4       measIsInNavAllowed
 0001:0005ECB0       measSendMBInNavMeasurementReq
 0001:0005EDFC       measStartInNavMeasTimer
 0001:0005EE1C       measReleaseInNavMeasurementReqCommand
 0001:0005EEA0       sme_MeasHandleInNavMeasRsp
 0001:0005F094       measProcessInNavMeasCommand
 0001:0005F11C       measInNavMeasurementStartTimerHandler
 0001:0005F20C       measStopTimers
 0001:0005F224       measInNavMeasurementRequest
 0001:0005F44C       measInNavClose
 0001:0005F4B8       measInNavOpen
 0001:0005F514       p2pStop
 0001:0005F51C       p2pProcessNoAReq
 0001:0005F5E4       p2pSetPs
 0001:0005F660       p2pCancelRemainOnChannel
 0001:0005F6C8       p2pSendAction
 0001:0005F764       p2pRemainOnChannel
 0001:0005F7E4       sme_p2pClose
 0001:0005F814       sme_p2pOpen
 0001:0005F830       sme_sendActionCnf
 0001:0005F890       sme_mgmtFrmInd
 0001:0005F908       sme_remainOnChnReady
 0001:0005F97C       sme_remainOnChnRsp
 0001:0005FA04       p2pProcessRemainOnChannelCmd
 0001:0005FB20       sysBuildMessageHeader
 0001:0005FB38       sysOpen
 0001:0005FB40       sysClose
 0001:0005FB48       sysMcFreeMsg
 0001:0005FB4C       sysTxFreeMsg
 0001:0005FB50       wlan_sys_ftm
 0001:0005FB80       sysRxProcessMsg
 0001:0005FC48       sysTxProcessMsg
 0001:0005FD58       sys_validateStaConfig
 0001:0005FE6C       SysProcessMmhMsg
 0001:00060024       sysMcProcessMsg
 0001:00060270       sysStop
 0001:0006033C       sysStopCompleteCb
 0001:00060378       pal_be32_to_cpu
 0001:0006037C       pal_cpu_to_be32
 0001:00060380       pal_be16_to_cpu
 0001:00060384       pal_cpu_to_be16
 0001:00060388       palSemaphoreAlloc
 0001:0006039C       palSemaphoreFree
 0001:000603A4       palSemaphoreTake
 0001:000603AC       palSemaphoreGive
 0001:000603B4       palMutexAlloc
 0001:000603C8       palMutexAllocLocked
 0001:000603DC       pal_in_interrupt
 0001:000603E4       pal_local_bh_disable
 0001:000603E8       pal_local_bh_enable
 0001:000603EC       palSpinLockGive
 0001:00060404       palSpinLockTake
 0001:0006041C       palSpinLockFree
 0001:00060448       palFreeMemory
 0001:0006045C       palSendMBMessage
 0001:000604E4       palAllocateMemory
 0001:00060508       palSpinLockAlloc
 0001:00060548       palGetTickCount
 0001:0006054C       palPktFree
 0001:000605D0       palPktAlloc
 0001:00060680       palEqualMemory
 0001:00060690       palCopyMemory
 0001:000606AC       palFillMemory
 0001:000606C8       palTimerStop
 0001:000606F0       palTimerStart
 0001:00060730       internalTimerCallback
 0001:00060774       palTimerFree
 0001:000607A8       palTimerAlloc
 0001:00060814       tx_timer_running
 0001:00060864       tx_timer_delete
 0001:000608AC       tx_timer_deactivate
 0001:0006091C       tx_timer_change_context
 0001:00060994       tx_timer_change
 0001:00060A24       tx_main_timer_func
 0001:00060AEC       tx_timer_activate
 0001:00060C04       tx_timer_create_intern
 0001:00060D28       tx_time_get
 0001:00060D2C       tx_voss_wrapper_init
 0001:00060D48       macReset
 0001:00060D74       macSysResetReq
 0001:00060DE4       macSysResetReqFromHDD
 0001:00060DE8       macClose
 0001:00060E1C       macOpen
 0001:00060EC8       macStop
 0001:00060F28       macStart
 0001:00061010       macPreStart
 0001:000610D0       sysLog
 0001:00061114       sysBbtProcessMessageCore
 0001:000612AC       sysInitGlobals
 0001:00061318       sysGetTxWrapperContext
 0001:00061324       dot11fUnpackTlvCommonFunc
 0001:00061340       dot11fUnpackIeCommonFunc
 0001:00061368       dot11fUnpackFfAction
 0001:00061374       dot11fUnpackFfCategory
 0001:00061380       dot11fUnpackFfDialogToken
 0001:0006138C       dot11fUnpackFfLinkMargin
 0001:00061398       dot11fUnpackFfMaxTxPower
 0001:000613A4       dot11fUnpackFfP2POUISubType
 0001:000613B0       dot11fUnpackFfRCPI
 0001:000613BC       dot11fUnpackFfRSNI
 0001:000613C8       dot11fUnpackFfRxAntennaId
 0001:000613D4       dot11fUnpackFfSMPowerModeSet
 0001:000613FC       dot11fUnpackFfStatusCode
 0001:00061408       dot11fUnpackFfTPCEleID
 0001:00061414       dot11fUnpackFfTPCEleLen
 0001:00061420       dot11fUnpackFfTxAntennaId
 0001:0006142C       dot11fUnpackFfTxPower
 0001:00061438       dot11fUnpackTlvVersion2
 0001:00061460       dot11fUnpackTlvConfigurationTimeout
 0001:00061480       dot11fUnpackTlvP2PCapability
 0001:000614A0       dot11fUnpackTlvVersion
 0001:000614C8       dot11fUnpackIeBPIndicator
 0001:000614F4       dot11fUnpackIePropChannSwitchAnn
 0001:00061534       dot11fUnpackIeTitan
 0001:00061574       dot11fUnpackIeBcnReportingDetail
 0001:00061598       dot11fUnpackIeBeaconReporting
 0001:000615C4       dot11fUnpackIeRRMEnabledCap
 0001:000616FC       dot11fUnpackIeChanSwitchAnn
 0001:00061734       dot11fUnpackIeERPInfo
 0001:0006177C       dot11fUnpackIeFHParams
 0001:000617A8       dot11fUnpackIePowerCaps
 0001:000617D4       dot11fUnpackIePowerConstraints
 0001:000617F8       dot11fUnpackIeQOSCapsAp
 0001:00061848       dot11fUnpackIeQOSCapsStation
 0001:000618A8       dot11fUnpackIeRCPIIE
 0001:000618CC       dot11fUnpackIeRSNIIE
 0001:000618F0       dot11fUnpackIeTPCReport
 0001:0006191C       dot11fUnpackIeTPCRequest
 0001:00061938       dot11fUnpackIeWFATPC
 0001:00061964       dot11fUnpackIeWMMCaps
 0001:000619D0       dot11fUnpackIeWMMInfoAp
 0001:00061A1C       dot11fUnpackIeWMMInfoStation
 0001:00061A88       dot11fUnpackIeWMMTCLASPROC
 0001:00061AC4       dot11fGetPackedIETCLAS
 0001:00061B3C       dot11fGetPackedIECountry
 0001:00061B70       dot11fGetPackedIERSN
 0001:00061BF0       dot11fGetPackedIEWAPI
 0001:00061C4C       dot11fGetPackedIEWMMTCLAS
 0001:00061CC4       dot11fGetPackedIEWPA
 0001:00061D48       GetPackedSizeTlvCore
 0001:00061F90       dot11fGetPackedIEWscReassocRes
 0001:00061FB0       dot11fGetPackedIEWscProbeRes
 0001:00061FD0       dot11fGetPackedIEWscProbeReq
 0001:00061FF0       dot11fGetPackedIEWscBeaconProbeRes
 0001:00062010       dot11fGetPackedIEWscBeacon
 0001:00062030       dot11fGetPackedIEWscAssocRes
 0001:00062050       dot11fGetPackedIEWscAssocReq
 0001:00062070       dot11fGetPackedIEWSC
 0001:00062090       dot11fGetPackedIEP2PWSCProvisionDiscoveryRes
 0001:000620B0       dot11fGetPackedIEP2PProvisionDiscoveryReq
 0001:000620D0       dot11fGetPackedIEP2PProbeRes
 0001:000620F0       dot11fGetPackedIEP2PProbeReq
 0001:00062110       dot11fGetPackedIEP2PPresenceResponse
 0001:00062130       dot11fGetPackedIEP2PNoticeOfAbsence
 0001:00062150       dot11fGetPackedIEP2PInvitationRes
 0001:00062170       dot11fGetPackedIEP2PInvitationReq
 0001:00062190       dot11fGetPackedIEP2PGONegWPS
 0001:000621B0       dot11fGetPackedIEP2PGONegRes
 0001:000621D0       dot11fGetPackedIEP2PGONegReq
 0001:000621F0       dot11fGetPackedIEP2PGONegCnf
 0001:00062210       dot11fGetPackedIEP2PDisAssoc
 0001:00062230       dot11fGetPackedIEP2PDeviceDiscoverabilityRes
 0001:00062250       dot11fGetPackedIEP2PDeviceDiscoverabilityReq
 0001:00062270       dot11fGetPackedIEP2PDeAuth
 0001:00062290       dot11fGetPackedIEP2PBeaconProbeRes
 0001:000622B0       dot11fGetPackedIEP2PBeacon
 0001:000622D0       dot11fGetPackedIEP2PAssocRes
 0001:000622F0       dot11fGetPackedIEP2PAssocReq
 0001:00062310       GetPackedSizeCore
 0001:000633AC       dot11fGetPackedWMMDelTSSize
 0001:000633C0       dot11fGetPackedWMMAddTSResponseSize
 0001:000633D4       dot11fGetPackedWMMAddTSRequestSize
 0001:000633E8       dot11fGetPackedTPCRequestSize
 0001:000633FC       dot11fGetPackedTPCReportSize
 0001:00063410       dot11fGetPackedSMPowerSaveSize
 0001:00063424       dot11fGetPackedReAssocResponseSize
 0001:00063438       dot11fGetPackedReAssocRequestSize
 0001:0006344C       dot11fGetPackedRadioMeasurementRequestSize
 0001:00063460       dot11fGetPackedRadioMeasurementReportSize
 0001:00063474       dot11fGetPackedProvisionDiscoveryResSize
 0001:00063488       dot11fGetPackedProvisionDiscoveryReqSize
 0001:0006349C       dot11fGetPackedProbeResponseSize
 0001:000634B0       dot11fGetPackedProbeRequestSize
 0001:000634CC       dot11fGetPackedPresenceResSize
 0001:000634E0       dot11fGetPackedPresenceReqSize
 0001:000634F4       dot11fGetPackedNoticeOfAbsSize
 0001:00063508       dot11fGetPackedNeighborReportResponseSize
 0001:0006351C       dot11fGetPackedNeighborReportRequestSize
 0001:00063530       dot11fGetPackedMeasurementRequestSize
 0001:00063544       dot11fGetPackedMeasurementReportSize
 0001:00063558       dot11fGetPackedLinkMeasurementRequestSize
 0001:0006356C       dot11fGetPackedLinkMeasurementReportSize
 0001:00063580       dot11fGetPackedInvitationResSize
 0001:00063594       dot11fGetPackedInvitationReqSize
 0001:000635A8       dot11fGetPackedGONegResSize
 0001:000635BC       dot11fGetPackedGONegReqSize
 0001:000635D0       dot11fGetPackedGONegCnfSize
 0001:000635E4       dot11fGetPackedGODiscoverabilityReqSize
 0001:000635F8       dot11fGetPackedDisassociationSize
 0001:0006360C       dot11fGetPackedDeviceDiscoverabilityResSize
 0001:00063620       dot11fGetPackedDeviceDiscoverabilityReqSize
 0001:00063634       dot11fGetPackedDelTSSize
 0001:00063648       dot11fGetPackedDelBAIndSize
 0001:0006365C       dot11fGetPackedDeAuthSize
 0001:00063670       dot11fGetPackedChannelSwitchSize
 0001:00063684       dot11fGetPackedBeaconIEsSize
 0001:000636A0       dot11fGetPackedBeacon2Size
 0001:000636BC       dot11fGetPackedBeacon1Size
 0001:000636D0       dot11fGetPackedBeaconSize
 0001:000636E4       dot11fGetPackedAuthenticationSize
 0001:000636F8       dot11fGetPackedAssocResponseSize
 0001:0006370C       dot11fGetPackedAssocRequestSize
 0001:00063720       dot11fGetPackedAddTSResponseSize
 0001:00063734       dot11fGetPackedAddTSRequestSize
 0001:00063748       dot11fGetPackedAddBARspSize
 0001:0006375C       dot11fGetPackedAddBAReqSize
 0001:00063770       dot11fGetPackedIERICDataDesc
 0001:00063790       dot11fGetPackedIENeighborReport
 0001:000637C4       dot11fGetPackedIEMeasurementRequest
 0001:0006382C       dot11fGetPackedIEMeasurementReport
 0001:000638A4       dot11fGetPackedIEFTInfo
 0001:000638D8       dot11fGetPackedIEAirgo
 0001:000638F8       dot11fPackFfAction
 0001:00063904       dot11fPackFfCategory
 0001:00063910       dot11fPackFfDialogToken
 0001:0006391C       dot11fPackFfLinkMargin
 0001:00063928       dot11fPackFfMaxTxPower
 0001:00063934       dot11fPackFfP2POUISubType
 0001:00063940       dot11fPackFfRCPI
 0001:0006394C       dot11fPackFfRSNI
 0001:00063958       dot11fPackFfRxAntennaId
 0001:00063964       dot11fPackFfSMPowerModeSet
 0001:00063970       dot11fPackFfStatusCode
 0001:0006397C       dot11fPackFfTPCEleID
 0001:00063988       dot11fPackFfTPCEleLen
 0001:00063994       dot11fPackFfTxAntennaId
 0001:000639A0       dot11fPackFfTxPower
 0001:000639AC       dot11fPackTlvRequestToEnroll
 0001:00063A2C       dot11fPackTlvVersion2
 0001:00063AA8       dot11fPackIeBPIndicator
 0001:00063B30       dot11fPackIeHCF
 0001:00063BA4       dot11fPackIePropAssocType
 0001:00063C18       dot11fPackIePropChannSwitchAnn
 0001:00063CD0       dot11fPackIeTitan
 0001:00063D88       dot11fPackIeTriggerStaBgScan
 0001:00063DFC       dot11fPackIeBcnReportingDetail
 0001:00063E70       dot11fPackIeBeaconReporting
 0001:00063EF8       dot11fPackIeRRMEnabledCap
 0001:00063FC8       dot11fPackIeTCLASSPROC
 0001:0006403C       dot11fPackIeChanSwitchAnn
 0001:000640DC       dot11fPackIeDSParams
 0001:00064150       dot11fPackIeERPInfo
 0001:000641C4       dot11fPackIeExtChanSwitchAnn
 0001:00064238       dot11fPackIeFHParams
 0001:000642C0       dot11fPackIePowerCaps
 0001:00064348       dot11fPackIePowerConstraints
 0001:000643BC       dot11fPackIeQOSCapsAp
 0001:00064430       dot11fPackIeQOSCapsStation
 0001:000644A4       dot11fPackIeRCPIIE
 0001:00064518       dot11fPackIeRSNIIE
 0001:0006458C       dot11fPackIeTPCReport
 0001:00064614       dot11fPackIeTPCRequest
 0001:00064658       dot11fPackIeWFATPC
 0001:00064750       dot11fPackIeWMMCaps
 0001:0006484C       dot11fPackIeWMMInfoAp
 0001:00064944       dot11fPackIeWMMInfoStation
 0001:00064A3C       dot11fPackIeWMMTCLASPROC
 0001:00064B38       dot11fPackIeWscIEOpaque
 0001:00064C28       dot11fPackIeWPAOpaque
 0001:00064D18       frameshtons
 0001:00064D54       dot11fPackIeWMMParams
 0001:00064FD0       dot11fPackIeQuiet
 0001:000650A4       dot11fPackIeQBSSLoad
 0001:00065160       dot11fPackIeMobilityDomain
 0001:000651FC       dot11fPackIeIBSSParams
 0001:00065280       dot11fPackIeFHParamSet
 0001:00065340       dot11fPackIeEDCAParamSet
 0001:00065500       dot11fPackIeCFParams
 0001:000655D4       dot11fPackIeRICData
 0001:00065684       dot11fPackIeTaurus
 0001:00065760       dot11fPackIeTSFInfo
 0001:00065808       dot11fPackIePropQuietBSS
 0001:000658DC       dot11fPackIePropEDCAParams
 0001:00065A9C       dot11fPackIePropCapability
 0001:00065B20       dot11fPackIeLoadInfo
 0001:00065BC8       dot11fPackTlvP2PManageability
 0001:00065C54       dot11fPackTlvWPSState
 0001:00065CF4       dot11fPackTlvVersion
 0001:00065D94       dot11fPackTlvSelectedRegistrarConfigMethods
 0001:00065E44       dot11fPackTlvSelectedRegistrar
 0001:00065EE4       dot11fPackTlvResponseType
 0001:00065F84       dot11fPackTlvRequestType
 0001:00066024       dot11fPackTlvRFBands
 0001:000660C4       dot11fPackTlvP2PStatus
 0001:00066150       dot11fPackTlvP2PCapability
 0001:000661F0       dot11fPackTlvMinorReasonCode
 0001:0006627C       dot11fPackTlvInvitationFlags
 0001:00066308       dot11fPackTlvGOIntent
 0001:00066394       dot11fPackTlvExtendedListenTiming
 0001:00066458       dot11fPackTlvDevicePasswordID
 0001:00066508       dot11fPackTlvConfigurationTimeout
 0001:000665A8       dot11fPackTlvConfigurationError
 0001:00066658       dot11fPackTlvConfigMethods
 0001:00066708       dot11fPackTlvAssociationState
 0001:000667B8       dot11fPackTlvAPSetupLocked
 0001:00066858       dot11fPackFfStatus
 0001:0006686C       dot11fPackFfReason
 0001:00066880       dot11fPackFfNumOfRepetitions
 0001:00066894       dot11fPackFfListenInterval
 0001:000668A8       dot11fPackFfDelBAParameterSet
 0001:000668BC       dot11fPackFfCapabilities
 0001:000668D0       dot11fPackFfBeaconInterval
 0001:000668E4       dot11fPackFfBATimeout
 0001:000668F8       dot11fPackFfBAStartingSequenceControl
 0001:0006690C       dot11fPackFfAuthSeqNo
 0001:00066920       dot11fPackFfAuthAlgo
 0001:00066934       dot11fPackFfAddBAParameterSet
 0001:00066948       dot11fPackFfAID
 0001:0006695C       dot11fPackIeWPA
 0001:00066B84       frameshtonl
 0001:00066BD0       dot11fPackIeWMMTSPEC
 0001:00066F48       dot11fPackIeWMMTSDelay
 0001:00067058       dot11fPackIeWMMSchedule
 0001:00067204       dot11fPackIeTSDelay
 0001:00067288       dot11fPackIeFTTimeoutInterval
 0001:00067320       dot11fPackIeTSPEC
 0001:000675EC       dot11fPackIeSchedule
 0001:00067708       dot11fPackIeLLAttr
 0001:0006778C       dot11fPackFfTSInfo
 0001:000677A0       dot11fPackFfP2POUI
 0001:000677B4       dot11fPackIeWMMTCLAS
 0001:00067B78       dot11fPackIeWAPIOpaque
 0001:00067C0C       dot11fPackIeWAPI
 0001:00067E2C       dot11fPackIeTIM
 0001:00067F08       dot11fPackIeSuppRates
 0001:00067F9C       dot11fPackIeSuppChannels
 0001:00068034       dot11fPackIeRSNOpaque
 0001:000680C8       dot11fPackIeRSN
 0001:000682EC       dot11fPackIeP2PIEOpaque
 0001:000683DC       dot11fPackIeHTInfo
 0001:00068554       dot11fPackIeHTCaps
 0001:00068750       dot11fPackIeFHPattTable
 0001:00068844       dot11fPackIeExtSuppRates
 0001:000688D8       dot11fPackIeCountry
 0001:000689C4       dot11fPackIeChallengeText
 0001:00068A58       dot11fPackIeTCLAS
 0001:00068D74       dot11fPackIeSSID
 0001:00068E08       dot11fPackIeRequestedInfo
 0001:00068E9C       dot11fPackIeRICDescriptor
 0001:00068F48       dot11fPackIeMultiBssid
 0001:00068FF4       dot11fPackIeMeasurementPilot
 0001:000690A0       dot11fPackIeBeaconReportFrmBody
 0001:00069134       dot11fPackIeAPChannelReport
 0001:000691E0       dot11fPackIeWDS
 0001:00069274       dot11fPackIeVersion
 0001:00069340       dot11fPackIeR1KH_ID
 0001:000693C8       dot11fPackIeR0KH_ID
 0001:0006945C       dot11fPackIePropSuppRates
 0001:000694F0       dot11fPackIeLoadBalance
 0001:00069594       dot11fPackIeGTK
 0001:00069694       dot11fPackIeCondensedCountryStr
 0001:00069718       dot11fPackIeAPName
 0001:000697AC       dot11fPackTlvP2PInterface
 0001:00069854       dot11fPackTlvUUID_R
 0001:00069908       dot11fPackTlvUUID_E
 0001:000699BC       dot11fPackTlvSerialNumber
 0001:00069A7C       dot11fPackTlvRequestDeviceType
 0001:00069B74       dot11fPackTlvPrimaryDeviceType
 0001:00069C6C       dot11fPackTlvP2PGroupInfo
 0001:00069D20       dot11fPackTlvP2PGroupId
 0001:00069DF8       dot11fPackTlvP2PGroupBssid
 0001:00069EA0       dot11fPackTlvP2PDeviceId
 0001:00069F48       dot11fPackTlvOperatingChannel
 0001:0006A01C       dot11fPackTlvNoticeOfAbsence
 0001:0006A0FC       dot11fPackTlvModelNumber
 0001:0006A1BC       dot11fPackTlvModelName
 0001:0006A27C       dot11fPackTlvManufacturer
 0001:0006A33C       dot11fPackTlvListenChannel
 0001:0006A410       dot11fPackTlvIntendedP2PInterfaceAddress
 0001:0006A4B8       dot11fPackTlvDeviceName
 0001:0006A578       dot11fPackTlvChannelList
 0001:0006A650       dot11fPackTlvAuthorizedMACs
 0001:0006A6E4       dot11fPackTlvP2PDeviceInfo
 0001:0006A818       PackTlvCore
 0001:0006AF44       dot11fPackIeWscReassocRes
 0001:0006B098       dot11fPackIeWscProbeRes
 0001:0006B1EC       dot11fPackIeWscProbeReq
 0001:0006B340       dot11fPackIeWscBeaconProbeRes
 0001:0006B494       dot11fPackIeWscBeacon
 0001:0006B5E8       dot11fPackIeWscAssocRes
 0001:0006B73C       dot11fPackIeWscAssocReq
 0001:0006B890       dot11fPackIeWSC
 0001:0006B9E4       dot11fPackIeP2PWSCProvisionDiscoveryRes
 0001:0006BB38       dot11fPackIeP2PProvisionDiscoveryReq
 0001:0006BC8C       dot11fPackIeP2PProbeRes
 0001:0006BDE0       dot11fPackIeP2PProbeReq
 0001:0006BF34       dot11fPackIeP2PPresenceResponse
 0001:0006C088       dot11fPackIeP2PNoticeOfAbsence
 0001:0006C1DC       dot11fPackIeP2PInvitationRes
 0001:0006C330       dot11fPackIeP2PInvitationReq
 0001:0006C484       dot11fPackIeP2PGONegWPS
 0001:0006C5D8       dot11fPackIeP2PGONegRes
 0001:0006C72C       dot11fPackIeP2PGONegReq
 0001:0006C880       dot11fPackIeP2PGONegCnf
 0001:0006C9D4       dot11fPackIeP2PDisAssoc
 0001:0006CB28       dot11fPackIeP2PDeviceDiscoverabilityRes
 0001:0006CC7C       dot11fPackIeP2PDeviceDiscoverabilityReq
 0001:0006CDD0       dot11fPackIeP2PDeAuth
 0001:0006CF24       dot11fPackIeP2PBeaconProbeRes
 0001:0006D078       dot11fPackIeP2PBeacon
 0001:0006D1CC       dot11fPackIeP2PAssocRes
 0001:0006D320       dot11fPackIeP2PAssocReq
 0001:0006D474       dot11fPackTlvVendorExtension
 0001:0006D568       dot11fPackFfCurrentAPAddress
 0001:0006D584       framesntohs_0
 0001:0006D5B4       dot11fUnpackIeWMMParams
 0001:0006D778       dot11fUnpackIeQuiet
 0001:0006D7E0       dot11fUnpackIeQBSSLoad
 0001:0006D83C       dot11fUnpackIeMobilityDomain
 0001:0006D898       dot11fUnpackIeIBSSParams
 0001:0006D8CC       dot11fUnpackIeFHParamSet
 0001:0006D920       dot11fUnpackIeEDCAParamSet
 0001:0006DABC       dot11fUnpackIeCFParams
 0001:0006DB24       dot11fUnpackIeRICData
 0001:0006DB74       dot11fUnpackIeTaurus
 0001:0006DBFC       dot11fUnpackIeTSFInfo
 0001:0006DC50       dot11fUnpackIePropQuietBSS
 0001:0006DCB8       dot11fUnpackIePropEDCAParams
 0001:0006DE54       dot11fUnpackIePropCapability
 0001:0006DE88       dot11fUnpackIeLoadInfo
 0001:0006DEDC       dot11fUnpackTlvExtendedListenTiming
 0001:0006DF20       dot11fUnpackFfNumOfRepetitions
 0001:0006DF34       dot11fUnpackFfDelBAParameterSet
 0001:0006DF70       dot11fUnpackFfCapabilities
 0001:0006E014       dot11fUnpackFfBAStartingSequenceControl
 0001:0006E048       dot11fUnpackFfAddBAParameterSet
 0001:0006E08C       dot11fUnpackFfCommonFunc
 0001:0006E0A0       dot11fUnpackTlvCommonFunc2
 0001:0006E0C4       dot11fUnpackIeWscIEOpaque
 0001:0006E11C       dot11fUnpackIeWPAOpaque
 0001:0006E174       dot11fUnpackIeWPA
 0001:0006E300       framesntohl
 0001:0006E348       dot11fUnpackIeWMMTSPEC
 0001:0006E560       dot11fUnpackIeWMMTSDelay
 0001:0006E5B4       dot11fUnpackIeWMMSchedule
 0001:0006E690       dot11fUnpackIeTSDelay
 0001:0006E6C4       dot11fUnpackIeFTTimeoutInterval
 0001:0006E704       dot11fUnpackIeTSPEC
 0001:0006E908       dot11fUnpackIeSchedule
 0001:0006E9C8       dot11fUnpackIeLLAttr
 0001:0006E9FC       dot11fUnpackFfTSInfo
 0001:0006EA70       dot11fUnpackFfP2POUI
 0001:0006EA84       dot11fUnpackIeWMMTCLAS
 0001:0006EC4C       dot11fUnpackIeWAPIOpaque
 0001:0006ECA4       dot11fUnpackIeWAPI
 0001:0006EE48       dot11fUnpackIeTIM
 0001:0006EEC4       dot11fUnpackIeSuppRates
 0001:0006EF1C       dot11fUnpackIeSuppChannels
 0001:0006EF78       dot11fUnpackIeRSNOpaque
 0001:0006EFD0       dot11fUnpackIeRSN
 0001:0006F1C4       dot11fUnpackIeP2PIEOpaque
 0001:0006F21C       dot11fUnpackIeHTInfo
 0001:0006F378       dot11fUnpackIeHTCaps
 0001:0006F5F4       dot11fUnpackIeFHPattTable
 0001:0006F67C       dot11fUnpackIeExtSuppRates
 0001:0006F6D4       dot11fUnpackIeCountry
 0001:0006F770       dot11fUnpackIeChallengeText
 0001:0006F7C8       dot11fUnpackIeTCLAS
 0001:0006F970       dot11fUnpackIeSSID
 0001:0006F9C8       dot11fUnpackIeRequestedInfo
 0001:0006FA0C       dot11fUnpackIeRICDescriptor
 0001:0006FA60       dot11fUnpackIeMultiBssid
 0001:0006FAB4       dot11fUnpackIeMeasurementPilot
 0001:0006FB08       dot11fUnpackIeBeaconReportFrmBody
 0001:0006FB60       dot11fUnpackIeAPChannelReport
 0001:0006FBC8       dot11fUnpackIeWDS
 0001:0006FC20       dot11fUnpackIeVersion
 0001:0006FCA0       dot11fUnpackIeR1KH_ID
 0001:0006FCE0       dot11fUnpackIeR0KH_ID
 0001:0006FD38       dot11fUnpackIePropSuppRates
 0001:0006FD90       dot11fUnpackIeLoadBalance
 0001:0006FDDC       dot11fUnpackIeGTK
 0001:0006FE98       dot11fUnpackIeCondensedCountryStr
 0001:0006FED8       dot11fUnpackIeAPName
 0001:0006FF30       dot11fUnpackTlvP2PInterface
 0001:0006FF5C       dot11fUnpackTlvUUID_R
 0001:0006FF88       dot11fUnpackTlvUUID_E
 0001:0006FFB4       dot11fUnpackTlvSerialNumber
 0001:0006FFFC       dot11fUnpackTlvRequestDeviceType
 0001:00070058       dot11fUnpackTlvPrimaryDeviceType
 0001:000700B4       dot11fUnpackTlvP2PGroupInfo
 0001:000700E8       dot11fUnpackTlvP2PGroupId
 0001:00070154       dot11fUnpackTlvP2PGroupBssid
 0001:00070180       dot11fUnpackTlvP2PDeviceId
 0001:000701AC       dot11fUnpackTlvOperatingChannel
 0001:000701F0       dot11fUnpackTlvNoticeOfAbsence
 0001:00070250       dot11fUnpackTlvModelNumber
 0001:00070298       dot11fUnpackTlvModelName
 0001:000702E0       dot11fUnpackTlvManufacturer
 0001:00070328       dot11fUnpackTlvListenChannel
 0001:0007036C       dot11fUnpackTlvIntendedP2PInterfaceAddress
 0001:00070398       dot11fUnpackTlvDeviceName
 0001:000703E0       dot11fUnpackTlvChannelList
 0001:0007044C       dot11fUnpackTlvAuthorizedMACs
 0001:00070478       dot11fUnpackTlvP2PDeviceInfo
 0001:00070504       UnpackTlvCore
 0001:00070AE8       dot11fUnpackIeWscReassocRes
 0001:00070B14       dot11fUnpackIeWscProbeRes
 0001:00070B40       dot11fUnpackIeWscProbeReq
 0001:00070B6C       dot11fUnpackIeWscBeaconProbeRes
 0001:00070B98       dot11fUnpackIeWscBeacon
 0001:00070BC4       dot11fUnpackIeWscAssocRes
 0001:00070BF0       dot11fUnpackIeWscAssocReq
 0001:00070C1C       dot11fUnpackIeWSC
 0001:00070C48       dot11fUnpackIeP2PWSCProvisionDiscoveryRes
 0001:00070C74       dot11fUnpackIeP2PProvisionDiscoveryReq
 0001:00070CA0       dot11fUnpackIeP2PProbeRes
 0001:00070CCC       dot11fUnpackIeP2PProbeReq
 0001:00070CF8       dot11fUnpackIeP2PPresenceResponse
 0001:00070D24       dot11fUnpackIeP2PNoticeOfAbsence
 0001:00070D50       dot11fUnpackIeP2PInvitationRes
 0001:00070D7C       dot11fUnpackIeP2PInvitationReq
 0001:00070DA8       dot11fUnpackIeP2PGONegWPS
 0001:00070DD4       dot11fUnpackIeP2PGONegRes
 0001:00070E00       dot11fUnpackIeP2PGONegReq
 0001:00070E2C       dot11fUnpackIeP2PGONegCnf
 0001:00070E58       dot11fUnpackIeP2PDisAssoc
 0001:00070E84       dot11fUnpackIeP2PDeviceDiscoverabilityRes
 0001:00070EB0       dot11fUnpackIeP2PDeviceDiscoverabilityReq
 0001:00070EDC       dot11fUnpackIeP2PDeAuth
 0001:00070F08       dot11fUnpackIeP2PBeaconProbeRes
 0001:00070F34       dot11fUnpackIeP2PBeacon
 0001:00070F60       dot11fUnpackIeP2PAssocRes
 0001:00070F8C       dot11fUnpackIeP2PAssocReq
 0001:00070FB8       dot11fUnpackTlvVendorExtension
 0001:00071018       dot11fUnpackFfCurrentAPAddress
 0001:00071034       FindIEDefn
 0001:000710B0       frameshtonq.clone.0
 0001:000710E4       dot11fPackFfTimeStamp
 0001:000710F4       PackCore
 0001:00072AA0       dot11fPackWMMDelTS
 0001:00072AD8       dot11fPackWMMAddTSResponse
 0001:00072B10       dot11fPackWMMAddTSRequest
 0001:00072B48       dot11fPackTPCRequest
 0001:00072B80       dot11fPackTPCReport
 0001:00072BB8       dot11fPackSMPowerSave
 0001:00072BF0       dot11fPackReAssocResponse
 0001:00072C28       dot11fPackReAssocRequest
 0001:00072C60       dot11fPackRadioMeasurementRequest
 0001:00072C98       dot11fPackRadioMeasurementReport
 0001:00072CD0       dot11fPackProvisionDiscoveryRes
 0001:00072D08       dot11fPackProvisionDiscoveryReq
 0001:00072D40       dot11fPackProbeResponse
 0001:00072D78       dot11fPackProbeRequest
 0001:00072DB0       dot11fPackPresenceRes
 0001:00072DE8       dot11fPackPresenceReq
 0001:00072E20       dot11fPackNoticeOfAbs
 0001:00072E58       dot11fPackNeighborReportResponse
 0001:00072E90       dot11fPackNeighborReportRequest
 0001:00072EC8       dot11fPackMeasurementRequest
 0001:00072F00       dot11fPackMeasurementReport
 0001:00072F38       dot11fPackLinkMeasurementRequest
 0001:00072F70       dot11fPackLinkMeasurementReport
 0001:00072FA8       dot11fPackInvitationRes
 0001:00072FE0       dot11fPackInvitationReq
 0001:00073018       dot11fPackGONegRes
 0001:00073050       dot11fPackGONegReq
 0001:00073088       dot11fPackGONegCnf
 0001:000730C0       dot11fPackGODiscoverabilityReq
 0001:000730F8       dot11fPackDisassociation
 0001:00073130       dot11fPackDeviceDiscoverabilityRes
 0001:00073168       dot11fPackDeviceDiscoverabilityReq
 0001:000731A0       dot11fPackDelTS
 0001:000731D8       dot11fPackDelBAInd
 0001:00073210       dot11fPackDeAuth
 0001:00073248       dot11fPackChannelSwitch
 0001:00073280       dot11fPackBeaconIEs
 0001:000732B8       dot11fPackBeacon2
 0001:000732F0       dot11fPackBeacon1
 0001:00073328       dot11fPackBeacon
 0001:00073360       dot11fPackAuthentication
 0001:00073398       dot11fPackAssocResponse
 0001:000733D0       dot11fPackAssocRequest
 0001:00073408       dot11fPackAddTSResponse
 0001:00073440       dot11fPackAddTSRequest
 0001:00073478       dot11fPackAddBARsp
 0001:000734B0       dot11fPackAddBAReq
 0001:000734E8       dot11fPackIeRICDataDesc
 0001:0007357C       dot11fPackIeNeighborReport
 0001:000736F8       dot11fPackIeMeasurementRequest
 0001:00073944       dot11fPackIeMeasurementReport
 0001:00073CE8       dot11fPackIeFTInfo
 0001:00073E40       dot11fPackIeAirgo
 0001:00073F54       framesntohq.clone.1
 0001:00073F84       dot11fUnpackFfTimeStamp
 0001:00073F94       UnpackCore
 0001:00075A8C       dot11fUnpackWMMDelTS
 0001:00075ABC       dot11fUnpackWMMAddTSResponse
 0001:00075AEC       dot11fUnpackWMMAddTSRequest
 0001:00075B1C       dot11fUnpackTPCRequest
 0001:00075B4C       dot11fUnpackTPCReport
 0001:00075B7C       dot11fUnpackSMPowerSave
 0001:00075BAC       dot11fUnpackReAssocResponse
 0001:00075BDC       dot11fUnpackReAssocRequest
 0001:00075C0C       dot11fUnpackRadioMeasurementRequest
 0001:00075C3C       dot11fUnpackRadioMeasurementReport
 0001:00075C6C       dot11fUnpackProvisionDiscoveryRes
 0001:00075C9C       dot11fUnpackProvisionDiscoveryReq
 0001:00075CCC       dot11fUnpackProbeResponse
 0001:00075CFC       dot11fUnpackProbeRequest
 0001:00075D2C       dot11fUnpackPresenceRes
 0001:00075D5C       dot11fUnpackPresenceReq
 0001:00075D8C       dot11fUnpackNoticeOfAbs
 0001:00075DBC       dot11fUnpackNeighborReportResponse
 0001:00075DEC       dot11fUnpackNeighborReportRequest
 0001:00075E1C       dot11fUnpackMeasurementRequest
 0001:00075E4C       dot11fUnpackMeasurementReport
 0001:00075E7C       dot11fUnpackLinkMeasurementRequest
 0001:00075EAC       dot11fUnpackLinkMeasurementReport
 0001:00075EDC       dot11fUnpackInvitationRes
 0001:00075F0C       dot11fUnpackInvitationReq
 0001:00075F3C       dot11fUnpackGONegRes
 0001:00075F6C       dot11fUnpackGONegReq
 0001:00075F9C       dot11fUnpackGONegCnf
 0001:00075FCC       dot11fUnpackGODiscoverabilityReq
 0001:00075FFC       dot11fUnpackDisassociation
 0001:0007602C       dot11fUnpackDeviceDiscoverabilityRes
 0001:0007605C       dot11fUnpackDeviceDiscoverabilityReq
 0001:0007608C       dot11fUnpackDelTS
 0001:000760BC       dot11fUnpackDelBAInd
 0001:000760EC       dot11fUnpackDeAuth
 0001:0007611C       dot11fUnpackChannelSwitch
 0001:0007614C       dot11fUnpackBeaconIEs
 0001:0007617C       dot11fUnpackBeacon2
 0001:000761AC       dot11fUnpackBeacon1
 0001:000761DC       dot11fUnpackBeacon
 0001:0007620C       dot11fUnpackAuthentication
 0001:0007623C       dot11fUnpackAssocResponse
 0001:0007626C       dot11fUnpackAssocRequest
 0001:0007629C       dot11fUnpackAddTSResponse
 0001:000762CC       dot11fUnpackAddTSRequest
 0001:000762FC       dot11fUnpackAddBARsp
 0001:0007632C       dot11fUnpackAddBAReq
 0001:0007635C       dot11fUnpackIeRICDataDesc
 0001:000763AC       dot11fUnpackIeNeighborReport
 0001:000764C8       dot11fUnpackIeMeasurementRequest
 0001:00076644       dot11fUnpackIeMeasurementReport
 0001:000768D8       dot11fUnpackIeFTInfo
 0001:000769A4       dot11fUnpackIeAirgo
 0001:000769F4       logDebug
 0001:00076AB8       logDbg
 0001:00076AF4       logDeinit
 0001:00076B0C       logInit
 0001:00076B7C       logDumpInit
 0001:00076B8C       logDumpRegisterTable
 0001:00076C08       dump_cfg_set
 0001:00076C98       Log_getCfg
 0001:00076E14       dump_cfg_get
 0001:00076E28       log_sprintf
 0001:00076EC8       logRtaiDump
 0001:00077110       logPrintf
 0001:00077144       dump_cfg_group_get
 0001:000771B4       dumpLOG
 0001:00077480       setLOGLevel
 0001:000774FC       dump_log_level_set
 0001:0007750C       printMesgName.clone.0
 0001:000775F8       dump_thread_info
 0001:00077BF4       macTraceGetSmeMsgString
 0001:00077C18       macTraceGetHalMsgString
 0001:00077C44       macTraceGetLimMsgString
 0001:00077C70       macTraceGetCfgMsgString
 0001:00077D30       macTraceGetModuleString
 0001:00077D3C       macTraceInit
 0001:00077D8C       macTraceReset
 0001:00077D90       macTraceMsgString
 0001:00077E40       macTraceCfg
 0001:00077E5C       macTraceRegister
 0001:00077E70       macTraceDumpAll
 0001:00077FAC       macTraceNew
 0001:000780B8       macTrace
 0001:000780D8       swapBitField16
 0001:000780E0       swapBitField32
 0001:000780E8       PopulateDot11fChanSwitchAnn
 0001:00078118       PopulateDot11fEDCAParamSet
 0001:00078300       PopulateDot11fIBSSParams
 0001:0007831C       PopulateDot11fPowerCaps
 0001:00078354       PopulateDot11fQOSCapsAp
 0001:0007837C       PopulateDot11fSchedule
 0001:00078440       PopulateDot11fSuppChannels
 0001:000784A0       PopulateDot11fTSInfo
 0001:0007853C       PopulateDot11fWMMCaps
 0001:00078564       PopulateDot11fWMMInfoAp
 0001:000785C0       PopulateDot11fWMMParams
 0001:000787F4       PopulateDot11fWMM
 0001:000788BC       PopulateDot11fWMMSchedule
 0001:00078984       sirGetCfgPropCaps
 0001:0007898C       PopulateDot11fTSPEC
 0001:00078C10       PopulateDot11fWMMTSPEC
 0001:00078E9C       DePopulateDot11fWscRegistrarInfo
 0001:00078EB8       PopulateDot11fAssocResWPSIEs
 0001:00078F20       DePopulateDot11fWscRegistrarInfoInProbeRes
 0001:00078F3C       PopulateMDIE
 0001:00078F7C       PopulateFTInfo
 0001:00078F90       PopulateDot11fAssocRspRates
 0001:00079040       PopulateDot11AssocResP2PIE
 0001:00079090       PopulateDot11fAssocResWscIE
 0001:00079198       PopulateDot11fWscRegistrarInfoInProbeRes
 0001:0007921C       PopulateDot11fWscRegistrarInfo
 0001:000792A0       PopulateDot11fWsc
 0001:00079328       PopulateDot11fWMMInfoStation
 0001:000793E8       PopulateDot11fQOSCapsStation
 0001:000794C4       PopulateDot11fWscInProbeRes
 0001:00079844       PopulateDot11fBeaconWPSIEs
 0001:00079980       PopulateDot11fProbeResWPSIEs
 0001:00079C68       PopulateDot11fWMMTCLAS
 0001:00079E48       PopulateDot11fTCLAS
 0001:0007A020       PopulateDot11fSSID
 0001:0007A054       sirConvertAddtsRsp2Struct
 0001:0007A4CC       sirConvertAddtsReq2Struct
 0001:0007A84C       sirConvertAuthFrame2Struct
 0001:0007A944       sirConvertBeaconFrame2Struct
 0001:0007AF18       sirParseBeaconIE
 0001:0007B408       sirConvertReassocReqFrame2Struct
 0001:0007B82C       sirConvertAssocRespFrame2Struct
 0001:0007BDE4       sirConvertAssocReqFrame2Struct
 0001:0007C17C       sirConvertProbeFrame2Struct
 0001:0007C6E8       sirConvertProbeReqFrame2Struct
 0001:0007C8B0       PopulateDot11fExtChanSwitchAnn
 0001:0007C8D4       dot11fLog
 0001:0007C918       sirConvertDeltsReq2Struct
 0001:0007CB48       FindIELocation
 0001:0007CBC0       PopulateDot11fWPAOpaque
 0001:0007CC30       PopulateDot11fWAPIOpaque
 0001:0007CC98       PopulateDot11fRSNOpaque
 0001:0007CD00       PopulateDot11fWPA
 0001:0007CD94       PopulateDot11fTPCReport
 0001:0007CDF8       PopulateDot11fSuppRates
 0001:0007CF54       PopulateDot11fSSID2
 0001:0007CFC8       PopulateDot11fWAPI
 0001:0007D07C       PopulateDot11fRSN
 0001:0007D130       PopulateDot11fPowerConstraints
 0001:0007D198       PopulateDot11fHTInfo
 0001:0007D458       PopulateDot11fHTCaps
 0001:0007D7F0       PopulateDot11fExtSuppRates1
 0001:0007D8C0       PopulateDot11fExtSuppRates
 0001:0007D9E8       PopulateDot11fERPInfo
 0001:0007DAF8       PopulateDot11fDSParams
 0001:0007DB6C       PopulateDot11fCountry
 0001:0007DCF8       PopulateDot11fCapabilities2
 0001:0007DD88       PopulateDot11fCapabilities
 0001:0007DDE0       sirDumpBuf
 0001:0007DF04       ConvertQOSCaps
 0001:0007DF2C       ConvertQOSCapsStation
 0001:0007DFC8       ConvertPowerCaps
 0001:0007DFEC       ConvertCFParams
 0001:0007E020       ConvertERPInfo
 0001:0007E05C       ConvertTSPEC
 0001:0007E2D0       ConvertWMMTSPEC
 0001:0007E534       ConvertTSDelay
 0001:0007E568       ConvertSchedule
 0001:0007E604       ConvertWMMSchedule
 0001:0007E6A0       ConverttoBigEndian
 0001:0007E6E4       CreateInitScanRawFrame
 0001:0007E6E8       CreateFinishScanRawFrame
 0001:0007E6EC       CreateScanCtsFrame
 0001:0007E744       CreateScanDataNullFrame
 0001:0007E7F4       ConvertEDCAParam
 0001:0007E9DC       ConvertWMMParams
 0001:0007EBC4       ConvertCountry
 0001:0007EC38       ConvertTIM
 0001:0007EC80       ConvertSuppChannels
 0001:0007ECB0       ConvertRSNOpaque
 0001:0007ECDC       ConvertP2POpaque
 0001:0007ED94       ConvertWscOpaque
 0001:0007EE4C       ConvertWPAOpaque
 0001:0007EEA4       ConvertExtSuppRates
 0001:0007EEC4       ConvertSuppRates
 0001:0007EEE4       ConvertSSID
 0001:0007EF04       ConvertWMMTCLAS
 0001:0007F0BC       ConvertTCLAS
 0001:0007F274       ConvertRSN
 0001:0007F33C       ConvertWPA
 0001:0007F404       WLANSAP_RoamCallback
 0001:0007FC2C       WLANSAP_ScanCallback
 0001:0007FDC8       sapPrintACL
 0001:0007FE5C       sapRemoveMacFromACL
 0001:0007FEEC       sapconvertToCsrProfile
 0001:0008006C       sapAddMacToACL
 0001:0008010C       sapSearchMacList
 0001:000801D4       sapSortMacList
 0001:00080280       sapSignalHDDevent
 0001:0008075C       sapIsPeerMacAllowed
 0001:00080888       sapRoamSessionCloseCallback
 0001:00080898       sapGotoDisconnecting
 0001:00080910       sapGotoStarting
 0001:00080A38       sapGotoChannelSel
 0001:00080DE0       sapFsm
 0001:000811C4       sapGotoDisconnected
 0001:000811F0       WLANSAP_getState
 0001:00081234       WLANSAP_DeRegisterMgmtFrame
 0001:00081308       WLANSAP_RegisterMgmtFrame
 0001:000813DC       WLANSAP_CancelRemainOnChannel
 0001:00081498       WLANSAP_RemainOnChannel
 0001:00081570       WLANSAP_SendAction
 0001:0008163C       WLANSAP_GetStatistics
 0001:00081650       WLANSap_getstationIE_information
 0001:0008176C       WLANSAP_Set_WPARSNIes
 0001:00081820       sap_ReleaseGlobalLock
 0001:00081838       sap_AcquireGlobalLock
 0001:00081850       WLANSAP_Get_WPS_State
 0001:0008191C       WLANSAP_Set_WpsIe
 0001:00081A10       WLANSAP_Update_WpsIe
 0001:00081ABC       WLANSAP_DelKeySta
 0001:00081BAC       WLANSAP_SetKeySta
 0001:00081C44       WLANSAP_SetCounterMeasure
 0001:00081CA4       WLANSAP_SetChannelRange
 0001:00081F58       WLANSAP_DeauthSta
 0001:00081FB8       WLANSAP_DisassocSta
 0001:00082018       WLANSAP_ModifyACL
 0001:000824F8       WLANSAP_ClearACL
 0001:000825C0       WLANSAP_CleanCB
 0001:0008264C       WLANSAP_getWpsSessionOverlap
 0001:000826DC       WLANSAP_RemoveWpsSessionOverlap
 0001:00082768       WLANSAP_GetAssocStations
 0001:000827D8       WLANSAP_StopBss
 0001:00082868       WLANSAP_StartBss
 0001:00082A30       WLANSAP_pmcFullPwrReqCB
 0001:00082A7C       WLANSAP_Close
 0001:00082B08       WLANSAP_Stop
 0001:00082B84       WLANSAP_Start
 0001:00082C34       WLANSAP_Open
 0001:00082CF0       sapweightRssiCount
 0001:00082D68       sapSortChlWeight
 0001:00082E90       sapChanSelExit
 0001:00082E98       sapComputeSpectWeight
 0001:00083008       sapChanSelInit
 0001:000830CC       sapSelectChannel
 0001:00083200       cfgNeedRestart
 0001:00083210       cfgNeedReload
 0001:00083220       cfgInit
 0001:00083280       cfgDeInit
 0001:000832A4       cfgCheckValid
 0001:000832C8       cfgSetCapabilityInfo
 0001:000832CC       cfgCleanup
 0001:000832D8       wlan_cfgGetStrLen
 0001:0008339C       wlan_cfgGetStrMaxLen
 0001:00083460       wlan_cfgGetStr
 0001:00083578       wlan_cfgGetInt
 0001:00083620       cfgGetCapabilityInfo
 0001:000839C4       cfgGetRegulatoryMaxTransmitPower
 0001:00083B00       Notify
 0001:00083B64       cfgSetStrNotify
 0001:00083CDC       cfgSetStr
 0001:00083CF0       cfgSetInt
 0001:00083E40       wlan_cfgInit
 0001:00083E9C       CheckParam
 0001:00083F68       ProcSetReqInternal
 0001:00084264       ProcSetReqNoRsp
 0001:0008426C       ProcSetReq
 0001:00084274       ProcGetReq
 0001:00084438       ProcDnldRsp
 0001:00084998       processCfgDownloadReq
 0001:00084E8C       cfgProcessMbMsg
 0001:00084EDC       cfgSendHostMsg
 0001:0008507C       cfgLog
 0001:000850C0       dphHashTableClassInit
 0001:0008514C       hashFunction
 0001:00085180       dphLookupHashEntry
 0001:00085260       dphGetHashEntry
 0001:0008528C       dphLookupAssocId
 0001:000852F4       dphPrintMacAddr
 0001:00085358       dphDeleteHashEntry
 0001:00085540       dphInitStaState
 0001:0008566C       dphAddHashEntry
 0001:0008589C       limInitAIDpool
 0001:00085908       limAssignAID
 0001:0008596C       limReleaseAID
 0001:000859C0       limIsTimerAllowedInPowerSaveState
 0001:00085A18       limCheckStateForLearnMode
 0001:00085A3C       limIsSystemInScanState
 0001:00085A64       limIsSystemInActiveState
 0001:00085A88       limReceivedHBHandler
 0001:00085AB8       limProcessWdsInfo
 0001:00085ACC       limInitWdsInfoParams
 0001:00085AEC       limHandleLowRssiInd
 0001:00085AF0       limIsPktCandidateForDrop
 0001:00085C0C       limHandleMissedBeaconInd
 0001:00085C7C       limHandleBmpsStatusInd
 0001:00085CE8       limUpdateShortSlot
 0001:00085DB4       limDetectChangeInApCapabilities
 0001:00085F2C       limHandleIBSScoalescing
 0001:00085FAC       limUpdateOverlapStaParam
 0001:00086090       peRegisterTLHandle
 0001:000860E0       peHandleMgmtFrame
 0001:00086198       peProcessMessages
 0001:000861E4       limPostMsgApi
 0001:000861EC       pePostMsgApi
 0001:000861F0       peFreeMsg
 0001:00086238       peClose
 0001:000862F4       peOpen
 0001:00086470       limCleanup
 0001:00086600       peStop
 0001:0008661C       limStart
 0001:00086684       limInitialize
 0001:000871CC       peStart
 0001:000871EC       limIsReassocInProgress
 0001:00087218       limGetStaRateMode
 0001:00087238       limAcquireFreePreAuthNode
 0001:0008727C       limIsDot11hSupportedChannelsValid
 0001:00087284       limFillRxHighestSupportedRate
 0001:0008729C       limIsDot11hPowerCapabilitiesInRange
 0001:00087340       limGetPreAuthNodeFromIndex
 0001:0008739C       limInitPreAuthTimerTable
 0001:0008748C       limAddFTStaSelf
 0001:00087558       limCheckRxBasicRates
 0001:000876E4       limDelBss
 0001:0008785C       limDelSta
 0001:00087A14       limExtractApCapabilities
 0001:00087A98       limCheckRxWPAIeMatch
 0001:00087BD4       limCheckRxRSNIeMatch
 0001:00087D1C       limCmpSSid
 0001:00087D4C       limCheckAndAnnounceJoinSuccess
 0001:00087E84       limTeardownInfraBss
 0001:00087EBC       limPopulateMatchingRateSet
 0001:000883C8       limPopulateOwnRateSet
 0001:0008871C       limCheckMCSSet
 0001:00088818       limRestorePreReassocState
 0001:00088888       limDecideShortSlot
 0001:00088B0C       limDecideShortPreamble
 0001:00088C20       limDecideApProtectionOnDelete
 0001:00089154       limDeleteDphHashEntry
 0001:00089314       limSendDelStaCnf
 0001:00089580       limPrepareAndSendDelStaCnf
 0001:000896C4       limCleanupRxPath
 0001:00089854       limRejectAssociation
 0001:00089A44       limHandleCnfWaitTimeout
 0001:00089B90       limCompareCapabilities
 0001:00089CD4       limFillSupportedRatesInfo
 0001:00089D1C       limStaSendAddBssPreAssoc
 0001:0008A3D4       limStaSendAddBss
 0001:0008AA9C       limAddStaSelf
 0001:0008AE34       limAddSta
 0001:0008B310       limIbssSetProtection
 0001:0008B3B4       limIbssDecideProtectionOnDelete
 0001:0008B528       ibss_peer_find
 0001:0008B574       ibss_sta_caps_update
 0001:0008B788       ibss_coalesce_free
 0001:0008B7E0       ibss_status_chg_notify
 0001:0008B87C       limIbssHeartBeatHandle
 0001:0008BAF8       limIbssAddStaRsp
 0001:0008BC64       limIbssDecideProtection
 0001:0008BE3C       limIbssInit
 0001:0008BE70       ibss_sta_info_update
 0001:0008BEDC       limIbssAddBssRspWhenCoalescing
 0001:0008C00C       limIbssDeleteAllPeers
 0001:0008C158       limIbssDelBssRspWhenCoalescing
 0001:0008C4E4       limIbssDelete
 0001:0008C4FC       limIbssDelBssRsp
 0001:0008C6EC       limIbssStaAdd
 0001:0008C9EC       limIbssCoalesce
 0001:0008D0C4       limSendKeepAliveToPeer
 0001:0008D0C8       limHandleHeartBeatFailure
 0001:0008D2A4       limTearDownLinkWithAp
 0001:0008D3C0       limTriggerSTAdeletion
 0001:0008D514       limDeleteStaContext
 0001:0008D6DC       limProcessActionFrameNoSession
 0001:0008D818       __limProcessAddTsRsp
 0001:0008DE28       __limProcessDelTsReq
 0001:0008E1EC       __limValidateAddBAParameterSet
 0001:0008E284       limStartChannelSwitch
 0001:0008E340       limProcessActionFrame
 0001:0008EE04       limStopTxAndSwitchChannel
 0001:0008EEBC       limSendMlmAssocInd
 0001:0008F3F0       limProcessAssocReqFrame
 0001:00090B58       limUpdateReAssocGlobals
 0001:00090BDC       limUpdateAssocStaDatas
 0001:00090FB0       limProcessAssocRspFrame
 0001:000918C8       limProcessAuthFrameNoSession
 0001:00091AE4       limProcessAuthFrame
 0001:00092E48       limProcessBeaconFrameNoSession
 0001:00092FCC       limProcessBeaconFrame
 0001:000931D0       handleCBCFGChange
 0001:000932BC       limSetCfgProtection
 0001:00093464       limApplyConfiguration
 0001:00093994       limHandleCFGparamUpdate
 0001:00094450       limProcessDeauthFrame
 0001:00094978       limProcessDisassocFrame
 0001:00094D24       limLogSessionStates
 0001:00094DC8       handleHTCapabilityandHTInfo
 0001:00095080       limProcessInNavMeasRsp
 0001:00095124       limInNavHandleResumeLinkRsp
 0001:000951A4       limProcessAbortScanInd
 0001:00095288       limDeferMsg
 0001:00095294       limProcessNormalHddMsg
 0001:00095448       limProcessMessages
 0001:000967A8       limProcessDeferredMessageQueue
 0001:00096844       limMessageProcessor
 0001:00096B3C       limProcessMessageQueue
 0001:00096B8C       __limCreateInitScanRawFrame
 0001:00096C54       limSMPowerSaveStateInd
 0001:00096C5C       limSetChannel
 0001:00096CF8       limChangeChannelWithCallback
 0001:00096D38       limSendHalInNavMeasReq
 0001:00096F68       limSetInNavMeasMode
 0001:0009709C       limMlmAddBss
 0001:000976B0       limRestorePreScanState
 0001:000976D8       limCompleteMlmScan
 0001:00097744       limSendHalEndScanReq
 0001:000978B8       limSendHalStartScanReq
 0001:00097A00       limSendHalInitScanReq
 0001:00097BE4       limSuspendLink
 0001:00097C8C       limSetScanMode
 0001:00097CAC       limSendHalFinishScanReq
 0001:00097F78       limContinueChannelScan
 0001:0009807C       limResumeLink
 0001:00098118       limContinuePostChannelScan
 0001:00098414       limProcessMlmScanReq
 0001:000985FC       limProcessMlmAuthReq
 0001:0009893C       limProcessMlmAssocReq
 0001:00098B90       limProcessMlmDisassocReq
 0001:00098DE8       limProcessMlmDeauthReq
 0001:0009919C       limProcessMlmReqMessages
 0001:0009A6B8       limProcessSetMimoRsp
 0001:0009A6BC       limFillAssocIndParams
 0001:0009A7C8       limSendBeaconInd
 0001:0009A880       limProcessMlmDeauthInd
 0001:0009A8D8       limProcessMlmHalBADeleteInd
 0001:0009AA9C       limProcessMlmDelBACnf
 0001:0009ABA0       limProcessMlmDisassocInd
 0001:0009ABF8       limProcessMlmAddBACnf
 0001:0009AE70       limProcessFinishScanRsp
 0001:0009AFB4       limProcessEndScanRsp
 0001:0009B07C       limProcessInitScanRsp
 0001:0009B220       limProcessStartScanRsp
 0001:0009B334       limHandleSmeJoinResult
 0001:0009B414       limProcessMlmReassocCnf
 0001:0009B554       limProcessBtAmpApMlmAddStaRsp
 0001:0009B6F8       limProcessStaMlmDelStaRsp
 0001:0009B850       limProcessBtAmpApMlmDelStaRsp
 0001:0009BAE8       limProcessMlmDelStaRsp
 0001:0009BB78       limProcessBtAmpApMlmDelBssRsp
 0001:0009BD18       limProcessMlmRemoveKeyCnf
 0001:0009BDC4       limProcessMlmSetKeysCnf
 0001:0009BE74       limProcessMlmDeauthCnf
 0001:0009BF80       limProcessMlmPurgeStaInd
 0001:0009C09C       limProcessMlmDisassocCnf
 0001:0009C1D0       limProcessMlmAssocInd
 0001:0009C330       limProcessMlmAuthInd
 0001:0009C3FC       limProcessMlmReassocInd
 0001:0009C54C       limProcessMlmAssocCnf
 0001:0009C638       limProcessMlmAuthCnf
 0001:0009CBC0       limProcessMlmJoinCnf
 0001:0009CCA8       limProcessMlmStartCnf
 0001:0009CE18       limProcessMlmInNavMeasCnf
 0001:0009CE30       limProcessMlmScanCnf
 0001:0009CF80       limProcessMlmRspMessages
 0001:0009D1A4       limHandleAddBssInReAssocContext
 0001:0009D42C       limProcessMlmHalAddBARsp
 0001:0009D5E4       limProcessSwitchChannelRsp
 0001:0009D99C       limProcessMlmRemoveKeyRsp
 0001:0009DAA4       limProcessMlmSetBssKeyRsp
 0001:0009DC10       limProcessMlmSetStaKeyRsp
 0001:0009DD68       limProcessMlmAddBssRsp
 0001:0009EBB0       limHandleDelBssInReAssocContext
 0001:0009EC4C       limProcessStaMlmDelBssRsp
 0001:0009EE00       limProcessMlmDelBssRsp
 0001:0009EE58       limProcessStaMlmAddStaRsp
 0001:0009EFF8       limProcessMlmAddStaRsp
 0001:0009F01C       limCheck11bRates
 0001:0009F040       limSendSmeProbeReqInd
 0001:0009F14C       limIndicateProbeReqToHDD
 0001:0009F1A4       limProcessProbeReqFrame
 0001:0009F7C4       limProcessProbeReqFrame_multiple_BSS
 0001:0009F874       limWPSPBCClose
 0001:0009F8A0       limRemovePBCSessions
 0001:0009F91C       limGetWPSPBCSessions
 0001:0009FA5C       limProcessProbeRspFrameNoSession
 0001:0009FB94       limProcessProbeRspFrame
 0001:0009FFD8       __limIsDeferedMsgForLearn
 0001:000A005C       __limProcessSmeScanReq
 0001:000A05E8       __limProcessSmeJoinReq
 0001:000A0D20       __limProcessSmeReassocReq
 0001:000A1300       __limProcessSmeDisassocReq
 0001:000A16AC       __limProcessSmeDeauthReq
 0001:000A1960       __limProcessSmeSetContextReq
 0001:000A1D10       __limProcessSmeRemoveKeyReq
 0001:000A1FEC       limAPCleanupAllStaRxPath
 0001:000A2168       __limCounterMeasures
 0001:000A21C4       __limProcessSmeStopBssReq
 0001:000A2434       __limProcessSmeAddtsReq
 0001:000A280C       limProcessSmeDelBaPeerInd
 0001:000A2920       limProcessSmeAddtsRspTimeout
 0001:000A2A50       __limProcessSmeAssocCnfNew
 0001:000A2DBC       limProcessSmeDelBssRsp
 0001:000A2E10       limProcessTkipCounterMeasures
 0001:000A2EB8       limProcessSmeGetWPSPBCSessions
 0001:000A303C       limProcessSmeGetAssocSTAsInfo
 0001:000A32C8       limProcessSmeGetScanChannelInfo
 0001:000A33F4       limGetRandomBssid
 0001:000A3430       __limHandleSmeStartBssRequest
 0001:000A3F34       limProcessSmeReqMessages
 0001:000A4FB8       limGetPhyCBState
 0001:000A4FDC       limGetHTCBState
 0001:000A4FF8       limGetAniCBState
 0001:000A5014       limGetStaPeerType
 0001:000A5074       limGetCurrentCBSecChannel
 0001:000A50C8       setupCBState
 0001:000A51F4       limExtractApCapability
 0001:000A5388       limAbortBackgroundScan
 0001:000A543C       limSelectsBackgroundScanMode
 0001:000A54E4       limTriggerBackgroundScan
 0001:000A5860       limScanHashFunction
 0001:000A5888       limInitHashTable
 0001:000A58A8       limDeleteHashEntry
 0001:000A58AC       limDeleteCachedScanResults
 0001:000A5904       limReInitScanResults
 0001:000A5938       limCopyScanResult
 0001:000A59A4       limIsScanRequestedSSID
 0001:000A5A10       limLookupNaddHashEntry
 0001:000A5C28       limCollectBssDescription
 0001:000A5E68       limCheckAndAddBssDescription
 0001:000A60CC       limDeactivateMinChannelTimerDuringScan
 0001:000A6154       limInitPreAuthList
 0001:000A6164       limAddPreAuthNode
 0001:000A618C       limLookUpKeyMappings
 0001:000A6194       limComputeCrc32
 0001:000A620C       limRC4
 0001:000A6334       limIsAuthAlgoSupported
 0001:000A6488       limDecryptAuthFrame
 0001:000A6564       limEncryptAuthFrame
 0001:000A662C       limPostSmeRemoveKeyCnf
 0001:000A66C8       limSendRemoveStaKeyReq
 0001:000A685C       limSendRemoveBssKeyReq
 0001:000A69A4       limPostSmeSetKeysCnf
 0001:000A6A44       limSendSetStaKeyReq
 0001:000A6CB0       limSendSetBssKeyReq
 0001:000A6E90       limRestoreFromAuthState
 0001:000A6F30       limSearchPreAuthList
 0001:000A6F7C       limReleasePreAuthNode
 0001:000A6FAC       limDeletePreAuthNode
 0001:000A7084       limDeletePreAuthList
 0001:000A70C0       limPopulateMacHeader
 0001:000A714C       limSendDelBAInd
 0001:000A744C       limSendAddBARsp
 0001:000A776C       limSendAddBAReq
 0001:000A7AA0       limSendDeauthMgmtFrame
 0001:000A7D34       limSendDisassocMgmtFrame
 0001:000A7FC8       limSendAuthMgmtFrame
 0001:000A837C       limSendReassocReqWithFTIEsMgmtFrame
 0001:000A8834       limSendReassocReqMgmtFrame
 0001:000A8D80       limSendAssocReqMgmtFrame
 0001:000A93FC       limSendDeltsReqActionFrame
 0001:000A9780       limSendAddtsRspActionFrame
 0001:000A9CC8       limSendAssocRspMgmtFrame
 0001:000AA35C       limSendAddtsReqActionFrame
 0001:000AA7E8       limGetAddnIeForProbeResp
 0001:000AA940       limSendProbeRspMgmtFrame
 0001:000AB3D4       limSendProbeReqMgmtFrame
 0001:000AB82C       limSetActiveEdcaParams
 0001:000AB9F4       limSendGetTxPowerReq
 0001:000ABA98       limSendSetTxPowerReq
 0001:000ABB40       limSendEdcaParams
 0001:000ABC70       limSendBeaconFilterInfo
 0001:000ABE30       limSetLinkStateFT
 0001:000ABFA0       limSetLinkState
 0001:000AC110       limSendSwitchChnlParams
 0001:000AC220       limSendCFParams
 0001:000AC33C       limSendBeaconParams
 0001:000AC42C       limSendSmeAuthRsp
 0001:000AC430       limSendSmePromiscuousModeRsp
 0001:000AC434       limSendSmePostChannelSwitchInd
 0001:000AC460       limSendSmePreChannelSwitchInd
 0001:000AC48C       limSendSmeAggrQosRsp
 0001:000AC4B8       limSendSmePEStatisticsRsp
 0001:000AC4EC       limSendSmeStatsRsp
 0001:000AC570       limSendSmeRemoveKeyRsp
 0001:000AC66C       limSendSmeSetContextRsp
 0001:000AC73C       limSendSmeDeauthInd
 0001:000AC83C       limSendSmeDisassocInd
 0001:000AC940       limSendSmeRsp
 0001:000AC9F4       limSendSmeMaxAssocExceededNtf
 0001:000ACABC       limSendExitBmpsInd
 0001:000ACB74       limSendSmeIBSSPeerInd
 0001:000ACC80       limSendSmeDeltsInd
 0001:000ACD8C       limSendSmeDeltsRsp
 0001:000ACED0       limSendSmeAddtsInd
 0001:000ACFB0       limSendSmeAddtsRsp
 0001:000AD090       limPostSmeScanRspMessage
 0001:000AD158       limSendSmeScanRsp
 0001:000AD2E8       limHandleDeleteBssRsp
 0001:000AD384       limSendSmeNeighborBssInd
 0001:000AD49C       limSendSmeWmStatusChangeNtf
 0001:000AD5E8       limSendSmeInNavMeasRsp
 0001:000AD6FC       limSendSmeDeauthNtf
 0001:000AD8EC       limSendSmeDisassocNtf
 0001:000ADAF4       limSendSmeStartBssRsp
 0001:000ADDB0       limSendSmeJoinReassocRsp
 0001:000AE098       limStatSerDes
 0001:000AE4B0       limPackBkgndScanFailNotify
 0001:000AE4E0       limReassocIndSerDes
 0001:000AE6DC       limDisassocCnfSerDes
 0001:000AE784       limAssocCnfSerDes
 0001:000AE85C       limAssocIndSerDes
 0001:000AEA04       limCopyBssDescription
 0001:000AEB04       limUpdateAPWPARSNIEsReqSerDes
 0001:000AEC88       limDeauthReqSerDes
 0001:000AEE14       limDisassocReqSerDes
 0001:000AEFCC       limRemoveKeyReqSerDes
 0001:000AF1B8       limStopBssReqSerDes
 0001:000AF2B8       limUpdateAPWPSIEsReqSerDes
 0001:000AF43C       limGetSessionInfo
 0001:000AF48C       limIsSmeGetWPSPBCSessionsReqValid
 0001:000AF5E0       limTkipCntrMeasReqSerDes
 0001:000AF740       limIsSmeGetAssocSTAsReqValid
 0001:000AF90C       limJoinReqSerDes
 0001:000B01B8       limStartBssReqSerDes
 0001:000B07CC       limSetContextReqSerDes
 0001:000B0AF0       limAuthIndSerDes
 0001:000B0B60       limIsSmeStopBssReqValid
 0001:000B0B68       limGetBssIdFromSmeJoinReqMsg
 0001:000B0B8C       limIsSmeStartReqValid
 0001:000B0BCC       limIsSmeSetContextReqValid
 0001:000B0D90       limIsRSNieValidInSmeReqMessage
 0001:000B0FE4       limIsSmeAuthReqValid
 0001:000B1020       limIsSmeDisassocCnfValid
 0001:000B1038       limIsSmeScanReqValid
 0001:000B1108       limIsSmeDeauthReqValid
 0001:000B1138       limIsSmeDisassocReqValid
 0001:000B1168       limIsSmeJoinReqValid
 0001:000B131C       limIsSmeStartBssReqValid
 0001:000B15B0       limSetRSNieWPAiefromSmeStartBSSReqMessage
 0001:000B18E0       limGetStaHashBssidx
 0001:000B1944       limQuietBssTimerHandler
 0001:000B196C       limQuietTimerHandler
 0001:000B1994       limChannelSwitchTimerHandler
 0001:000B19BC       limUpdateOlbcCacheTimerHandler
 0001:000B19E4       limAssocFailureTimerHandler
 0001:000B1A0C       limAuthResponseTimerHandler
 0001:000B1A34       limAddtsResponseTimerHandler
 0001:000B1A5C       limKeepaliveTmerHandler
 0001:000B1ABC       limCnfWaitTmerHandler
 0001:000B1B1C       limSendDisassocFrameThresholdHandler
 0001:000B1B7C       limTimerHandler
 0001:000B1BE0       limActivateAuthRspTimer
 0001:000B1C20       limActivateCnfTimer
 0001:000B1C7C       limActivateHearBeatTimer
 0001:000B1CE8       limHeartBeatDeactivateAndChangeTimer
 0001:000B1DDC       limReactivateHeartBeatTimer
 0001:000B1E38       limDeactivateAndChangeTimer
 0001:000B2920       limDeactivateAndChangePerStaIdTimer
 0001:000B2AF4       limCreateTimers
 0001:000B36A0       limMlmStateStr
 0001:000B36AC       limSmeStateStr
 0001:000B36B8       limDot11ModeStr
 0001:000B36C4       limStaOpRateModeStr
 0001:000B36D0       limBssTypeStr
 0001:000B36EC       limMsgStr
 0001:000B36F8       limResultCodeStr
 0001:000B3704       limCleanupLmm
 0001:000B3708       limIsAddrBC
 0001:000B3734       limIsGroupAddr
 0001:000B3740       limResetDeferredMsgQ
 0001:000B3760       limReadDeferredMsgQ
 0001:000B37B4       limFrameStr
 0001:000B37C0       limIsNullSsid
 0001:000B3808       limDecideStaProtectionOnAssoc
 0001:000B3A58       limEnableHtOBSSProtection
 0001:000B3B30       limEnableHTNonGfProtection
 0001:000B3BEC       limEnableHTLsigTxopProtection
 0001:000B3CA8       limEnableHtRifsProtection
 0001:000B3D58       limEnableHT20Protection
 0001:000B4080       limEnableHtProtectionFrom11g
 0001:000B4500       limEnable11aProtection
 0001:000B4790       limUpdateStaRunTimeHTCapability
 0001:000B47DC       limUpdateStaRunTimeHTInfo
 0001:000B4904       limPktFree
 0001:000B4908       limGetBDfromRxPacket
 0001:000B4910       limGetNwType
 0001:000B49C8       limGetChannelFromBeacon
 0001:000B49EC       limIsIBSSSessionActive
 0001:000B4A44       limIsApSessionActive
 0001:000B4AA0       limUnmapChannel
 0001:000B4AC4       limGetNoaAttrStream
 0001:000B4BE0       limGetNoaAttrStreamInMultP2pIes
 0001:000B4C98       limBuildP2pIe
 0001:000B4CF8       limGetMyMacAddr
 0001:000B4D10       limGetBssidFromBD
 0001:000B4D90       limGetIEPtr
 0001:000B4E0C       limSetTspecUapsdMask
 0001:000B4F70       limAddScanChannelInfo
 0001:000B502C       limEnable11gProtection
 0001:000B5584       limDecideStaProtection
 0001:000B5898       limGetHtCbOpState
 0001:000B5914       limGetHtCbAdminState
 0001:000B5970       limPrintMacAddr
 0001:000B59D4       limPrintMsgName
 0001:000B59E0       limPrintMsgInfo
 0001:000B59FC       limPrintSmeState
 0001:000B5A08       limPrintMlmState
 0001:000B5A14       limGetVendorIEOuiPtr
 0001:000B5AC4       limDeleteDialogueTokenList
 0001:000B5B00       limSearchAndDeleteDialogueToken
 0001:000B5BE8       limRessetScanChannelInfo
 0001:000B5C04       limAssignDialogueToken
 0001:000B5CC8       limHandleDeferMsgError
 0001:000B5CF8       limHandleHeartBeatFailureTimeout
 0001:000B5E2C       limUpdateBeacon
 0001:000B5ED0       limProcessAddStaRsp
 0001:000B5F50       limHandleHeartBeatTimeout
 0001:000B5FE4       limEnableShortPreamble
 0001:000B60F8       limGetHTCapability
 0001:000B63A0       limFrameTransmissionControl
 0001:000B6564       limRestorePreQuietState
 0001:000B666C       limRestorePreChannelSwitchState
 0001:000B6788       limPrepareFor11hChannelSwitch
 0001:000B686C       limCancelDot11hChannelSwitch
 0001:000B690C       limProcessQuietBssTimeout
 0001:000B6A5C       limCancelDot11hQuiet
 0001:000B6B38       limStartQuietTimer
 0001:000B6BE4       limUpdateQuietIEFromBeacon
 0001:000B6D3C       limPostSMStateUpdate
 0001:000B6E44       limPostMsgDelBAInd
 0001:000B6FAC       limPostMsgAddBAReq
 0001:000B7174       limRegisterHalIndCallBack
 0001:000B7228       limIsChannelValidForChannelSwitch
 0001:000B72E0       limActiveScanAllowed
 0001:000B73E0       limPostMlmDelBAReq
 0001:000B75CC       limPostMlmAddBARsp
 0001:000B771C       limPostMlmAddBAReq
 0001:000B794C       limDelAllBASessions
 0001:000B7AC8       limProcessAddBaInd
 0001:000B7C24       limValidateDeltsReq
 0001:000B7F00       limProcessDelTsInd
 0001:000B81E0       limProcessHalIndMessages
 0001:000B82BC       limUpdateStaRunTimeHTSwitchChnlParams
 0001:000B8424       limSwitchPrimaryChannel
 0001:000B84E4       limTxComplete
 0001:000B84FC       limTriggerBackgroundScanDuringQuietBss
 0001:000B8604       limProcessQuietTimeout
 0001:000B86EC       limSwitchPrimarySecondaryChannel
 0001:000B8944       limSwitchChannelCback
 0001:000B8A38       limSysProcessMmhMsgApi
 0001:000B8A48       limProcessDelStaSelfRsp
 0001:000B8B20       limProcessAddStaSelfRsp
 0001:000B8BF8       limUtilCountStaDel
 0001:000B8C90       limUtilCountStaAdd
 0001:000B8CF0       limUpdateChannelSwitch
 0001:000B8ED8       limProcessChannelSwitchTimeout
 0001:000B90E8       limUpdateShortSlotTime
 0001:000B946C       limUpdateShortPreamble
 0001:000B95FC       limUpdateProtStaParams
 0001:000B9810       limDecideApProtection
 0001:000B9A10       limEnableOverlap11gProtection
 0001:000B9A60       limHandleUpdateOlbcCache
 0001:000B9BEC       limWriteDeferredMsgQ
 0001:000B9D94       limPostMsgApiNoWait
 0001:000B9DA4       limCleanupMlm
 0001:000B9FFC       limInitMlm
 0001:000BA03C       dumpLim
 0001:000BA044       dump_lim_add_sta
 0001:000BA04C       dump_lim_abort_scan
 0001:000BA054       dump_lim_info
 0001:000BA05C       dump_lim_trace_cfg
 0001:000BA064       dump_lim_trace_dump
 0001:000BA06C       limDumpInit
 0001:000BA07C       dump_lim_proberesp_toggle
 0001:000BA0CC       dump_lim_linkmonitor_toggle
 0001:000BA114       dump_lim_bgscan_toggle
 0001:000BA158       dump_lim_ba_timeout
 0001:000BA18C       dump_lim_disable_enable_scan
 0001:000BA1E0       dump_lim_enable_quietIE
 0001:000BA234       dump_lim_enable_measurement
 0001:000BA288       dump_lim_dot11h_stats
 0001:000BA544       dump_lim_dph_table_summary
 0001:000BA6C8       dump_lim_edca_params
 0001:000BA864       dump_lim_tspec_entry
 0001:000BAB98       dump_lim_tspec_table
 0001:000BAC94       dump_lim_ft_event
 0001:000BAF80       dump_lim_finishscan_send
 0001:000BAFCC       triggerBeaconGen
 0001:000BB054       dump_sch_beacon_trigger
 0001:000BB05C       sendSmeJoinReq
 0001:000BB12C       dump_lim_send_join_req
 0001:000BB134       dump_lim_stop_bss_req
 0001:000BB260       dump_lim_send_disassoc_req
 0001:000BB4B4       dump_lim_list_active_ba
 0001:000BB5CC       dump_lim_session_print
 0001:000BBAC0       dump_lim_send_start_bss_req
 0001:000BBC74       dump_lim_set_scan_in_powersave
 0001:000BBCC8       set_lim_prot_cfg
 0001:000BBD3C       dump_lim_set_log_level
 0001:000BBD4C       dump_lim_get_pe_statistics
 0001:000BBE78       dump_lim_start_stop_bg_scan
 0001:000BBEE4       dump_lim_AddBA_DeclineStat
 0001:000BBFC0       dump_lim_link_monitor_stats
 0001:000BC15C       dump_lim_update_cb_Mode
 0001:000BC24C       limSetEdcaBcastACMFlag
 0001:000BC288       dump_lim_acm_set
 0001:000BC298       dump_lim_send_SM_Power_Mode
 0001:000BC3C4       dump_lim_set_protection_control
 0001:000BC400       dump_lim_set_dot11_mode
 0001:000BC47C       dump_lim_del_sta
 0001:000BC57C       dump_lim_delba_req
 0001:000BC658       dump_lim_addba_req
 0001:000BC700       dump_lim_update_log_level
 0001:000BC718       sendSmeScanReq
 0001:000BC87C       dump_lim_scan_req_send
 0001:000BC884       dump_lim_sme_reassoc_req
 0001:000BC934       testLimSendProbeRsp
 0001:000BCA18       dump_lim_prb_rsp_send
 0001:000BCA20       limLog
 0001:000BCA64       limFindTspec
 0001:000BCB38       limTspecDelete
 0001:000BCBA0       limAdmitControlDeleteSta
 0001:000BCC44       limAdmitControlDeleteTS
 0001:000BCCE8       limProcessHalAddTsRsp
 0001:000BCF0C       limSendHalMsgDelTs
 0001:000BD01C       limAdmitControlInit
 0001:000BD044       limSendHalMsgAddTs
 0001:000BD15C       limTspecAdd
 0001:000BD324       limUpdateAdmitPolicy
 0001:000BD3C8       limTspecFindByAssocId
 0001:000BD4A4       limAdmitPolicy
 0001:000BD67C       limAdmitControlAddTS
 0001:000BDDB0       peFindSessionByPeerSta
 0001:000BDE48       peFindSessionBySessionId
 0001:000BDEC8       peDeleteSession
 0001:000BE094       peFindSessionByBssid
 0001:000BE1A4       peInitBeaconParams
 0001:000BE2A4       peCreateSession
 0001:000BE4A4       peGetCurrentChannel
 0001:000BE4F4       peValidateBtJoinRequest
 0001:000BE55C       peGetValidPowerSaveSession
 0001:000BE5F0       peIsAnySessionActive
 0001:000BE640       limFTOpen
 0001:000BE658       limFTSendAggrQosRsp
 0001:000BE77C       limProcessFTAggrQoSRsp
 0001:000BE96C       limProcessFTAggrQosReq
 0001:000BEA8C       limProcessFTUpdateKey
 0001:000BEB38       limProcessMlmFTReassocReq
 0001:000BEDA0       limFTInit
 0001:000BEED4       limCreateRICBlockAckIE
 0001:000BF060       limFTFillRICBlockAckInfo
 0001:000BF1E8       limPostFTPreAuthRsp
 0001:000BF3B8       FTPreAuthSuspendLinkHandler
 0001:000BF420       limPerformPostFTPreAuthAndChannelChange
 0001:000BF430       limFillFTSession
 0001:000BF7A8       limFTPrepareAddBssReq
 0001:000BFDE8       limFTSetupAuthSession
 0001:000BFE44       limFTProcessPreAuthResult
 0001:000BFE90       limHandleFTPreAuthRsp
 0001:000BFF48       limProcessFTPreauthRspTimeout
 0001:000BFFA4       limPerformFTPreAuth
 0001:000C00BC       limProcessFTPreAuthReq
 0001:000C01EC       limFTCleanup
 0001:000C02FC       __limProcessSmeNoAUpdate
 0001:000C0414       limP2PActionCnf
 0001:000C0444       limSetLinkStateP2PCallback
 0001:000C0498       limSetHtCaps
 0001:000C0884       limSendP2PActionFrame
 0001:000C0DF4       limSendSmeMgmtFrameInd
 0001:000C0EF8       limRemainOnChnRsp
 0001:000C1010       limExitRemainOnChannel
 0001:000C1054       limProcessRemainOnChnTimeout
 0001:000C114C       limAbortRemainOnChan
 0001:000C1180       limRemainOnChnlSetLinkStat
 0001:000C12C4       limRemainOnChnlChangeChnReq
 0001:000C14B8       limRemainOnChnlSuspendLinkHdlr
 0001:000C14BC       limProcessRemainOnChnlReq
 0001:000C1670       pmmResetStats
 0001:000C1774       pmmInitialize
 0001:000C17AC       pmmProcessMessageQueue
 0001:000C17B0       pmmUpdatePwrSaveStats
 0001:000C17B4       pmmUpdateWakeupStats
 0001:000C17B8       pmmImpsUpdatePwrSaveStats
 0001:000C17BC       pmmImpsUpdateWakeupStats
 0001:000C17C0       pmmImpsUpdateSleepErrStats
 0001:000C17F8       pmmImpsUpdateWakeupErrStats
 0001:000C1830       pmmImpsUpdateErrStateStats
 0001:000C1854       pmmImpsUpdatePktDropStats
 0001:000C1878       pmmBmpsUpdatePktDropStats
 0001:000C189C       pmmBmpsUpdateInitFailureCnt
 0001:000C18C0       pmmBmpsUpdateSleepReqFailureCnt
 0001:000C18E4       pmmBmpsUpdateWakeupReqFailureCnt
 0001:000C1908       pmmBmpsUpdateInvalidStateCnt
 0001:000C192C       pmmBmpsUpdateWakeupIndCnt
 0001:000C1950       pmmBmpsUpdateHalReqFailureCnt
 0001:000C1974       pmmBmpsUpdateReqInInvalidRoleCnt
 0001:000C1998       pmmResetPmmState
 0001:000C19B4       pmmFilterMatchCountResponseHandler
 0001:000C1A58       pmmExitWowlanResponseHandler
 0001:000C1AF4       pmmEnterWowlanResponseHandler
 0001:000C1BA4       pmmExitUapsdResponseHandler
 0001:000C1C7C       pmmEnterUapsdResponseHandler
 0001:000C1D80       pmmExitImpsResponseHandler
 0001:000C1E64       pmmEnterImpsResponseHandler
 0001:000C1F70       pmmSendMessageToLim
 0001:000C1FD4       pmmImpsSendChangePwrSaveMsg
 0001:000C208C       pmmExitImpsRequestHandler
 0001:000C21AC       pmmSendExitWowlReq
 0001:000C2240       pmmExitWowlanRequestHandler
 0001:000C22D4       pmmSendWowlEnterRequest
 0001:000C2350       pmmSendInitPowerSaveMsg
 0001:000C24A8       pmmUapsdSendChangePwrSaveMsg
 0001:000C26E8       pmmExitUapsdRequestHandler
 0001:000C27C4       pmmSendChangePowerSaveMsg
 0001:000C28BC       pmmSendWowlDelBcastPtrn
 0001:000C29D0       pmmSendWowlAddBcastPtrn
 0001:000C2AE4       pmmSendPowerSaveCfg
 0001:000C2E20       pmmEnterWowlRequestHandler
 0001:000C310C       pmmEnterUapsdRequestHandler
 0001:000C31E8       pmmExitBmpsRequestHandler
 0001:000C3384       pmmEnterImpsRequestHandler
 0001:000C3504       pmmPostMessage
 0001:000C3550       pmmExitBmpsIndicationHandler
 0001:000C36C4       pmmMissedBeaconHandler
 0001:000C37E8       pmmExitBmpsResponseHandler
 0001:000C39A8       pmmInitBmpsPwrSave
 0001:000C3AE0       pmmInitBmpsResponseHandler
 0001:000C3C24       pmmProcessMessage
 0001:000C3F50       pmmLog
 0001:000C3F94       pmmGenerateTIM
 0001:000C3FC8       schGetCFPCount
 0001:000C3FD4       schGetCFPDurRemaining
 0001:000C3FE0       schInitGlobals
 0001:000C40E4       limSendProbeRspTemplateToHal
 0001:000C4408       schSendBeaconReq
 0001:000C458C       schSendStartScanRsp
 0001:000C45E0       schPostMessage
 0001:000C45F0       schInitialize
 0001:000C45F4       SetProbeRspIeBitmap
 0001:000C4614       writeBeaconToMemory
 0001:000C4744       schProcessPreBeaconInd
 0001:000C48D0       limUpdateProbeRspTemplateIeBitmapBeacon2
 0001:000C4B58       limUpdateProbeRspTemplateIeBitmapBeacon1
 0001:000C4C14       schAppendAddnIE
 0001:000C4DE8       schGetP2pIeOffset
 0001:000C4E64       schSetFixedBeaconFields
 0001:000C5454       schBeaconEdcaProcess
 0001:000C54C8       schBeaconProcess
 0001:000C5DDC       schLog
 0001:000C5E20       setSchEdcaParams
 0001:000C5F80       schSetBeaconInterval
 0001:000C5FE0       schSetDefaultEdcaParams
 0001:000C6138       schGetParams
 0001:000C63C0       schQosUpdateLocal
 0001:000C6458       schQosUpdateBroadcast
 0001:000C661C       schEdcaProfileUpdate
 0001:000C665C       schProcessMessage
 0001:000C687C       schProcessMessageQueue
 0001:000C68A8       hdd_ioctl
 0001:000C68B0       wlan_hdd_get_intf_addr
 0001:000C690C       hdd_set_station_ops
 0001:000C6924       SQOS_channel_bandwidth_from_wifi_driver
 0001:000C692C       SQOS_data_from_wifi_driver
 0001:000C696C       hdd_get_conparam
 0001:000C697C       hdd_set_conparam
 0001:000C698C       wlan_hdd_clear_concurrency_mode
 0001:000C6A0C       wlan_hdd_set_concurrency_mode
 0001:000C6A84       hdd_full_power_callback
 0001:000C6B18       hdd_req_bmps_cbk
 0001:000C6B4C       hdd_full_pwr_cbk
 0001:000C6B78       hdd_netdev_notifier_call
 0001:000C6CC8       hdd_cleanup_actionframe
 0001:000C6D20       hdd_get_concurrency_mode
 0001:000C6D70       hdd_softap_tkip_mic_fail_counter_measure
 0001:000C6DCC       hdd_softap_sta_disassoc
 0001:000C6E34       hdd_softap_sta_deauth
 0001:000C6ED8       hdd_wdi_trace_enable
 0001:000C6F2C       hdd_allow_suspend
 0001:000C6F38       hdd_prevent_suspend
 0001:000C6F44       hdd_prevent_suspend_time
 0001:000C6F58       hdd_post_voss_start_config
 0001:000C6FDC       hdd_wlan_initial_scan
 0001:000C7140       hdd_select_queue
 0001:000C7144       hdd_add_adapter_front
 0001:000C717C       hdd_add_adapter_back
 0001:000C71B4       hdd_remove_front_adapter
 0001:000C71EC       hdd_remove_adapter
 0001:000C7224       hdd_get_next_adapter
 0001:000C7264       hdd_get_front_adapter
 0001:000C729C       hdd_is_apps_power_collapse_allowed
 0001:000C7388       hdd_get_operating_channel
 0001:000C7454       hdd_get_mon_adapter
 0001:000C74D4       hdd_get_adapter
 0001:000C7558       wlan_hdd_set_monitor_tx_adapter
 0001:000C7574       hdd_get_adapter_by_name
 0001:000C75FC       hdd_get_adapter_by_macaddr
 0001:000C7684       hdd_reconnect_all_adapters
 0001:000C77A4       hdd_reset_all_adapters
 0001:000C7900       hdd_mon_open
 0001:000C7948       hdd_smeCloseSessionCallback
 0001:000C7978       wlan_hdd_reset_prob_rspies
 0001:000C7A48       hdd_stop_adapter
 0001:000C7CD8       hdd_stop_all_adapters
 0001:000C7E54       hdd_set_mac_address
 0001:000C7ECC       wlan_hdd_cfg80211_traffic_monitor
 0001:000C7FE4       hdd_cleanup_adapter
 0001:000C803C       hdd_close_all_adapters
 0001:000C80E0       hdd_wlan_stop
 0001:000C82A0       hdd_wlan_exit
 0001:000C86C4       hdd_close_adapter
 0001:000C8824       hdd_deinit_adapter
 0001:000C894C       hdd_uninit
 0001:000C89B4       hdd_init_station_mode
 0001:000C8BB0       hdd_start_all_adapters
 0001:000C8D14       hdd_register_interface
 0001:000C8DCC       hdd_alloc_station_adapter
 0001:000C8F94       wlan_hdd_release_intf_addr
 0001:000C8FEC       hdd_open_adapter
 0001:000C9540       hdd_read_cfg_file
 0001:000C9638       hdd_get_cfg_file_size
 0001:000C9700       hdd_request_firmware
 0001:000C9848       s1
 0001:000C9858       hdd_release_firmware
 0001:000C9920       hdd_stop
 0001:000C9B5C       hdd_open
 0001:000C9CEC       hdd_readwrite_file.clone.0
 0001:000C9E54       hdd_wlan_startup
 0001:000CA97C       hdd_abort_mac_scan
 0001:000CA984       iw_set_cscan
 0001:000CACFC       hdd_ScanRequestCallback
 0001:000CAE48       hdd_IndicateScanResult
 0001:000CB780       iw_get_scan
 0001:000CB92C       iw_set_scan
 0001:000CBC40       hdd_connIsConnected
 0001:000CBC58       hdd_connGetConnectedBssType
 0001:000CBC80       iw_get_auth
 0001:000CBEB8       iw_set_auth
 0001:000CC170       hdd_set_csr_auth_type
 0001:000CC2A0       iw_get_ap_address
 0001:000CC320       iw_get_essid
 0001:000CC3E0       iw_set_ap_address
 0001:000CC48C       hdd_connRemoveConnectInfo
 0001:000CC4F8       hdd_TranslateWPAToCsrEncryptionType
 0001:000CC5C8       hdd_TranslateRSNToCsrEncryptionType
 0001:000CC698       hdd_TranslateWPAToCsrAuthType
 0001:000CC70C       hdd_TranslateRSNToCsrAuthType
 0001:000CC794       hdd_ProcessGENIE
 0001:000CCA50       hdd_SetGENIEToCsr
 0001:000CCB00       iw_set_essid
 0001:000CCE54       hdd_roamDeregisterSTA
 0001:000CCEB4       hdd_roamRegisterSTA
 0001:000CD120       hdd_SendUpdateBeaconIEsEvent
 0001:000CD318       hdd_SendAssociationEvent
 0001:000CD5B8       hdd_DisConnectHandler
 0001:000CD760       hdd_SendFTEvent
 0001:000CD8F0       hdd_connSaveConnectInfo
 0001:000CDAA0       hdd_AssociationCompletionHandler
 0001:000CDE04       hdd_smeRoamCallback
 0001:000CE754       mibIsDot11DesiredBssTypeInfrastructure
 0001:000CE768       hdd_wlan_get_freq
 0001:000CE798       hdd_UnregisterWext
 0001:000CE7AC       iw_clear_dynamic_mcbc_filter
 0001:000CE7DC       iw_set_dynamic_mcbc_filter
 0001:000CE824       iw_qcom_get_wapi_bkid
 0001:000CE844       iw_qcom_set_wapi_bkid
 0001:000CE978       iw_qcom_set_wapi_mode
 0001:000CEA80       iw_get_power_mode
 0001:000CEAA8       iw_set_power_mode
 0001:000CEAD0       iw_get_nick
 0001:000CEAF8       iw_set_nick
 0001:000CEB20       iw_get_mode
 0001:000CEC34       iw_set_commit
 0001:000CEC5C       get_wireless_stats
 0001:000CEC84       wlan_hdd_get_vendor_oui_ie_ptr
 0001:000CED24       iw_set_band_config
 0001:000CEEB0       iw_set_packet_filter_params
 0001:000CF1A8       iw_set_keepalive_params
 0001:000CF36C       iw_get_statistics
 0001:000CF65C       iw_get_bitrate
 0001:000CF784       iw_set_fties
 0001:000CF898       iw_set_host_offload
 0001:000CFA8C       iw_qcom_get_wapi_mode
 0001:000CFAF0       iw_get_tspec
 0001:000CFB20       hdd_clearRoamProfileIe
 0001:000CFBAC       hdd_set_wext
 0001:000CFC14       iw_get_encode
 0001:000CFD24       iw_qcom_set_wapi_key
 0001:000D014C       iw_del_tspec
 0001:000D019C       iw_qcom_set_wapi_assoc_info
 0001:000D04D8       iw_set_genie
 0001:000D0870       iw_add_tspec
 0001:000D0A14       iw_set_retry
 0001:000D0AF4       iw_set_tx_power
 0001:000D0B98       iw_set_frag_threshold
 0001:000D0C20       iw_set_rts_threshold
 0001:000D0CA8       iw_setnone_getnone
 0001:000D0F54       iw_get_char_setnone
 0001:000D1280       iw_setchar_getnone
 0001:000D1380       iw_get_retry
 0001:000D1440       hdd_wlan_get_frag_threshold
 0001:000D14F4       iw_get_frag_threshold
 0001:000D1500       hdd_wlan_get_rts_threshold
 0001:000D15B4       iw_get_rts_threshold
 0001:000D15C0       iw_setnone_getint
 0001:000D176C       iw_setint_getnone
 0001:000D1C40       wlan_hdd_get_classAstats
 0001:000D1D8C       iw_get_tx_power
 0001:000D1DFC       iw_power_callback_fn
 0001:000D1EB8       hdd_GetClassA_statisticsCB
 0001:000D1FC0       wlan_hdd_ula_done_cb
 0001:000D1FC8       hdd_GetRssiCB
 0001:000D20BC       iw_get_encodeext
 0001:000D21B8       iw_get_genie
 0001:000D2370       iw_set_encode
 0001:000D2650       iw_set_bitrate
 0001:000D27EC       iw_get_range
 0001:000D2AF4       iw_set_freq
 0001:000D2D68       iw_set_mlme
 0001:000D2F50       iw_get_name
 0001:000D2FAC       hdd_tx_per_hit_cb
 0001:000D3044       iw_set_mode
 0001:000D3228       iw_get_freq
 0001:000D32FC       hdd_register_wext
 0001:000D33F0       iw_set_rssi_filter
 0001:000D3460       iw_set_pno
 0001:000D3904       iw_set_pno_priv
 0001:000D394C       found_pref_network_cb
 0001:000D3A48       iw_set_var_ints_getnone
 0001:000D3BD8       iw_set_three_ints_getnone
 0001:000D3C34       wlan_hdd_enter_lowpower
 0001:000D3CD0       wlan_hdd_exit_lowpower
 0001:000D3DA8       wlan_hdd_enter_bmps
 0001:000D3F94       iw_set_power_params
 0001:000D4168       iw_set_power_params_priv
 0001:000D41B0       wlan_hdd_check_ula_done
 0001:000D4228       iw_set_encodeext
 0001:000D456C       ccmCfgSetCallback
 0001:000D45EC       hdd_StatisticsCB
 0001:000D46AC       wlan_hdd_get_rssi
 0001:000D47DC       iw_set_priv
 0001:000D5134       hdd_stats
 0001:000D513C       hdd_init_tx_rx
 0001:000D51A8       hdd_tx_timeout
 0001:000D51C4       hdd_rx_packet_cbk
 0001:000D5444       hdd_tx_low_resource_cbk
 0001:000D54E4       hdd_flush_tx_queues
 0001:000D55A8       hdd_disconnect_tx_rx
 0001:000D55AC       hdd_deinit_tx_rx
 0001:000D5604       hdd_tx_complete_cbk
 0001:000D56F4       hdd_IsWAIPacket
 0001:000D5744       hdd_IsEAPOLPacket
 0001:000D5794       hdd_tx_fetch_packet_cbk
 0001:000D5CB0       hdd_hard_start_xmit
 0001:000D5F9C       hdd_mon_hard_start_xmit
 0001:000D6264       hdd_mon_tx_mgmt_pkt
 0001:000D6524       hdd_mon_tx_work_queue
 0001:000D6530       hdd_list_insert_front
 0001:000D6558       hdd_list_insert_back
 0001:000D6584       hdd_list_insert_back_size
 0001:000D65B0       hdd_list_remove_front
 0001:000D6608       hdd_list_remove_back
 0001:000D6664       hdd_list_remove_node
 0001:000D66D0       hdd_list_peek_front
 0001:000D66E8       hdd_list_peek_next
 0001:000D674C       hdd_suspend_full_pwr_callback
 0001:000D67B8       hdd_suspend_standby_cbk
 0001:000D6828       unregister_wlan_suspend
 0001:000D6858       register_wlan_suspend
 0001:000D68AC       hdd_wlan_reset_initialization
 0001:000D6924       hdd_unregister_mcast_bcast_filter
 0001:000D69A0       hdd_wlan_shutdown
 0001:000D6DAC       hdd_register_mcast_bcast_filter
 0001:000D6E34       hdd_wlan_re_init
 0001:000D71A4       hdd_wlan_reset
 0001:000D77B8       hdd_conf_mcastbcast_filter
 0001:000D7854       hdd_PowerStateChangedCB
 0001:000D790C       hdd_conf_hostarpoffload
 0001:000D7B28       hdd_resume_wlan
 0001:000D7DBC       hdd_suspend_wlan
 0001:000D80DC       hdd_exit_deep_sleep
 0001:000D82A4       hdd_exit_standby
 0001:000D83AC       hdd_enter_deep_sleep
 0001:000D862C       hdd_enter_standby
 0001:000D8884       hdd_wmm_get_uapsd_mask
 0001:000D88DC       hdd_wmm_is_active
 0001:000D88FC       hdd_wmm_connect
 0001:000D8A38       hdd_wmm_init
 0001:000D8AB8       hdd_wmm_checkts
 0001:000D8B54       hdd_wmm_disable_tl_uapsd
 0001:000D8BC8       hdd_wmm_free_context
 0001:000D8C68       hdd_wmm_delts
 0001:000D8E0C       hdd_wmm_adapter_close
 0001:000D8E58       hdd_wmm_classify_pkt
 0001:000D8F94       hdd_wmm_select_queue
 0001:000D8FEC       hdd_wmm_addts
 0001:000D9310       hdd_wmm_notify_app
 0001:000D9428       hdd_wmm_enable_tl_uapsd
 0001:000D95DC       hdd_wmm_sme_callback
 0001:000DA028       hdd_wmm_assoc
 0001:000DA268       hdd_wmm_acquire_access
 0001:000DA460       hdd_wmm_do_implicit_qos
 0001:000DA9AC       hdd_hostapd_select_queue
 0001:000DAADC       hdd_wmm_adapter_init
 0001:000DAB78       hdd_cfg_xlate_to_csr_phy_mode
 0001:000DAB90       hdd_set_sme_config
 0001:000DB070       hdd_update_config_dat
 0001:000DBB10       hdd_cfg_get_config
 0001:000DBCDC       i_trim
 0001:000DBD60       hdd_parse_config_ini
 0001:000DCFAC       hdd_exit_wowl
 0001:000DCFEC       hdd_wowl_callback
 0001:000DD014       hdd_enter_wowl
 0001:000DD090       hdd_del_wowl_ptrn
 0001:000DD140       hdd_add_wowl_ptrn
 0001:000DD770       hdd_init_wowl
 0001:000DD7A8       iw_set_innav_measurements
 0001:000DDA20       hdd_InNavMeasurementRequestCallback
 0001:000DDB34       iw_get_innav_measurements
 0001:000DDD3C       wlan_hdd_ftm_temp_get_rel_num
 0001:000DDD8C       iw_ftm_set_var_ints_getnone
 0001:000DDE08       wlan_ftm_postmsg
 0001:000DDE9C       iw_ftm_setnone_getint
 0001:000DE318       wlan_ftm_priv_get_ftm_version
 0001:000DE564       iw_ftm_get_char_setnone
 0001:000DEB5C       iw_ftm_setchar_getnone
 0001:000DEFA8       HEXDUMP
 0001:000DEFF8       wlan_ftm_stop
 0001:000DF0C0       wlan_ftm_send_response
 0001:000DF104       wlan_write_to_efs
 0001:000DF1FC       iw_ftm_setnone_getnone
 0001:000DF2C4       WLANFTM_McProcessMsg
 0001:000DF3DC       wlan_hdd_ftm_get_nv_field
 0001:000DF524       wlan_hdd_ftm_delete_nv_table
 0001:000DF714       wlan_hdd_ftm_blank_nv_table
 0001:000DF888       wlan_hdd_ftm_store_nv_table
 0001:000DFA60       wlan_hdd_ftm_set_nv_field
 0001:000DFBCC       wlan_hdd_ftm_set_nv_table
 0001:000DFEB0       wlan_hdd_ftm_get_nv_table
 0001:000E0194       wlan_hdd_process_ftm_host_cmd
 0001:000E0418       wlan_hdd_ftm_close
 0001:000E0788       wlan_hdd_ftm_open
 0001:000E0E04       vos_ftm_preStart
 0001:000E0F54       wlan_hdd_ftm_start
 0001:000E1174       iw_ftm_setint_getnone
 0001:000E1EB4       wlan_hdd_process_ftm_cmd
 0001:000E2278       hdd_hostapd_hard_start_xmit
 0001:000E2280       hdd_hostapd_change_mtu
 0001:000E2288       hdd_hostapd_ioctl
 0001:000E2290       iw_softap_getchannel
 0001:000E22B0       iw_set_ap_mlme
 0001:000E22B8       iw_softap_version
 0001:000E22C0       hdd_set_hostapd
 0001:000E22C8       hdd_set_ap_ops
 0001:000E22D8       iw_softap_set_channel_range
 0001:000E2368       iw_softap_ap_stats
 0001:000E2418       iw_softap_disassoc_sta
 0001:000E24C0       hdd_hostapd_set_mac_address
 0001:000E251C       iw_softap_getassoc_stamacaddr
 0001:000E2610       iw_get_WPSPBCProbeReqIEs
 0001:000E2728       iw_softap_stopbss
 0001:000E27F8       iw_softap_setwpsie
 0001:000E3174       iw_get_genie_0
 0001:000E3270       iw_softap_setmlme
 0001:000E32FC       iw_set_auth_hostap
 0001:000E33DC       iw_softap_getparam
 0001:000E34B8       iw_softap_setparam
 0001:000E35DC       iw_set_ap_encodeext
 0001:000E3868       iw_set_ap_genie
 0001:000E3940       iw_get_ap_frag_threshold
 0001:000E394C       iw_get_ap_rts_threshold
 0001:000E3958       iw_get_ap_freq
 0001:000E3A1C       hdd_hostapd_uninit
 0001:000E3A84       hdd_unregister_hostapd
 0001:000E3AF0       hdd_register_hostapd
 0001:000E3BDC       hdd_wlan_create_ap_dev
 0001:000E3D24       hdd_init_ap_mode
 0001:000E3E40       iw_softap_modify_acl
 0001:000E3F48       hdd_softap_unpackIE
 0001:000E4154       iw_softap_commit
 0001:000E4804       hdd_hostapd_inactivity_timer_cb
 0001:000E48E0       hdd_hostapd_stop
 0001:000E49B8       hdd_hostapd_SAPEventCB
 0001:000E5664       hdd_hostapd_open
 0001:000E56DC       hdd_softap_stats
 0001:000E56E4       hdd_softap_GetStaId
 0001:000E5754       hdd_softap_tx_timeout
 0001:000E5770       hdd_softap_change_STA_state
 0001:000E5884       hdd_softap_tx_complete_cbk
 0001:000E5964       hdd_softap_tx_low_resource_cbk
 0001:000E5A3C       hdd_softap_flush_tx_queues
 0001:000E5B78       hdd_softap_disconnect_tx_rx
 0001:000E5B7C       hdd_softap_deinit_tx_rx
 0001:000E5B80       hdd_softap_tx_fetch_packet_cbk
 0001:000E6094       hdd_softap_deinit_tx_rx_sta
 0001:000E62B0       hdd_softap_DeregisterSTA
 0001:000E633C       hdd_softap_Deregister_BC_STA
 0001:000E6344       hdd_softap_stop_bss
 0001:000E63DC       hdd_softap_init_tx_rx_sta
 0001:000E64D4       hdd_softap_RegisterSTA
 0001:000E6838       hdd_softap_Register_BC_STA
 0001:000E6898       hdd_softap_init_tx_rx
 0001:000E69EC       hdd_softap_sta_2_sta_xmit
 0001:000E6D04       hdd_softap_rx_packet_cbk
 0001:000E7070       hdd_softap_hard_start_xmit
 0001:000E7520       hddDeregisterPmOps
 0001:000E753C       hddRegisterPmOps
 0001:000E7568       hddDevResumeHdlr
 0001:000E7628       hddDevSuspendHdlr
 0001:000E78C0       BSL_IOControl
 0001:000E78E0       BSL_Destruct
 0001:000E78F4       BslFlushTxQueues
 0001:000E7974       BslReleasePhyCtx
 0001:000E7A50       BSL_Close
 0001:000E7C14       WLANBAP_DeregisterFromHCI
 0001:000E7CA0       BSL_Deinit
 0001:000E7D2C       BSL_Flush
 0001:000E7D60       WLANBAP_RegisterWithHCI
 0001:000E7EA8       BSL_Write
 0001:000E8244       BslFindAndInitPhyCtx
 0001:000E8384       WLANBAP_EventCB
 0001:000E901C       BslProcessHCICommand
 0001:000EAC40       bslWriteFinish
 0001:000EADB8       WLANBAP_TxCompCB
 0001:000EAEF0       WLANBAP_STARxCB
 0001:000EB0BC       WLANBAP_STAFetchPktCB
 0001:000EB35C       BSL_Open
 0001:000EB514       WLANBAP_SetConfig
 0001:000EB594       BSL_Init
 0001:000EB77C       wlan_hdd_cfg80211_update_band
 0001:000EB7C4       wlan_hdd_cfg80211_del_key
 0001:000EB7CC       wlan_hdd_set_default_mgmt_key
 0001:000EB7D4       wlan_hdd_set_txq_params
 0001:000EB7DC       wlan_hdd_cfg80211_del_station
 0001:000EB7E4       wlan_hdd_cfg80211_add_station
 0001:000EB7EC       wlan_hdd_cfg80211_set_cipher
 0001:000EB9BC       wlan_hdd_cfg80211_get_ie_ptr
 0001:000EBA20       wlan_hdd_cfg80211_change_bss
 0001:000EBAB8       wlan_hdd_cfg80211_set_ie
 0001:000EBF34       wlan_hdd_cfg80211_set_privacy
 0001:000EC2A0       wlan_hdd_cfg80211_get_key
 0001:000EC3AC       wlan_hdd_cfg80211_leave_ibss
 0001:000EC470       wlan_hdd_cfg80211_connect_start
 0001:000EC770       wlan_hdd_cfg80211_connect
 0001:000EC8A0       wlan_hdd_cfg80211_scan
 0001:000ECD08       wlan_hdd_cfg80211_update_bss_db
 0001:000ECEF0       wlan_hdd_cfg80211_inform_bss_frame
 0001:000ED0A0       hdd_cfg80211_scan_done_callback
 0001:000ED374       wlan_hdd_cfg80211_alloc_new_beacon
 0001:000ED4A0       wlan_hdd_cfg80211_set_channel
 0001:000ED714       wlan_hdd_cfg80211_join_ibss
 0001:000EDA04       wlan_hdd_cfg80211_change_iface
 0001:000EDD64       wlan_hdd_cfg80211_set_default_key
 0001:000EDF4C       wlan_hdd_cfg80211_set_key_wapi
 0001:000EE138       wlan_hdd_cfg80211_pre_voss_stop
 0001:000EE200       wlan_hdd_cfg80211_post_voss_start
 0001:000EE2C8       wlan_hdd_cfg80211_register
 0001:000EE3B4       wlan_hdd_cfg80211_init
 0001:000EE410       wlan_hdd_cfg80211_set_power_mgmt
 0001:000EE458       wlan_hdd_cfg80211_get_txpower
 0001:000EE4BC       wlan_hdd_cfg80211_set_txpower
 0001:000EE564       wlan_hdd_cfg80211_set_wiphy_params
 0001:000EE750       wlan_hdd_cfg80211_disconnect
 0001:000EE950       wlan_hdd_cfg80211_get_station
 0001:000EEA24       wlan_hdd_change_station
 0001:000EEA9C       wlan_hdd_cfg80211_del_beacon
 0001:000EECA8       wlan_hdd_cfg80211_start_bss
 0001:000EFABC       wlan_hdd_cfg80211_set_beacon
 0001:000EFB9C       wlan_hdd_cfg80211_add_beacon
 0001:000EFC70       wlan_hdd_cfg80211_add_key
 0001:000F0408       hdd_indicateMgmtFrame
 0001:000F0758       wlan_hdd_del_virtual_intf
 0001:000F07F0       wlan_hdd_add_virtual_intf
 0001:000F08B4       hdd_setP2pPs
 0001:000F091C       hdd_sendActionCnf
 0001:000F0C6C       wlan_hdd_request_remain_on_channel
 0001:000F0EA8       wlan_hdd_action
 0001:000F11E8       wlan_hdd_cfg80211_remain_on_channel
 0001:000F1210       wlan_hdd_cfg80211_cancel_remain_on_channel
 0001:000F1310       wlan_hdd_cfg80211_mgmt_tx_cancel_wait
 0001:000F1314       hdd_remainChanReadyHandler
 0001:000F13C8       wlan_hdd_remain_on_channel_callback
 0001:000F14F4       nl_srv_bcast
 0001:000F1554       nl_srv_unregister
 0001:000F15A4       nl_srv_register
 0001:000F15FC       nl_srv_ucast
 0001:000F165C       nl_srv_exit
 0001:000F166C       nl_srv_init
 0001:000F16E0       nl_srv_rcv
 0001:000F1818       btc_activate_service
 0001:000F1840       send_btc_nlink_msg
 0001:000F1B54       btc_msg_callback
 0001:000F1C10       ptt_sock_activate_svc
 0001:000F1C48       ptt_sock_send_msg_to_app
 0001:000F1DBC       ptt_sock_proc_reg_req
 0001:000F1E64       ptt_sock_rx_nlink_msg
 0001:000F22A8       WDA_UpdateEdcaParamsForAC
 0001:000F2318       WDA_ClearUapsdAcParamsReq
 0001:000F2320       WDA_ProcessTxCompleteTimeOutInd
 0001:000F238C       WDA_WdiIndicationCallback
 0001:000F23A8       WDA_UpdateProbeRspParamsCallback
 0001:000F23C4       WDA_SendBeaconParamsCallback
 0001:000F23E0       WDA_GetWcnssWlanReportedVersion
 0001:000F24C4       WDA_GetWcnssWlanCompiledVersion
 0001:000F25A8       WDA_ReceiveFilterClearFilterReqCallback
 0001:000F2644       WDA_ReceiveFilterSetFilterReqCallback
 0001:000F26E0       WDA_8023MulticastListReqCallback
 0001:000F277C       WDA_SetPowerParamsCallback
 0001:000F2814       WDA_UpdateScanParamsCallback
 0001:000F28AC       WDA_RssiFilterCallback
 0001:000F2934       WDA_PNOScanReqCallback
 0001:000F29BC       WDA_SetTxPerTrackingReqCallback
 0001:000F2A54       WDA_BtAmpEventReqCallback
 0001:000F2ADC       WDA_WowlDelBcPtrnReqCallback
 0001:000F2B64       WDA_WowlAddBcPtrnReqCallback
 0001:000F2BEC       WDA_KeepAliveReqCallback
 0001:000F2C44       WDA_HostOffloadReqCallback
 0001:000F2C9C       WDA_SetRSSIThresholdsReqCallback
 0001:000F2D1C       WDA_RemBeaconFilterReqCallback
 0001:000F2D6C       WDA_SetBeaconFilterReqCallback
 0001:000F2DF4       WDA_ProcessWlanResumeCallback
 0001:000F2EA4       WDA_ConfigureRxpFilterCallback
 0001:000F2F50       WDA_UpdateUapsdParamsReqCallback
 0001:000F2FA0       WDA_SetUapsdAcParamsReqCallback
 0001:000F2FD8       WDA_SetPwrSaveCfgReqCallback
 0001:000F3070       WDA_SetP2PGONOAReqParamsCallback
 0001:000F30B4       WDA_UpdateBeaconParamsCallback
 0001:000F313C       WDA_DelTSReqCallback
 0001:000F317C       WDA_UpdateEDCAParamCallback
 0001:000F3208       WDA_UpdateCfgCallback
 0001:000F3284       wdaDestroyTimers
 0001:000F32E4       WDA_shutdown
 0001:000F34AC       WDA_ProcessSetPowerParamsReq
 0001:000F3680       WDA_ProcessUpdateScanParams
 0001:000F390C       WDA_ProcessSetRssiFilterReq
 0001:000F3AB8       WDA_IsHandleSetLinkStateReq
 0001:000F3B48       WDA_UpdateSTAParams
 0001:000F3CD8       WDA_ProcessSetPrefNetworkReq
 0001:000F3F44       WDA_SetRegDomain
 0001:000F3F5C       WDA_TimerHandler
 0001:000F3F94       WDA_FlushAcReqCallback
 0001:000F40CC       WDA_DelBANotifyTL
 0001:000F4160       WDA_DelBAReqCallback
 0001:000F420C       WDA_preStart
 0001:000F424C       WDA_BaCheckActivity
 0001:000F45A8       WDA_HALDumpCmdCallback
 0001:000F4634       WDA_NvDownloadReqCallback
 0001:000F4678       WDA_stopCallback
 0001:000F4720       WDA_TxPacket
 0001:000F4A30       WDA_TxComplete
 0001:000F4AD0       WDA_IsWcnssWlanReportedVersionGreaterThanOrEqual
 0001:000F4B4C       WDA_IsWcnssWlanCompiledVersionGreaterThanOrEqual
 0001:000F4BC8       WDA_HALDumpCmdReq
 0001:000F4D08       WDA_ProcessSetTxPerTrackingReq
 0001:000F4E74       WDA_ProcessStartInNavMeasReq
 0001:000F4FE8       WDA_ProcessFTMCommand
 0001:000F504C       WDA_FTMCommandReqCallback
 0001:000F50B0       WDA_ProcessBtAmpEventReq
 0001:000F51FC       WDA_ProcessFlushAcReq
 0001:000F5354       WDA_NVDownload_Start
 0001:000F54DC       WDA_IsHwFrameTxTranslationCapable
 0001:000F54E4       WDA_ProcessWowlExitReq
 0001:000F556C       WDA_ProcessWowlEnterReq
 0001:000F5700       WDA_ProcessWowlDelBcPtrnReq
 0001:000F584C       WDA_ProcessWowlAddBcPtrnReq
 0001:000F59D0       WDA_ProcessKeepAliveReq
 0001:000F5C68       WDA_ProcessHostOffloadReq
 0001:000F5DDC       WDA_SetRSSIThresholdsReq
 0001:000F5F40       WDA_RemBeaconFilterReq
 0001:000F60A8       WDA_SetBeaconFilterReq
 0001:000F624C       WDA_ProcessWlanResumeReq
 0001:000F63D8       WDA_ProcessWlanSuspendInd
 0001:000F64B4       WDA_ProcessConfigureRxpFilterReq
 0001:000F6614       WDA_UpdateUapsdParamsReq
 0001:000F6770       WDA_SetUapsdAcParamsReq
 0001:000F68E8       WDA_ProcessSetPwrSaveCfgReq
 0001:000F6C84       WDA_ProcessExitUapsdReq
 0001:000F6CFC       WDA_ProcessEnterUapsdReq
 0001:000F6EDC       WDA_ProcessExitBmpsReq
 0001:000F7028       WDA_ProcessEnterBmpsReq
 0001:000F71CC       WDA_ProcessExitImpsReq
 0001:000F7244       WDA_ProcessEnterImpsReq
 0001:000F72BC       WDA_ProcessAggrAddTSReq
 0001:000F761C       WDA_ProcessSetP2PGONOAReq
 0001:000F779C       WDA_ProcessUpdateProbeRspTemplate
 0001:000F786C       WDA_ProcessSendBeacon
 0001:000F7954       WDA_ProcessUpdateBeaconParams
 0001:000F7AF8       WDA_ProcessDelTSReq
 0001:000F7C5C       WDA_ProcessDelBAReq
 0001:000F7DDC       WDA_ProcessAddBASessionReq
 0001:000F7F78       WDA_ProcessUpdateEDCAParamReq
 0001:000F827C       WDA_ProcessSetLinkState
 0001:000F8430       WDA_UpdateCfg
 0001:000F88B8       WDA_GetWepKeysFromCfg
 0001:000F8A00       WDA_UpdateBSSParams
 0001:000F8C0C       WDA_prepareConfigTLV
 0001:000F9EB8       WDA_SendMsg
 0001:000F9F5C       WDA_FilterMatchCountReqCallback
 0001:000FA054       WDA_TriggerBaReqCallback
 0001:000FA1F0       WDA_lowLevelIndCallback
 0001:000FA848       WDA_WowlExitReqCallback
 0001:000FA88C       WDA_WowlEnterReqCallback
 0001:000FA938       WDA_ExitUapsdReqCallback
 0001:000FA97C       WDA_EnterUapsdReqCallback
 0001:000FAA28       WDA_ExitBmpsReqCallback
 0001:000FAAD4       WDA_EnterBmpsReqCallback
 0001:000FAB74       WDA_ExitImpsReqCallback
 0001:000FABB8       WDA_EnterImpsReqCallback
 0001:000FABFC       WDA_AggrAddTSReqCallback
 0001:000FAC68       WDA_ProcessAddTSReq
 0001:000FAF78       WDA_AddTSReqCallback
 0001:000FB024       WDA_ProcessAddBAReq
 0001:000FB194       WDA_AddBASessionReqCallback
 0001:000FB320       WDA_AddBAReqCallback
 0001:000FB3D0       WDA_ProcessGetStatsReq
 0001:000FB4E0       WDA_GetStatsReqParamsCallback
 0001:000FB5CC       WDA_SetLinkStateCallback
 0001:000FB6A4       WDA_ProcessRemoveStaKeyReq
 0001:000FB81C       WDA_RemoveStaKeyReqCallback
 0001:000FB8C8       WDA_ProcessSetBcastStaKeyReq
 0001:000FBAF0       WDA_SetBcastStaKeyReqCallback
 0001:000FBB9C       WDA_ProcessSetStaKeyReq
 0001:000FBE18       WDA_SetStaKeyReqCallback
 0001:000FBEC4       WDA_ProcessRemoveBssKeyReq
 0001:000FC03C       WDA_RemoveBssKeyReqCallback
 0001:000FC0E8       WDA_ProcessSetBssKeyReq
 0001:000FC34C       WDA_SetBssKeyReqCallback
 0001:000FC3F8       WDA_DelSTASelfReqCallback
 0001:000FC4A4       WDA_ProcessAddStaSelfRsp
 0001:000FC564       WDA_DelSTAReqCallback
 0001:000FC64C       WDA_DelBSSReqCallback
 0001:000FC764       WDA_AddStaReqCallback
 0001:000FC858       WDA_ConfigBssReqCallback
 0001:000FCA58       WDA_SwitchChannelReqCallback
 0001:000FCB08       WDA_JoinReqCallback
 0001:000FCBD4       WDA_EndScanReqCallback
 0001:000FCCBC       WDA_StartScanReqCallback
 0001:000FCDE4       WDA_ProcessDelSTASelfReq
 0001:000FCF4C       WDA_ProcessAddStaSelfReq
 0001:000FD0B8       WDA_ProcessDelStaReq
 0001:000FD21C       WDA_ProcessDelBssReq
 0001:000FD37C       WDA_ProcessAddStaReq
 0001:000FD4EC       WDA_ProcessConfigBssReq
 0001:000FD65C       WDA_ProcessChannelSwitchReq
 0001:000FD7C8       WDA_ProcessJoinReq
 0001:000FD960       WDA_ProcessFinishScanReq
 0001:000FDB48       WDA_ProcessEndScanReq
 0001:000FDCA8       WDA_ProcessStartScanReq
 0001:000FDE08       WDA_ResumeDataTx
 0001:000FDE3C       WDA_StartInNavMeasReqCallback
 0001:000FE05C       WDA_FinishScanReqCallback
 0001:000FE16C       WDA_InitScanReqCallback
 0001:000FE284       WDA_SuspendDataTxCallback
 0001:000FE374       WDA_SuspendDataTx
 0001:000FE478       WDA_ProcessInitScanReq
 0001:000FE6BC       WDA_WniCfgDnld
 0001:000FE824       WDA_McProcessMsg
 0001:000FF9F0       WDA_GetWcnssHardwareVersion
 0001:000FFAD4       WDA_GetWcnssSoftwareVersion
 0001:000FFBB8       WDA_wdiStartCallback
 0001:000FFCB4       WDA_close
 0001:000FFDF0       WDA_stop
 0001:000FFF9C       WDA_start
 0001:001002D8       WDA_open
 0001:00100470       wdaLog
 0001:001004B4       WDA_TLI_FastHwFwdDataFrame
 0001:001004B8       WDA_DS_TrimRxPacketInfo
 0001:001004C0       WDA_DS_RxAmsduBdFix
 0001:001004C8       WDA_DS_GetTxResources
 0001:001004D8       WDA_DS_GetReplayCounter
 0001:001004E4       WDA_DS_GetRssi
 0001:00100510       WDA_DS_GetFrameTypeSubType
 0001:00100554       WDA_DS_PeekRxPacketInfo
 0001:001005AC       WDA_DS_GetTxFlowMask
 0001:00100618       WDA_DS_TxCompleteCB
 0001:00100694       WDA_DS_TxFrames
 0001:001008C4       WDA_DS_BuildTxPacketInfo
 0001:00100AD4       WDA_DS_FinishULA
 0001:00100B28       WDA_DS_StartXmit
 0001:00100B98       WDA_DS_TxFlowControlCallback
 0001:00100C00       WDA_DS_Register
 0001:00100D04       wdaGetGlobalSystemRole
 0001:00100DA4       wdaPostCfgMsg
 0001:00100DB8       wdaPostCtrlMsg
 0001:00100DD0       uMacPostCtrlMsg
 0001:00100F34       wpalPacketInit
 0001:00100F3C       wpalPacketClose
 0001:00100F44       wpalIteratorNext
 0001:00100FEC       wpalUnlockPacket
 0001:00101130       wpalPacketGetLength
 0001:001011B0       wpalIteratorInit
 0001:00101274       wpalLockPacketForTransfer
 0001:00101438       wpalPacketSetRxLength
 0001:001014A8       wpalPacketGetRawBuf
 0001:00101534       wpalPacketRawTrimTail
 0001:001015D0       wpalPacketRawTrimHead
 0001:0010166C       wpalPacketFree
 0001:00101690       wpalPacketAlloc
 0001:00101780       wpalPacketRXLowResourceCB
 0001:0010181C       wpalSleep
 0001:0010182C       wpalTimerCback
 0001:00101870       wpalTimerStop
 0001:00101988       wpalTimerStart
 0001:00101AD0       wpalTimerDelete
 0001:00101BF4       wpalTimerInit
 0001:00101C64       wpalTraceSetLevel
 0001:00101CD0       wpalTraceCheckLevel
 0001:00101D04       wpalOutput
 0001:00101D60       wpalDump
 0001:00101E38       wpalTraceDisplay
 0001:00101F14       wpalTrace
 0001:0010201C       wpalRivaSubystemRestart
 0001:0010206C       wpalDriverReInit
 0001:00102084       wpalDriverShutdown
 0001:0010209C       wpalDbgWriteMemory
 0001:001020A0       wpalDbgReadMemory
 0001:001020A4       wpalDbgWriteRegister
 0001:001020A8       wpalDbgReadRegister
 0001:001020BC       wpalDmaMemoryFree
 0001:001020DC       wpalDmaMemoryAllocate
 0001:0010214C       wpalMemoryFill
 0001:00102150       wpalMemoryZero
 0001:00102154       wpalMemoryCompare
 0001:00102158       wpalMemoryCopy
 0001:00102168       wpalMemoryFree
 0001:0010216C       wpalMemoryAllocate
 0001:00102170       wpalClose
 0001:00102190       wpalOpen
 0001:001021D8       wpalEventReset
 0001:001022C4       wpalEventSet
 0001:001023B0       wpalEventWait
 0001:00102448       wpalEventDelete
 0001:00102474       wpalEventInit
 0001:001024A0       wpalMutexRelease
 0001:001024CC       wpalMutexAcquire
 0001:001024F8       wpalMutexDelete
 0001:00102524       wpalMutexInit
 0001:00102550       wpalPostRxMsg
 0001:001025B4       wpalPostTxMsg
 0001:00102618       wpalPostCtrlMsg
 0001:0010267C       wpalTxIsr
 0001:001026B0       wpalRxIsr
 0001:001026E4       wpalNotifySmsm
 0001:00102724       wpalReadRegister
 0001:001027F0       wpalWriteRegister
 0001:001028BC       wpalRegisterInterrupt
 0001:001029C0       wpalDeviceClose
 0001:00102A5C       wpalDeviceInit
 0001:00102BC4       wpalReadDeviceMemory
 0001:00102C78       wpalWriteDeviceMemory
 0001:00102D28       wpalDisableInterrupt
 0001:00102D90       wpalUnRegisterInterrupt
 0001:00102E98       wpalEnableInterrupt
 0001:00102FE8       WDI_GET_PAL_CTX
 0001:00102FF8       WDI_ProcessTxPerHitInd
 0001:00103050       WDI_GetActiveSessionsCount
 0001:00103084       WDI_DS_AssignDatapathContext
 0001:0010308C       WDI_DS_GetDatapathContext
 0001:00103094       WDT_AssignTransportDriverContext
 0001:0010309C       WDT_GetTransportDriverContext
 0001:001030A4       WDI_ProcessShutdownRsp
 0001:001030DC       WDI_ProcessCloseRsp
 0001:00103114       WDI_MainRspInit
 0001:0010314C       WDI_ProcessSetPowerParamsRsp
 0001:001031E4       WDI_ProcessReceiveFilterClearFilterRsp
 0001:00103298       WDI_ProcessFilterMatchCountRsp
 0001:0010334C       WDI_ProcessReceiveFilterSetFilterRsp
 0001:00103400       WDI_Process8023MulticastListRsp
 0001:001034B4       WDI_ProcessSetRssiFilterRsp
 0001:0010354C       WDI_ProcessSetPreferredNetworkRsp
 0001:001035E4       WDI_IsHwFrameTxTranslationCapable
 0001:00103628       WDI_FindEmptySession
 0001:0010369C       WDI_FindAssocSessionByIdx
 0001:001036F8       WDI_FindAssocSessionByBSSIdx
 0001:0010376C       WDI_ProcessResponse
 0001:00103810       WDI_ProcessRequest
 0001:001038BC       WDI_ProcessFatalErrorInd
 0001:00103998       WDI_ProcessUnkAddrFrameInd
 0001:00103A5C       WDI_ProcessMissedBeaconInd
 0001:00103B20       WDI_ProcessSetTxPerTrackingRsp
 0001:00103BB8       WDI_ProcessConfigureAppsCpuWakeupStateRsp
 0001:00103C50       WDI_ProcessWowlExitRsp
 0001:00103CE8       WDI_ProcessWowlEnterRsp
 0001:00103D80       WDI_ProcessWowlDelBcPtrnRsp
 0001:00103E18       WDI_ProcessWowlAddBcPtrnRsp
 0001:00103EB0       WDI_ProcessKeepAliveRsp
 0001:00103F60       WDI_ProcessHostOffloadRsp
 0001:00103FF8       WDI_ProcessSetRSSIThresoldsRsp
 0001:00104090       WDI_ProcessRemBeaconFilterRsp
 0001:00104128       WDI_ProcessSetBeaconFilterRsp
 0001:001041C0       WDI_ProcessConfigureRxpFilterRsp
 0001:00104258       WDI_ProcessUpdateUapsdParamsRsp
 0001:001042F0       WDI_ProcessSetUapsdAcParamsRsp
 0001:00104388       WDI_ProcessExitUapsdRsp
 0001:00104434       WDI_ProcessEnterUapsdRsp
 0001:001044E8       WDI_ProcessEnterBmpsRsp
 0001:00104580       WDI_ProcessEnterImpsRsp
 0001:00104618       WDI_ProcessUpdateCfgRsp
 0001:001046B0       WDI_ProcessDelBARsp
 0001:00104748       WDI_ProcessUpdateEDCAParamsRsp
 0001:001047E0       WDI_ProcessDelTSpecRsp
 0001:00104878       WDI_ProcessAddTSpecRsp
 0001:00104910       WDI_ProcessRemoveStaKeyRsp
 0001:001049EC       WDI_ProcessSetStaKeyRsp
 0001:00104AC8       WDI_ProcessRemoveBssKeyRsp
 0001:00104BA4       WDI_ProcessSetBssKeyRsp
 0001:00104C80       WDI_MainShutdown
 0001:00104D70       WDI_MainStopStopped
 0001:00104E60       WDI_MainReqStarted
 0001:00104F3C       WDI_MainStopStarted
 0001:0010502C       WDI_MainClose
 0001:00105108       WDI_ProcessUpdateScanParamsRsp
 0001:001051FC       WDI_ProcessFTMCommandRsp
 0001:001052A0       WDI_ProcessP2pNoaAttrInd
 0001:001053CC       WDI_ProcessTxCompleteInd
 0001:001054A0       WDI_ProcessCoexInd
 0001:001055BC       WDI_ProcessDelSTAInd
 0001:001056C8       WDI_ProcessMicFailureInd
 0001:00105804       WDI_ProcessLowRSSIInd
 0001:00105904       WDI_ProcessHostResumeRsp
 0001:001059B0       WDI_ProcessAggrAddTSpecRsp
 0001:00105A54       WDI_ProcessP2PGONOARsp
 0001:00105AF8       WDI_ProcessUpdateProbeRspTemplateRsp
 0001:00105B9C       WDI_ProcessSendBeaconParamsRsp
 0001:00105C40       WDI_ProcessUpdateBeaconParamsRsp
 0001:00105CE4       WDI_ProcessAddBARsp
 0001:00105DA4       WDI_ProcessChannelSwitchRsp
 0001:00105E60       WDI_ProcessBtAmpEventRsp
 0001:00105F04       WDI_ProcessFlushAcRsp
 0001:00105FA8       WDI_ProcessAddBASessionRsp
 0001:0010609C       WDI_ProcessRemoveStaBcastKeyRsp
 0001:00106188       WDI_ProcessSetStaBcastKeyRsp
 0001:00106274       WDI_ProcessFinishScanRsp
 0001:0010637C       WDI_ProcessEndScanRsp
 0001:0010646C       WDI_ProcessStartScanRsp
 0001:00106598       WDI_GetMessageBuffer
 0001:00106678       WDI_PackPreferredNetworkListNew
 0001:00106A34       WDI_PackPreferredNetworkList
 0001:00106DCC       WDI_ProcessPrefNetworkFoundInd
 0001:00106F0C       WDI_ResetAssocSessions
 0001:00106F50       WDI_CleanCB
 0001:00106F84       WDI_ProcessHALDumpCmdRsp
 0001:001070C4       WDI_ProcessTriggerBARsp
 0001:00107298       WDI_ProcessGetStatsRsp
 0001:0010742C       WDI_ProcessStartInNavMeasRsp
 0001:00107778       WDI_AddBcastSTAtoSTATable
 0001:00107868       WDI_ProcessAddSTASelfRsp
 0001:001079BC       WDI_DeleteSession
 0001:00107A2C       WDI_FindAssocSession
 0001:00107AB0       WDI_ProcessConfigStaRsp
 0001:00107D44       WDI_ClearPendingRequests
 0001:00107F98       WDI_DequeueAssocRequest
 0001:001080C0       WDI_QueueAssocRequest
 0001:001081F4       WDI_QueueNewAssocRequest
 0001:001083D8       WDI_QueuePendingReq
 0001:001084EC       WDI_MainCloseBusy
 0001:00108550       WDI_MainReqBusy
 0001:001085C0       WDI_MainStopBusy
 0001:00108624       WDI_MainStartBusy
 0001:00108688       WDI_DequeuePendingReq
 0001:00108758       WDI_ResponseTimerCB
 0001:001087F4       WDI_DetectedDeviceError
 0001:001088A8       WDI_ProcessSetLinkStateRsp
 0001:00108A00       WDI_ProcessPostAssocRsp
 0001:00108C30       WDI_ProcessConfigBSSRsp
 0001:00108F08       WDI_ProcessJoinRsp
 0001:00109070       WDI_ProcessStopRsp
 0001:001091D4       WDI_MainRsp
 0001:00109300       WDI_MainStartStarted
 0001:00109394       WDI_MainStart
 0001:001094C4       WDI_PostMainEvent
 0001:001095BC       WDI_SetPowerParamsReq
 0001:00109638       WDI_ReceiveFilterClearFilterReq
 0001:001096D0       WDI_FilterMatchCountReq
 0001:00109768       WDI_ReceiveFilterSetFilterReq
 0001:0010980C       WDI_8023MulticastListReq
 0001:001098A4       WDI_UpdateScanParamsReq
 0001:00109920       WDI_SetRssiFilterReq
 0001:0010999C       WDI_SetPreferredNetworkReq
 0001:00109A18       WDI_PALCtrlMsgCB
 0001:00109CD0       WDI_HALDumpCmdReq
 0001:00109D4C       WDI_HostSuspendInd
 0001:00109DC4       WDI_SetTxPerTrackingReq
 0001:00109E40       WDI_DelSTASelfReq
 0001:00109EBC       WDI_HostResumeReq
 0001:00109F38       WDI_FTMCommandReq
 0001:00109FB8       WDI_AggrAddTSReq
 0001:0010A034       WDI_AddSTASelfReq
 0001:0010A0B0       WDI_SetP2PGONOAReq
 0001:0010A12C       WDI_NvDownloadReq
 0001:0010A1A8       WDI_ProcessNvDownloadRsp
 0001:0010A2AC       WDI_UpdateProbeRspTemplateReq
 0001:0010A328       WDI_SendBeaconParamsReq
 0001:0010A3A4       WDI_UpdateBeaconParamsReq
 0001:0010A420       WDI_TriggerBAReq
 0001:0010A49C       WDI_AddBAReq
 0001:0010A518       WDI_UpdateCfgReq
 0001:0010A594       WDI_GetStatsReq
 0001:0010A610       WDI_SetLinkStateReq
 0001:0010A68C       WDI_ConfigSTAReq
 0001:0010A708       WDI_SwitchChReq
 0001:0010A784       WDI_StartInNavMeasReq
 0001:0010A800       WDI_BtAmpEventReq
 0001:0010A87C       WDI_FlushAcReq
 0001:0010A8F8       WDI_ConfigureAppsCpuWakeupStateReq
 0001:0010A974       WDI_WowlExitReq
 0001:0010A9EC       WDI_WowlEnterReq
 0001:0010AA68       WDI_WowlDelBcPtrnReq
 0001:0010AAE4       WDI_WowlAddBcPtrnReq
 0001:0010AB60       WDI_KeepAliveReq
 0001:0010ABDC       WDI_HostOffloadReq
 0001:0010AC58       WDI_SetRSSIThresholdsReq
 0001:0010ACD4       WDI_RemBeaconFilterReq
 0001:0010AD50       WDI_SetBeaconFilterReq
 0001:0010ADCC       WDI_ConfigureRxpFilterReq
 0001:0010AE48       WDI_SetUapsdAcParamsReq
 0001:0010AEC4       WDI_UpdateUapsdParamsReq
 0001:0010AF40       WDI_ExitUapsdReq
 0001:0010AFB8       WDI_EnterUapsdReq
 0001:0010B034       WDI_ExitBmpsReq
 0001:0010B0B0       WDI_EnterBmpsReq
 0001:0010B12C       WDI_ExitImpsReq
 0001:0010B1A4       WDI_EnterImpsReq
 0001:0010B21C       WDI_SetPwrSaveCfgReq
 0001:0010B298       WDI_DelBAReq
 0001:0010B314       WDI_AddBASessionReq
 0001:0010B390       WDI_UpdateEDCAParams
 0001:0010B40C       WDI_DelTSReq
 0001:0010B488       WDI_AddTSReq
 0001:0010B504       WDI_RemoveSTABcastKeyReq
 0001:0010B580       WDI_SetSTABcastKeyReq
 0001:0010B5FC       WDI_RemoveSTAKeyReq
 0001:0010B678       WDI_SetSTAKeyReq
 0001:0010B6F4       WDI_RemoveBSSKeyReq
 0001:0010B770       WDI_SetBSSKeyReq
 0001:0010B7EC       WDI_DelSTAReq
 0001:0010B868       WDI_PostAssocReq
 0001:0010B8E4       WDI_DelBSSReq
 0001:0010B960       WDI_ConfigBSSReq
 0001:0010B9DC       WDI_JoinReq
 0001:0010BA58       WDI_FinishScanReq
 0001:0010BAD4       WDI_EndScanReq
 0001:0010BB50       WDI_StartScanReq
 0001:0010BBCC       WDI_InitScanReq
 0001:0010BC48       WDI_Stop
 0001:0010BCC4       WDI_Start
 0001:0010BD40       WDI_SendIndication
 0001:0010BDC4       WDI_ProcessHostSuspendInd
 0001:0010BF24       WDI_SendMsg
 0001:0010BFB8       WDI_ProcessSetPowerParamsReq
 0001:0010C12C       WDI_ProcessReceiveFilterClearFilterReq
 0001:0010C2A4       WDI_ProcessFilterMatchCountReq
 0001:0010C3EC       WDI_ProcessReceiveFilterSetFilterReq
 0001:0010C7F8       WDI_Process8023MulticastListReq
 0001:0010C9F4       WDI_ProcessUpdateScanParamsReq
 0001:0010CC1C       WDI_ProcessSetRssiFilterReq
 0001:0010CD68       WDI_ProcessSetPreferredNetworkReq
 0001:0010CEF4       WDI_SendNvBlobReq
 0001:0010D0B0       WDI_ProcessNvDownloadReq
 0001:0010D198       WDI_ProcessHALDumpCmdReq
 0001:0010D304       WDI_ProcessFTMCommandReq
 0001:0010D3DC       WDI_ProcessConfigureAppsCpuWakeupStateReq
 0001:0010D528       WDI_ProcessWowlExitReq
 0001:0010D630       WDI_ProcessWowlEnterReq
 0001:0010D7CC       WDI_ProcessWowlDelBcPtrnReq
 0001:0010D918       WDI_ProcessWowlAddBcPtrnReq
 0001:0010DAEC       WDI_ProcessKeepAliveReq
 0001:0010DCE4       WDI_ProcessHostOffloadReq
 0001:0010DE80       WDI_ProcessSetRSSIThresholdsReq
 0001:0010E064       WDI_ProcessRemBeaconFilterReq
 0001:0010E1A8       WDI_ProcessSetBeaconFilterReq
 0001:0010E318       WDI_ProcessConfigureRxpFilterReq
 0001:0010E46C       WDI_ProcessUpdateUapsdParamsReq
 0001:0010E5B0       WDI_ProcessSetUapsdAcParamsReq
 0001:0010E760       WDI_ProcessExitUapsdReq
 0001:0010E868       WDI_ProcessEnterUapsdReq
 0001:0010EA48       WDI_ProcessExitBmpsReq
 0001:0010EB94       WDI_ProcessExitImpsReq
 0001:0010EC9C       WDI_ProcessP2PGONOAReq
 0001:0010EE40       WDI_ProcessUpdateProbeRspTemplateReq
 0001:0010F014       WDI_ProcessSendBeaconParamsReq
 0001:0010F1F8       WDI_ProcessUpdateBeaconParamsReq
 0001:0010F3A4       WDI_ProcessUpdateCfgReq
 0001:0010F510       WDI_ProcessSetLinkStateReq
 0001:0010F750       WDI_ProcessChannelSwitchReq
 0001:0010F8D4       WDI_ProcessSetTxPerTrackingReq
 0001:0010FA4C       WDI_ProcessHostResumeReq
 0001:0010FB98       WDI_ProcessStartInNavMeasReq
 0001:0010FD44       WDI_ProcessDelSTASelfReq
 0001:0010FEA0       WDI_ProcessAddSTASelfReq
 0001:00110010       WDI_ProcessBtAmpEventReq
 0001:0011015C       WDI_ProcessFlushAcReq
 0001:001102A0       WDI_ProcessUpdateEDCAParamsReq
 0001:00110480       WDI_ProcessDelTSpecReq
 0001:00110660       WDI_ProcessRemoveBssKeyReq
 0001:001108C0       WDI_ProcessSetBssKeyReq
 0001:00110BEC       WDI_ProcessDelBSSReq
 0001:00110DFC       WDI_ProcessConfigBSSReq
 0001:001117F0       WDI_ProcessBSSSessionJoinReq
 0001:00111A10       WDI_ProcessJoinReq
 0001:00111AFC       WDI_ProcessEndScanReq
 0001:00111C48       WDI_ProcessStartScanReq
 0001:00111D94       WDI_ProcessInitScanReq
 0001:001122F8       WDI_ProcessStartReq
 0001:001124A8       WDI_RXMsgCTSCB
 0001:00112698       WDI_MainShutdownBusy
 0001:00112794       WDI_NotifyMsgCTSCB
 0001:0011287C       WDI_SetPowerStateCb
 0001:001128E8       WDI_ProcessExitBmpsRsp
 0001:0011299C       WDI_ProcessExitImpsRsp
 0001:00112A44       WDI_ProcessInitScanRsp
 0001:00112B4C       WDI_ProcessFinishScanReq
 0001:00112EA8       WDI_ProcessConfigStaReq
 0001:001132E0       WDI_ProcessPostAssocReq
 0001:00113F58       WDI_ProcessDelSTASelfRsp
 0001:00114078       WDI_ProcessDelSTARsp
 0001:001141A8       WDI_ProcessDelBSSRsp
 0001:001142FC       WDI_ProcessStartRsp
 0001:00114550       WDI_ProcessShutdownReq
 0001:00114660       WDI_ProcessAggrAddTSpecReq
 0001:00114BB0       WDI_ProcessTriggerBAReq
 0001:00114E40       WDI_ProcessAddBAReq
 0001:00115060       WDI_ProcessGetStatsReq
 0001:00115280       WDI_ProcessDelBAReq
 0001:001154A8       WDI_ProcessAddBASessionReq
 0001:00115724       WDI_ProcessAddTSpecReq
 0001:00115B6C       WDI_ProcessRemoveStaBcastKeyReq
 0001:00115DD8       WDI_ProcessSetStaBcastKeyReq
 0001:00116170       WDI_ProcessRemoveStaKeyReq
 0001:001163DC       WDI_ProcessSetStaKeyReq
 0001:00116774       WDI_ProcessDelSTAReq
 0001:0011698C       WDI_ProcessEnterBmpsReq
 0001:00116BD0       WDI_ProcessEnterImpsReq
 0001:00116D88       WDI_ProcessStopReq
 0001:00116FAC       WDI_ProcessCloseReq
 0001:00117054       WDI_Shutdown
 0001:00117260       WDI_Close
 0001:001174F4       WDI_Init
 0001:001179D0       WDI_DP_UtilsExit
 0001:001179D8       WDI_BmuGetQidForQOSTid
 0001:001179FC       WDI_TxBdFastFwd
 0001:00117A44       WDI_SwapRxBd
 0001:00117A80       WDI_SwapTxBd
 0001:00117ABC       WDI_RxAmsduBdFix
 0001:00117B28       WDI_RxBD_GetFrameTypeSubType
 0001:00117B74       WDI_FillTxBd
 0001:00118088       WDI_DP_UtilsInit
 0001:00118128       WDI_STATableStart
 0001:00118130       WDI_STATableGetStaQosEnabled
 0001:00118174       WDI_STATableSetStaQosEnabled
 0001:001181AC       WDI_STATableGetStaType
 0001:001181E4       WDI_STATableSetStaType
 0001:00118218       WDI_STATableFindStaidByAddr
 0001:001182D4       WDI_STATableGetStaAddr
 0001:00118308       WDI_STATableSetBSSIdx
 0001:0011833C       WDI_STATableSetBSSID
 0001:00118388       WDI_STATableSetStaAddr
 0001:001183D0       WDI_STATableGetStaBSSIDAddr
 0001:0011841C       WDI_STATableAddSta
 0001:001185F0       WDI_STATableDelSta
 0001:00118678       WDI_STATableBSSDelSta
 0001:001186D8       WDI_STATableStop
 0001:001186F8       WDI_STATableClose
 0001:0011871C       WDI_STATableInit
 0001:00118778       WDI_DS_MemPoolAlloc
 0001:00118840       WDI_DS_MemPoolFree
 0001:0011888C       WDI_DS_GetAvailableResCount
 0001:00118894       WDI_DS_MemPoolDestroy
 0001:001188BC       WDI_DS_MemPoolCreate
 0001:0011892C       WDI_DS_PrepareBDHeader
 0001:001189B4       WDI_DS_TxResume
 0001:001189CC       WDI_DS_TxSuspend
 0001:001189E4       WDI_DS_Register
 0001:00118A54       WDI_GetAvailableResCount
 0001:00118A98       WDI_DS_TxComplete
 0001:00118AB8       WDI_DS_TxPacket
 0001:00118BC0       WCTS_SendMessage
 0001:00118DB4       WCTS_CloseTransport
 0001:00118ED8       WCTS_OpenTransport
 0001:00119114       WCTS_PALOpenCallback
 0001:0011919C       WCTS_NotifyCallback
 0001:0011938C       WCTS_PALDataCallback
 0001:00119584       WDTS_GetReplayCounterFromRxBD
 0001:001195A4       WDTS_OOResourceNotification
 0001:00119610       WDTS_SetPowerStateCb
 0001:00119634       WDTS_Stop
 0001:00119644       WDTS_SetPowerState
 0001:00119688       WDTS_CompleteTx
 0001:00119698       WDTS_TxPacket
 0001:001196C0       WDTS_startTransport
 0001:001196D4       WDTS_Close
 0001:0011971C       WDTS_openTransport
 0001:001197B8       WDTS_RxPacket
 0001:00119AF8       WDTS_TxPacketComplete
 0001:00119B64       WLANDXE_TriggerTX
 0001:00119BA8       dxeChannelMonitor
 0001:00119CD8       WLANDXE_ClientRegistration
 0001:00119DB0       dxeDescriptorDump
 0001:00119E70       dxeRXPacketAvailableCB
 0001:00119F98       dxeNotifySmsm
 0001:0011A0A0       WLANDXE_SetPowerState
 0001:0011A2C0       dxePsComplete
 0001:0011A340       dxeRxThreadSetPowerStateEventHandler
 0001:0011A3C4       dxeChannelClose
 0001:0011A4A4       WLANDXE_Close
 0001:0011A574       dxeChannelRegisterDump
 0001:0011A690       WLANDXE_Stop
 0001:0011A7C0       dxeTxThreadSetPowerStateEventHandler
 0001:0011A8B8       dxeChannelCleanInt
 0001:0011AA10       dxeTXCompFrame
 0001:0011ABDC       dxeTXCompleteProcessing
 0001:0011AC68       WLANDXE_CompleteTX
 0001:0011AC9C       dxeTXEventHandler
 0001:0011AF08       WLANDXE_TxFrame
 0001:0011B4C8       dxeRXFrameSingleBufferAlloc
 0001:0011B660       WLANDXE_Start
 0001:0011BCFC       dxeRXFrameRefillRing
 0001:0011BD8C       dxeRXPacketAvailableEventHandler
 0001:0011BE1C       dxeRXFrameReady
 0001:0011BF78       dxeRXEventHandler
 0001:0011C2F4       dxeRXISR
 0001:0011C400       dxeTXISR
 0001:0011C554       WLANDXE_Open
 0001:0011CA54       dxeChannelDefaultConfig
 0001:0011CCF8       dxeCommonDefaultConfig
 0002:00000000       hdd_module_exit
 0003:00000000       init_module
 0004:00000000       __ksymtab_SQOS_channel_bandwidth_from_wifi_driver
 0004:00000008       __ksymtab_SQOS_data_from_wifi_driver
 0005:00000000       __kcrctab_SQOS_channel_bandwidth_from_wifi_driver
 0005:00000004       __kcrctab_SQOS_data_from_wifi_driver
 0006:00000000       __func__.15193
 0006:00000024       __func__.15164
 0006:00000048       __func__.15135
 0006:00000064       __func__.15107
 0006:00000080       __func__.15081
 0006:00000094       __func__.15176
 0006:000000A4       __func__.15246
 0006:000000BC       __func__.15210
 0006:000000D0       __func__.15149
 0006:000000E0       __func__.15122
 0006:000000F0       __func__.57834
 0006:00000104       __func__.27237
 0006:0000011C       __func__.27202
 0006:00000134       __func__.27166
 0006:0000014C       __func__.27130
 0006:00000160       __func__.27093
 0006:00000174       __func__.27066
 0006:00000188       __func__.27042
 0006:0000019C       __func__.27021
 0006:000001AC       __func__.26995
 0006:000001C4       __func__.26968
 0006:000001DC       __func__.26944
 0006:000001F8       __func__.26921
 0006:00000210       __func__.26899
 0006:00000228       __func__.26880
 0006:0000023C       __func__.26866
 0006:0000024C       __func__.15231
 0006:00000260       __func__.15204
 0006:00000274       __func__.15174
 0006:00000288       __func__.15155
 0006:00000298       __func__.15210_0
 0006:000002AC       __func__.15109
 0006:000002BC       __func__.15193_0
 0006:000002CC       __func__.15182
 0006:000002DC       __func__.15171
 0006:000002EC       __func__.15150
 0006:000002FC       __func__.15130
 0006:00000308       __func__.27997
 0006:00000318       __func__.27987
 0006:00000324       __func__.28048
 0006:00000334       __func__.28025
 0006:00000340       __func__.28005
 0006:0000034C       rfChannels
 0006:000005CC       C.466.44402
 0006:000005D4       __func__.44311
 0006:000005E4       __func__.44170
 0006:000005F0       CSWTCH.604
 0006:00000600       __func__.57665
 0006:0000061C       __func__.58166
 0006:00000634       __func__.57617
 0006:0000064C       __func__.57791
 0006:00000660       __func__.57733
 0006:00000670       __func__.15143
 0006:00000680       __func__.15132
 0006:0000068C       __func__.28126
 0006:000006A8       __func__.28288
 0006:000006B8       __func__.28185
 0006:000006CC       __func__.28229
 0006:000006DC       __func__.28161
 0006:000006EC       __func__.28055
 0006:00000708       __func__.15103
 0006:0000071C       __func__.15084
 0006:00000730       TRACE_LEVEL_STR.15158
 0006:00000750       __func__.61596
 0006:00000768       __func__.61324
 0006:00000788       __func__.61315
 0006:000007A8       __func__.61307
 0006:000007C4       __func__.61298
 0006:000007DC       __func__.61289
 0006:000007F4       __func__.60764
 0006:00000804       __func__.61744
 0006:00000818       __func__.61257
 0006:00000828       __func__.61633
 0006:00000838       __func__.61616
 0006:0000084C       __func__.61568
 0006:00000860       __func__.61555
 0006:00000878       __func__.61544
 0006:00000894       __func__.61511
 0006:000008A8       __func__.61474
 0006:000008BC       __func__.61426
 0006:000008D0       __func__.61386
 0006:000008E4       __func__.60746
 0006:000008F0       __func__.61335
 0006:00000904       __func__.61134
 0006:00000910       __func__.61079
 0006:0000091C       __func__.61010
 0006:00000928       __func__.60944
 0006:00000938       __func__.60782
 0006:00000944       __func__.60204
 0006:0000095C       __func__.60196
 0006:00000970       __func__.59521
 0006:00000984       __func__.60173
 0006:0000099C       __func__.60150
 0006:000009B4       __func__.60214
 0006:000009D0       __func__.60130
 0006:000009E8       __func__.60104
 0006:00000A00       __func__.60049
 0006:00000A18       __func__.60032
 0006:00000A30       __func__.59895
 0006:00000A44       __func__.59878
 0006:00000A58       __func__.59858
 0006:00000A68       __func__.59304
 0006:00000A7C       __func__.59244
 0006:00000A8C       __func__.59534
 0006:00000A98       __func__.59752
 0006:00000AA4       __func__.59621
 0006:00000AB0       __func__.59336
 0006:00000ABC       __func__.21635
 0006:00000ACC       __func__.21596
 0006:00000ADC       __func__.45466
 0006:00000AFC       __func__.45444
 0006:00000B18       __func__.45573
 0006:00000B2C       __func__.45552
 0006:00000B48       __func__.45514
 0006:00000B60       __func__.45487
 0006:00000B7C       __func__.45409
 0006:00000B8C       __func__.45391
 0006:00000BA0       __func__.45365
 0006:00000BB4       __func__.30301
 0006:00000BE0       __func__.30458
 0006:00000C0C       __func__.35868
 0006:00000C28       __func__.35834
 0006:00000C48       __func__.35899
 0006:00000C60       __func__.35778
 0006:00000C7C       __func__.35720
 0006:00000C98       __func__.35697
 0006:00000CB8       __func__.35609
 0006:00000CD0       __func__.35679
 0006:00000CEC       __func__.35660
 0006:00000D08       __func__.36931
 0006:00000D24       __func__.36881
 0006:00000D40       __func__.36849
 0006:00000D5C       __func__.36782
 0006:00000D84       __func__.36768
 0006:00000DAC       __func__.36749
 0006:00000DD0       __func__.36728
 0006:00000DF4       __func__.36708
 0006:00000E1C       __func__.36694
 0006:00000E40       __func__.36678
 0006:00000E58       __func__.36663
 0006:00000E68       __func__.36912
 0006:00000E84       __func__.36833
 0006:00000EA0       __func__.36816
 0006:00000EBC       __func__.36801
 0006:00000ED8       __func__.36638
 0006:00000EE8       __func__.35627
 0006:00000F04       __func__.35619
 0006:00000F1C       __func__.35610
 0006:00000F3C       __func__.35601
 0006:00000F5C       __func__.35665
 0006:00000F78       __func__.35616
 0006:00000F90       __func__.35735
 0006:00000FAC       __func__.35681
 0006:00000FC8       __func__.35639
 0006:00000FDC       __func__.36129
 0006:00000FF4       __func__.36090
 0006:00001008       __func__.35937
 0006:00001024       __func__.36049
 0006:00001034       __func__.35971
 0006:0000104C       WLANBAP_BT_AMP_OUI_0
 0006:00001050       __func__.35881
 0006:00001068       __func__.35686
 0006:00001084       __func__.35922
 0006:000010A8       __func__.35890
 0006:000010C8       __func__.35876
 0006:000010EC       __func__.35819
 0006:00001110       __func__.35760
 0006:00001134       __func__.35866
 0006:00001158       __func__.35951
 0006:00001178       __func__.35810
 0006:0000119C       __func__.35751
 0006:000011C0       __func__.35773
 0006:000011E8       __func__.35833
 0006:0000120C       __func__.35800
 0006:00001230       __func__.35741
 0006:00001254       __func__.35790
 0006:00001278       __func__.35731
 0006:0000129C       CSWTCH.497
 0006:000012A4       __func__.43154
 0006:000012C0       __func__.43140
 0006:000012D8       __func__.42799
 0006:000012F4       __func__.42689
 0006:00001304       __func__.42514
 0006:00001318       __func__.42577
 0006:00001328       __func__.42917
 0006:00001334       C.450.42409
 0006:0000133C       __func__.42408
 0006:00001348       C.449.36057
 0006:00001358       __func__.35878
 0006:00001368       __func__.36474
 0006:00001380       __func__.36500
 0006:0000139C       __func__.36222
 0006:000013A8       __func__.35915
 0006:000013C0       __func__.36460
 0006:000013D4       __func__.36450
 0006:000013E8       __func__.35779
 0006:000013FC       __func__.36116
 0006:0000140C       __func__.35839
 0006:00001424       __func__.35752
 0006:00001438       __func__.36214
 0006:00001450       __func__.36240
 0006:0000146C       __func__.31772
 0006:00001474       __func__.27462
 0006:0000148C       __func__.27257
 0006:000014A8       __func__.27032
 0006:000014C8       __func__.27080
 0006:000014E0       CSWTCH.520
 0006:000014F4       __func__.32504
 0006:0000150C       __func__.32405
 0006:0000151C       __func__.32378
 0006:00001530       __func__.32133
 0006:00001540       EAPOL_VERSION_BYTES
 0006:00001544       ANI_ETH_P_EAPOL_BYTES
 0006:00001548       ZERO_BYTES
 0006:00001558       __func__.32319
 0006:00001568       __func__.32063
 0006:0000157C       __func__.27070
 0006:00001594       __func__.35725
 0006:000015A8       __func__.35662
 0006:000015C4       __func__.35906
 0006:000015E0       __func__.35813
 0006:00001600       __func__.35836
 0006:00001614       __func__.35741_0
 0006:0000162C       WLANBAP_BT_AMP_OUI
 0006:00001630       __func__.35875
 0006:0000164C       __func__.35783
 0006:00001668       __func__.47507
 0006:00001678       __func__.47566
 0006:00001694       __func__.47153
 0006:000016B0       __func__.47128
 0006:000016C8       __func__.47041
 0006:000016DC       __func__.45201
 0006:000016F0       __func__.46625
 0006:00001704       __func__.46326
 0006:00001718       __func__.45645
 0006:00001728       C.239.14985
 0006:00001730       WLANTL_BT_AMP_OUI
 0006:00001734       __func__.45773
 0006:0000174C       tlSTAFsm
 0006:0000176C       __func__.45475
 0006:00001780       __func__.44820
 0006:00001790       __func__.44739
 0006:0000179C       WLANTL_TID_2_AC
 0006:000017A4       __func__.45141
 0006:000017BC       __func__.44624
 0006:000017D8       __func__.44719
 0006:000017EC       __func__.44516
 0006:00001804       __func__.44851
 0006:00001830       WLANTL_HO_TID_2_AC
 0006:00001838       __func__.44340
 0006:00001840       __func__.44791
 0006:0000184C       __func__.44849
 0006:0000185C       __func__.44472
 0006:00001868       __func__.44516_0
 0006:00001870       __func__.44416
 0006:0000187C       __func__.44437
 0006:00001894       __func__.44592
 0006:000018A8       __func__.16270
 0006:000018B4       __func__.16263
 0006:000018C8       __func__.16344
 0006:000018D4       __func__.16292
 0006:000018E0       __func__.16282
 0006:000018EC       __func__.16492
 0006:000018FC       __func__.16323
 0006:0000190C       __func__.16533
 0006:00001920       __func__.16586
 0006:00001930       __func__.16560
 0006:0000193C       __func__.16469
 0006:0000194C       __func__.16512
 0006:00001958       __func__.16360
 0006:00001964       __func__.16449
 0006:00001974       __func__.16426
 0006:00001984       __func__.16409
 0006:00001998       __func__.16390
 0006:000019A8       __func__.16372
 0006:000019B8       __func__.16304
 0006:000019CC       __func__.49031
 0006:000019E0       __func__.49745
 0006:000019F4       __func__.47441
 0006:00001A0C       __func__.49710
 0006:00001A28       __func__.49634
 0006:00001A44       __func__.49393
 0006:00001A64       __func__.48909
 0006:00001A78       __func__.48869
 0006:00001A90       __func__.46296
 0006:00001AA8       __func__.46210
 0006:00001AC0       C.739.49547
 0006:00001AC8       __func__.49542
 0006:00001AD8       __func__.49276
 0006:00001AF0       __func__.49318
 0006:00001B08       __func__.48923
 0006:00001B1C       __func__.49077
 0006:00001B38       __func__.48665
 0006:00001B4C       __func__.47042
 0006:00001B68       __func__.47389
 0006:00001B84       __func__.47814
 0006:00001BA0       __func__.47457
 0006:00001BC0       __func__.47584
 0006:00001BDC       __func__.46846
 0006:00001BF0       __func__.46692
 0006:00001C14       __func__.46595
 0006:00001C30       __func__.46637
 0006:00001C54       C.523.46565
 0006:00001C5C       __func__.46563
 0006:00001C74       C.511.46501
 0006:00001C7C       __func__.46491
 0006:00001C94       __func__.47231
 0006:00001CB8       __func__.48105
 0006:00001CC8       C.498.46401
 0006:00001CD0       __func__.46388
 0006:00001CE8       __func__.46026
 0006:00001CFC       __func__.46115
 0006:00001D0C       __func__.49249
 0006:00001D20       __func__.45905
 0006:00001D38       __func__.45965
 0006:00001D44       __func__.48925
 0006:00001D54       __func__.56026
 0006:00001D70       __func__.56663
 0006:00001D88       __func__.54322
 0006:00001DA0       __func__.54243
 0006:00001DB4       __func__.54214
 0006:00001DC8       __func__.57004
 0006:00001DE4       __func__.56970
 0006:00001DFC       __func__.56935
 0006:00001E14       __func__.55665
 0006:00001E30       __func__.56882
 0006:00001E44       __func__.56274
 0006:00001E58       __func__.49222
 0006:00001E6C       __func__.57039
 0006:00001E8C       __func__.56302
 0006:00001EB0       CSWTCH.1071
 0006:00001EB8       CSWTCH.1072
 0006:00001ED8       CSWTCH.1073
 0006:00001EF8       CSWTCH.1076
 0006:00001F00       CSWTCH.1077
 0006:00001F18       CSWTCH.1078
 0006:00001F30       __func__.56813
 0006:00001F48       __func__.56903
 0006:00001F5C       __func__.55817
 0006:00001F78       __func__.55696
 0006:00001F94       __func__.52470
 0006:00001FB0       __func__.56608
 0006:00001FD8       __func__.56721
 0006:00001FF4       C.499.49456
 0006:00001FFC       C.493.49351
 0006:00002004       __func__.56538
 0006:00002020       __func__.56420
 0006:00002034       __func__.56390
 0006:00002040       __func__.56124
 0006:0000205C       __func__.56047
 0006:00002078       __func__.55637
 0006:00002094       __func__.55727
 0006:000020A8       __func__.48481
 0006:000020B4       C.497.49423
 0006:000020BC       C.495.49388
 0006:000020C4       __func__.49810
 0006:000020D4       __func__.53516
 0006:000020F0       __func__.54606
 0006:00002110       __func__.54844
 0006:00002128       __func__.51931
 0006:00002140       __func__.54659
 0006:00002154       __func__.52686
 0006:00002174       csrStartIbssChannels24
 0006:00002178       csrStartIbssChannels50
 0006:0000217C       __func__.53948
 0006:000021A0       __func__.53877
 0006:000021B8       __func__.53177
 0006:000021D0       __func__.53336
 0006:000021E4       __func__.53366
 0006:000021F4       __func__.52628
 0006:00002214       __func__.52596
 0006:00002230       __func__.52544
 0006:00002250       __func__.51725
 0006:00002268       __func__.53485
 0006:0000228C       __func__.51692
 0006:000022A8       __func__.51749
 0006:000022C4       __func__.51331
 0006:000022D8       __func__.51299
 0006:000022EC       __func__.49184
 0006:0000230C       __func__.51555
 0006:00002324       __func__.51614
 0006:00002340       __func__.51502
 0006:00002350       __func__.51361
 0006:0000236C       __func__.51390
 0006:0000237C       C.489.49284
 0006:00002384       __func__.49283
 0006:000023A0       CSWTCH.1081
 0006:000023B4       CSWTCH.1082
 0006:000023C8       __func__.52779
 0006:000023E4       C.693.52889
 0006:000023EC       __func__.52849
 0006:0000240C       __func__.52809
 0006:0000241C       __func__.52390
 0006:0000243C       C.562.50896
 0006:00002444       __func__.50862
 0006:0000245C       __func__.50559
 0006:00002478       __func__.50733
 0006:00002494       __func__.51630
 0006:000024B4       __func__.49882
 0006:000024C8       __func__.54555
 0006:000024D8       __func__.49521
 0006:000024F0       __func__.50153
 0006:000024FC       __func__.50260
 0006:00002510       __func__.50396
 0006:00002518       __func__.52063
 0006:0000253C       __func__.50447
 0006:00002554       __func__.52220
 0006:0000257C       __func__.52161
 0006:000025A0       __func__.52303
 0006:000025C8       __func__.49070
 0006:000025DC       __func__.48743
 0006:000025F8       __func__.48642
 0006:00002608       __func__.55763
 0006:00002624       __func__.48373
 0006:00002634       __func__.48338
 0006:0000263C       __func__.45262
 0006:0000264C       __func__.45244
 0006:0000265C       CSWTCH.542
 0006:0000268C       CSWTCH.545
 0006:000026D4       CSWTCH.552
 0006:000026E0       CSWTCH.555
 0006:000026E8       CSWTCH.556
 0006:00002704       CSWTCH.559
 0006:00002714       CSWTCH.560
 0006:00002750       CSWTCH.563
 0006:00002754       CSWTCH.566
 0006:00002758       CSWTCH.569
 0006:0000275C       CSWTCH.572
 0006:00002760       CSWTCH.575
 0006:00002764       CSWTCH.581
 0006:0000276C       CSWTCH.584
 0006:00002784       CSWTCH.587
 0006:000027A0       CSWTCH.592
 0006:000027B8       CSWTCH.595
 0006:000027D0       __func__.48345
 0006:000027E4       __func__.45920
 0006:00002804       __func__.48321
 0006:0000281C       C.517.47513
 0006:00002824       gCsrIELengthTable
 0006:00002A24       __func__.48200
 0006:00002A48       __func__.48225
 0006:00002A5C       __func__.45846
 0006:00002A7C       __func__.45786
 0006:00002A94       __func__.45672
 0006:00002AA4       __func__.45262_0
 0006:00002AB8       __func__.47277
 0006:00002ADC       __func__.46569
 0006:00002B08       __func__.46553
 0006:00002B2C       __func__.46735
 0006:00002B54       __func__.47352
 0006:00002B74       __func__.47374
 0006:00002B88       __func__.47113
 0006:00002BAC       __func__.47199
 0006:00002BD4       __func__.47256
 0006:00002C00       __func__.46988
 0006:00002C24       C.477.47021
 0006:00002C2C       __func__.47020
 0006:00002C4C       __func__.47064
 0006:00002C78       __func__.46604
 0006:00002C9C       __func__.47490
 0006:00002CBC       __func__.47448
 0006:00002CDC       __func__.46642
 0006:00002CFC       __func__.46418
 0006:00002D20       __func__.46374
 0006:00002D4C       __func__.46680
 0006:00002D70       __func__.46404
 0006:00002D94       __func__.47421
 0006:00002DAC       __func__.47157
 0006:00002DD4       __func__.47232
 0006:00002DFC       __func__.47094
 0006:00002E28       __func__.46889
 0006:00002E4C       __func__.46520
 0006:00002E6C       __func__.46794
 0006:00002E90       __func__.46849
 0006:00002EB8       __func__.46487
 0006:00002EE4       __func__.47294
 0006:00002F04       __func__.47082
 0006:00002F1C       __func__.47061
 0006:00002F30       __func__.47028
 0006:00002F44       __func__.47011
 0006:00002F58       __func__.46805
 0006:00002F68       __func__.46791
 0006:00002F7C       C.493.46936
 0006:00002F84       __func__.46981
 0006:00002FA0       __func__.46212
 0006:00002FB8       __func__.46193
 0006:00002FCC       __func__.46095
 0006:00002FE4       __func__.46037
 0006:00002FF8       __func__.46895
 0006:00003010       __func__.46880
 0006:00003030       __func__.46865
 0006:00003050       __func__.46850
 0006:00003068       __func__.46835
 0006:00003088       __func__.46820
 0006:000030A4       __func__.46716
 0006:000030BC       __func__.46686
 0006:000030D4       __func__.46172
 0006:000030E8       __func__.46111
 0006:000030FC       __func__.46673
 0006:00003108       __func__.46046
 0006:00003120       __func__.46651
 0006:00003144       __func__.46328
 0006:00003160       __func__.46632
 0006:00003180       __func__.46310
 0006:0000319C       __func__.46601
 0006:000031B0       __func__.46748
 0006:000031C0       __func__.46548
 0006:000031D0       __func__.46451
 0006:000031E4       __func__.46355
 0006:000031F8       __func__.46293
 0006:00003208       __func__.46248
 0006:0000321C       __func__.46158
 0006:00003234       __func__.46142
 0006:0000324C       __func__.46017
 0006:00003258       __func__.45997
 0006:00003260       __func__.45972
 0006:0000326C       __func__.45925
 0006:00003274       CSWTCH.510
 0006:000032B4       __func__.47244
 0006:000032CC       __func__.46980
 0006:000032E0       __func__.46914
 0006:000032EC       __func__.46781
 0006:0000330C       __func__.46402
 0006:00003320       __func__.47221
 0006:00003334       __func__.47187
 0006:00003348       __func__.46511
 0006:00003360       __func__.46162
 0006:00003378       __func__.46524
 0006:0000338C       __func__.46340
 0006:000033A8       __func__.46622
 0006:000033C8       __func__.46539
 0006:000033E0       __func__.46280
 0006:000033FC       __func__.46486
 0006:0000340C       __func__.46458
 0006:0000341C       __func__.46183
 0006:00003434       __func__.46856
 0006:0000344C       __func__.46954
 0006:0000345C       __func__.46419
 0006:0000347C       __func__.46207
 0006:0000349C       __func__.46707
 0006:000034B4       __func__.46572
 0006:000034D4       __func__.46530
 0006:000034E8       __func__.46364
 0006:000034FC       __func__.47066
 0006:00003510       __func__.46299
 0006:00003524       __func__.46144
 0006:0000353C       __func__.47890
 0006:00003554       __func__.47878
 0006:00003564       __func__.47869
 0006:00003574       __func__.45394
 0006:00003588       __func__.48836
 0006:000035A8       __func__.45451
 0006:000035C0       __func__.48320
 0006:000035E0       __func__.48282
 0006:000035F0       __func__.48013
 0006:00003600       __func__.45514_0
 0006:00003614       __func__.47183
 0006:00003634       __func__.49142
 0006:0000364C       __func__.48782
 0006:00003668       __func__.48745
 0006:00003688       __func__.48733
 0006:000036A8       __func__.47964
 0006:000036C4       __func__.47904
 0006:000036DC       __func__.47542
 0006:000036F4       __func__.47138
 0006:00003714       __func__.48548
 0006:0000372C       __func__.48491
 0006:00003744       __func__.48421
 0006:00003760       __func__.48380
 0006:00003774       __func__.48354
 0006:00003788       __func__.48235
 0006:000037A8       __func__.48122
 0006:000037C4       __func__.48254
 0006:000037DC       __func__.47718
 0006:000037F4       __func__.48152
 0006:00003808       __func__.48070
 0006:00003824       __func__.47329
 0006:0000383C       __func__.47269
 0006:00003858       __func__.47226
 0006:00003878       __func__.47096
 0006:00003898       __func__.47825
 0006:000038AC       __func__.46447
 0006:000038CC       __func__.46888
 0006:000038E8       __func__.46504
 0006:000038FC       __func__.46639
 0006:0000391C       __func__.46306
 0006:0000392C       __func__.46247
 0006:0000393C       __func__.48918
 0006:00003950       __func__.46372
 0006:00003968       __func__.47393
 0006:00003988       __func__.48886
 0006:00003998       __func__.46140
 0006:000039A8       __func__.45920_0
 0006:000039C4       __func__.48173
 0006:000039E0       __func__.49073
 0006:000039F8       __func__.48946
 0006:00003A14       __func__.48688
 0006:00003A30       __func__.47618
 0006:00003A50       __func__.47481
 0006:00003A70       __func__.46734
 0006:00003A88       __func__.47003
 0006:00003AA8       __func__.46815
 0006:00003AC8       __func__.45481
 0006:00003ADC       __func__.46779
 0006:00003AF4       __func__.46762
 0006:00003B0C       __func__.45788
 0006:00003B28       __func__.45553
 0006:00003B40       __func__.45414
 0006:00003B54       __func__.45382
 0006:00003B68       __func__.45368
 0006:00003B7C       __func__.45337
 0006:00003B8C       __func__.49167
 0006:00003BA0       __func__.45301
 0006:00003BB0       __func__.45273
 0006:00003BBC       __func__.49111
 0006:00003BDC       __func__.49037
 0006:00003BF8       __func__.49018
 0006:00003C10       __func__.48534
 0006:00003C24       __func__.48958
 0006:00003C40       __func__.48913
 0006:00003C60       __func__.46671
 0006:00003C88       __func__.49099
 0006:00003CA0       __func__.48937
 0006:00003CB8       __func__.48898
 0006:00003CDC       CSWTCH.757
 0006:00003D0C       __func__.46341
 0006:00003D20       __func__.48789
 0006:00003D30       __func__.48766
 0006:00003D40       __func__.48753
 0006:00003D54       __func__.48701
 0006:00003D6C       __func__.48658
 0006:00003D84       __func__.48560
 0006:00003D98       __func__.48445
 0006:00003DB4       __func__.48386
 0006:00003DCC       __func__.48228
 0006:00003DE0       __func__.48087
 0006:00003DF8       __func__.47862
 0006:00003E08       __func__.47737
 0006:00003E1C       __func__.47291
 0006:00003E3C       __func__.47255
 0006:00003E58       __func__.47218
 0006:00003E74       __func__.47184
 0006:00003E88       __func__.47150
 0006:00003EA0       __func__.47126
 0006:00003EB0       __func__.47103
 0006:00003EC4       __func__.47057
 0006:00003ED4       __func__.47031
 0006:00003EE4       __func__.46910
 0006:00003EF8       __func__.46890
 0006:00003F08       __func__.45468
 0006:00003F18       __func__.45441
 0006:00003F34       __func__.45337_0
 0006:00003F4C       __func__.45420
 0006:00003F5C       __func__.45269
 0006:00003F6C       __func__.45248
 0006:00003F78       __func__.45238
 0006:00003F84       __func__.45922
 0006:00003F98       __func__.45539
 0006:00003FB0       __func__.45428
 0006:00003FD0       __func__.45485
 0006:00003FF0       __func__.44801
 0006:00004000       __func__.45760
 0006:0000400C       __func__.45846_0
 0006:0000401C       __func__.44845
 0006:00004030       __func__.45176
 0006:00004044       __func__.45237
 0006:00004058       __func__.45309
 0006:0000406C       __func__.45362
 0006:00004084       __func__.45577
 0006:00004094       __func__.44767
 0006:000040A0       __func__.44990
 0006:000040C0       __func__.45048
 0006:000040DC       __func__.45028
 0006:000040F8       __func__.46859
 0006:0000410C       __func__.46719
 0006:0000412C       __func__.45035
 0006:0000413C       __func__.44990_0
 0006:0000414C       __func__.44872
 0006:00004164       __func__.45079
 0006:00004178       __func__.44907
 0006:00004188       __func__.44788
 0006:00004190       __func__.44772
 0006:000041A4       __func__.44340_0
 0006:000041B8       __func__.44235
 0006:000041C4       __func__.44208
 0006:000041D0       __func__.17319
 0006:000041E8       __func__.17296
 0006:000041F8       __func__.17340
 0006:0000420C       __func__.17259
 0006:00004220       __func__.17382
 0006:00004238       __func__.45460
 0006:00004244       __func__.45466_0
 0006:00004254       __func__.45385
 0006:00004260       __func__.45364
 0006:0000426C       __func__.45524
 0006:00004288       TLVS_P2PDeviceInfo
 0006:000042D0       TLVS_VendorExtension
 0006:00004360       TLVS_WscReassocRes
 0006:000043F0       TLVS_WscProbeRes
 0006:00004678       TLVS_WscProbeReq
 0006:000048B8       TLVS_WscBeaconProbeRes
 0006:00004B40       TLVS_WscBeacon
 0006:00004CA8       TLVS_WscAssocRes
 0006:00004D38       TLVS_WscAssocReq
 0006:00004DC8       TLVS_WSC
 0006:00005104       TLVS_P2PWSCProvisionDiscoveryRes
 0006:0000514C       TLVS_P2PProvisionDiscoveryReq
 0006:000051DC       TLVS_P2PProbeRes
 0006:000052B4       TLVS_P2PProbeReq
 0006:0000538C       TLVS_P2PPresenceResponse
 0006:000053F8       TLVS_P2PNoticeOfAbsence
 0006:00005440       TLVS_P2PInvitationRes
 0006:00005518       TLVS_P2PInvitationReq
 0006:00005638       TLVS_P2PGONegWPS
 0006:000056A4       TLVS_P2PGONegRes
 0006:0000580C       TLVS_P2PGONegReq
 0006:00005974       TLVS_P2PGONegCnf
 0006:00005A4C       TLVS_P2PDisAssoc
 0006:00005A94       TLVS_P2PDeviceDiscoverabilityRes
 0006:00005ADC       TLVS_P2PDeviceDiscoverabilityReq
 0006:00005B48       TLVS_P2PDeAuth
 0006:00005B90       TLVS_P2PBeaconProbeRes
 0006:00005C8C       TLVS_P2PBeacon
 0006:00005D1C       TLVS_P2PAssocRes
 0006:00005D88       TLVS_P2PAssocReq
 0006:00005E18       IES_WMMDelTS
 0006:00005E58       IES_WMMAddTSResponse
 0006:00005E98       IES_WMMAddTSRequest
 0006:00005ED8       IES_TPCRequest
 0006:00005F18       IES_TPCReport
 0006:00005F58       IES_SMPowerSave
 0006:00005F78       IES_ReAssocResponse
 0006:000061B8       IES_ReAssocRequest
 0006:00006438       IES_RadioMeasurementRequest
 0006:00006478       IES_RadioMeasurementReport
 0006:000064B8       IES_ProvisionDiscoveryRes
 0006:000064F8       IES_ProvisionDiscoveryReq
 0006:00006538       IES_ProbeResponse
 0006:00006958       IES_ProbeRequest
 0006:00006A98       IES_PresenceRes
 0006:00006AD8       IES_PresenceReq
 0006:00006B18       IES_NoticeOfAbs
 0006:00006B58       IES_NeighborReportResponse
 0006:00006B98       IES_NeighborReportRequest
 0006:00006BD8       IES_MeasurementRequest
 0006:00006C18       IES_MeasurementReport
 0006:00006C58       IES_LinkMeasurementRequest
 0006:00006C78       IES_LinkMeasurementReport
 0006:00006C98       IES_InvitationRes
 0006:00006CD8       IES_InvitationReq
 0006:00006D18       IES_GONegRes
 0006:00006D78       IES_GONegReq
 0006:00006DD8       IES_GONegCnf
 0006:00006E18       IES_GODiscoverabilityReq
 0006:00006E38       IES_Disassociation
 0006:00006E78       IES_DeviceDiscoverabilityRes
 0006:00006EB8       IES_DeviceDiscoverabilityReq
 0006:00006EF8       IES_DelTS
 0006:00006F18       IES_DelBAInd
 0006:00006F38       IES_DeAuth
 0006:00006F78       IES_ChannelSwitch
 0006:00006FD8       IES_BeaconIEs
 0006:00007438       IES_Beacon2
 0006:00007738       IES_Beacon1
 0006:000077D8       IES_Beacon
 0006:00007C38       IES_Authentication
 0006:00007D18       IES_AssocResponse
 0006:00007F58       IES_AssocRequest
 0006:00008198       IES_AddTSResponse
 0006:000082F8       IES_AddTSRequest
 0006:000083D8       IES_AddBARsp
 0006:000083F8       IES_AddBAReq
 0006:00008418       IES_RICDataDesc
 0006:000084F8       IES_NeighborReport
 0006:000085B8       IES_measurement_requestBeacon
 0006:00008678       IES_reportBeacon
 0006:000086B8       IES_FTInfo
 0006:00008738       IES_Airgo
 0006:00008978       FFS_WMMDelTS
 0006:000089B4       FFS_WMMAddTSResponse
 0006:000089F0       FFS_WMMAddTSRequest
 0006:00008A2C       FFS_TPCRequest
 0006:00008A5C       FFS_TPCReport
 0006:00008A8C       FFS_SMPowerSave
 0006:00008ABC       FFS_ReAssocResponse
 0006:00008AEC       FFS_ReAssocRequest
 0006:00008B1C       FFS_RadioMeasurementRequest
 0006:00008B58       FFS_RadioMeasurementReport
 0006:00008B88       FFS_ProvisionDiscoveryRes
 0006:00008BD0       FFS_ProvisionDiscoveryReq
 0006:00008C18       FFS_ProbeResponse
 0006:00008C48       FFS_ProbeRequest
 0006:00008C54       FFS_PresenceRes
 0006:00008C90       FFS_PresenceReq
 0006:00008CCC       FFS_NoticeOfAbs
 0006:00008D08       FFS_NeighborReportResponse
 0006:00008D38       FFS_NeighborReportRequest
 0006:00008D68       FFS_MeasurementRequest
 0006:00008D98       FFS_MeasurementReport
 0006:00008DC8       FFS_LinkMeasurementRequest
 0006:00008E10       FFS_LinkMeasurementReport
 0006:00008EA0       FFS_InvitationRes
 0006:00008EE8       FFS_InvitationReq
 0006:00008F30       FFS_GONegRes
 0006:00008F78       FFS_GONegReq
 0006:00008FC0       FFS_GONegCnf
 0006:00009008       FFS_GODiscoverabilityReq
 0006:00009044       FFS_Disassociation
 0006:0000905C       FFS_DeviceDiscoverabilityRes
 0006:000090A4       FFS_DeviceDiscoverabilityReq
 0006:000090EC       FFS_DelTS
 0006:00009128       FFS_DelBAInd
 0006:00009164       FFS_DeAuth
 0006:0000917C       FFS_ChannelSwitch
 0006:000091A0       FFS_BeaconIEs
 0006:000091AC       FFS_Beacon2
 0006:000091B8       FFS_Beacon1
 0006:000091E8       FFS_Beacon
 0006:00009218       FFS_Authentication
 0006:00009248       FFS_AssocResponse
 0006:00009278       FFS_AssocRequest
 0006:0000929C       FFS_AddTSResponse
 0006:000092D8       FFS_AddTSRequest
 0006:00009308       FFS_AddBARsp
 0006:0000935C       FFS_AddBAReq
 0006:000093B0       FFS_RICDataDesc
 0006:000093BC       FFS_NeighborReport
 0006:000093C8       FFS_measurement_requestBeacon
 0006:000093D4       FFS_reportBeacon
 0006:000093E0       FFS_FTInfo
 0006:000093EC       FFS_Airgo
 0006:000093F8       CSWTCH.453
 0006:00009414       CSWTCH.456
 0006:00009458       __func__.44578
 0006:00009464       __func__.47728
 0006:00009470       __func__.47699
 0006:0000947C       CSWTCH.451
 0006:00009700       CSWTCH.454
 0006:00009924       CSWTCH.457
 0006:00009A6C       __func__.48066
 0006:00009A8C       __func__.47778
 0006:00009AAC       __func__.49659
 0006:00009AC8       __func__.49371
 0006:00009AE0       __func__.49323
 0006:00009AF4       __func__.49098
 0006:00009B10       __func__.49003
 0006:00009B2C       __func__.48974
 0006:00009B48       __func__.48828
 0006:00009B68       __func__.48693
 0006:00009B7C       __func__.48603
 0006:00009BA0       __func__.48517
 0006:00009BC0       __func__.47197
 0006:00009BD4       __func__.48427
 0006:00009BF4       __func__.48291
 0006:00009C10       __func__.48249
 0006:00009C30       __func__.49211
 0006:00009C4C       __func__.47254
 0006:00009C5C       __func__.48192
 0006:00009C70       __func__.48000
 0006:00009C88       __func__.47966
 0006:00009CA0       __func__.47916
 0006:00009CB4       __func__.47858
 0006:00009CC8       __func__.47811
 0006:00009CDC       __func__.47759
 0006:00009CFC       __func__.47652
 0006:00009D14       __func__.47554
 0006:00009D2C       __func__.47525
 0006:00009D48       __func__.47495
 0006:00009D64       __func__.47459
 0006:00009D7C       __func__.47378
 0006:00009D94       __func__.47344
 0006:00009DAC       __func__.47296
 0006:00009DC8       __func__.47281
 0006:00009DE4       __func__.44219
 0006:00009DF0       __func__.46458_0
 0006:00009DFC       __func__.46381
 0006:00009E08       __func__.44608
 0006:00009E20       __func__.44567
 0006:00009E38       __func__.44662
 0006:00009E4C       __func__.45020
 0006:00009E60       __func__.44631
 0006:00009E78       C.456.44615
 0006:00009E98       __func__.44612
 0006:00009EA8       __func__.44573
 0006:00009EBC       __func__.45070
 0006:00009ED0       __func__.44749
 0006:00009ED8       __func__.44945
 0006:00009EEC       __func__.45657
 0006:00009F08       __func__.45629
 0006:00009F24       __func__.45601
 0006:00009F44       __func__.45576
 0006:00009F5C       __func__.45547
 0006:00009F70       __func__.45366
 0006:00009F94       __func__.45511
 0006:00009FAC       __func__.45465
 0006:00009FC4       __func__.45408
 0006:00009FD8       __func__.45441_0
 0006:00009FF0       __func__.45337_1
 0006:0000A004       __func__.45308
 0006:0000A018       __func__.45291
 0006:0000A034       __func__.45228
 0006:0000A04C       __func__.45196
 0006:0000A060       __func__.45183
 0006:0000A074       __func__.45103
 0006:0000A088       __func__.44920
 0006:0000A098       __func__.45048_0
 0006:0000A0B8       __func__.45033
 0006:0000A0D8       __func__.45017
 0006:0000A0F4       __func__.45003
 0006:0000A104       __func__.44962
 0006:0000A118       __func__.44929
 0006:0000A130       __func__.44911
 0006:0000A140       __func__.44898
 0006:0000A150       __func__.44881
 0006:0000A160       __func__.44863
 0006:0000A170       __func__.44587
 0006:0000A184       __func__.44671
 0006:0000A198       __func__.44615
 0006:0000A1B0       __func__.44562
 0006:0000A1C0       __func__.44709
 0006:0000A1D4       __func__.45675
 0006:0000A1E8       __func__.45648
 0006:0000A200       __func__.45613
 0006:0000A210       __func__.45525
 0006:0000A220       __func__.45767
 0006:0000A238       __func__.45705
 0006:0000A254       __func__.45568
 0006:0000A264       __func__.45468_0
 0006:0000A270       __func__.45451_0
 0006:0000A280       __func__.45772
 0006:0000A28C       __func__.45676
 0006:0000A2A0       __func__.45619
 0006:0000A2AC       __func__.45479
 0006:0000A2B8       __func__.45819
 0006:0000A2D0       __func__.45430
 0006:0000A2E0       __func__.45150
 0006:0000A2F0       __func__.45111
 0006:0000A304       __func__.45036
 0006:0000A314       __func__.45064
 0006:0000A324       CSWTCH.483
 0006:0000A330       CSWTCH.486
 0006:0000A350       CSWTCH.477
 0006:0000A3A0       CSWTCH.480
 0006:0000A3B4       __func__.48197
 0006:0000A3D0       __func__.48179
 0006:0000A3EC       __func__.48174
 0006:0000A404       __func__.48137
 0006:0000A418       __func__.48078
 0006:0000A438       __func__.47966_0
 0006:0000A44C       __func__.47940
 0006:0000A460       __func__.47790
 0006:0000A468       __func__.47755
 0006:0000A474       __func__.47732
 0006:0000A480       __func__.47650
 0006:0000A490       CSWTCH.518
 0006:0000A4A0       __func__.49522
 0006:0000A4C4       __func__.49502
 0006:0000A4E0       __func__.49467
 0006:0000A4FC       __func__.48861
 0006:0000A50C       __func__.47746
 0006:0000A524       __func__.49072
 0006:0000A530       __func__.48821
 0006:0000A53C       __func__.49054
 0006:0000A558       C.492.48933
 0006:0000A560       __func__.48497
 0006:0000A57C       __func__.48373_0
 0006:0000A594       __func__.47792
 0006:0000A5A4       __func__.48277
 0006:0000A5B8       __func__.48238
 0006:0000A5D0       __func__.48980
 0006:0000A5E8       __func__.47972
 0006:0000A5FC       __func__.49430
 0006:0000A618       __func__.47925
 0006:0000A62C       __func__.48039
 0006:0000A644       __func__.48941
 0006:0000A65C       __func__.47677
 0006:0000A674       __func__.49283_0
 0006:0000A690       __func__.49106
 0006:0000A6A4       __func__.48882
 0006:0000A6B4       __func__.48676
 0006:0000A6C0       __func__.47657
 0006:0000A6D8       __func__.48048
 0006:0000A6F8       __func__.47986
 0006:0000A710       __func__.47789
 0006:0000A724       __func__.47716
 0006:0000A73C       __func__.47685
 0006:0000A75C       __func__.47839
 0006:0000A77C       __func__.47621
 0006:0000A794       __func__.47817
 0006:0000A7B4       __func__.47527
 0006:0000A7C4       __func__.47866
 0006:0000A7D8       __func__.47749
 0006:0000A7E8       __func__.47482
 0006:0000A7FC       __func__.47911
 0006:0000A80C       __func__.47462
 0006:0000A820       __func__.47598
 0006:0000A830       __func__.47496
 0006:0000A84C       __func__.47475
 0006:0000A864       __func__.47455
 0006:0000A87C       __func__.46289
 0006:0000A890       __func__.47418
 0006:0000A8A4       C.486.48157
 0006:0000A8A8       __func__.48147
 0006:0000A8C8       __func__.47568
 0006:0000A8E0       __func__.47705
 0006:0000A8F8       __func__.47821
 0006:0000A918       __func__.47465
 0006:0000A930       __func__.48066_0
 0006:0000A948       __func__.47494
 0006:0000A970       __func__.47866_0
 0006:0000A988       __func__.47941
 0006:0000A9A0       __func__.48016
 0006:0000A9B8       __func__.47842
 0006:0000A9D8       C.483.48112
 0006:0000A9DC       __func__.47448_0
 0006:0000A9F8       __func__.48061
 0006:0000AA10       __func__.47568_0
 0006:0000AA2C       __func__.46289_0
 0006:0000AA40       __func__.47629
 0006:0000AA58       __func__.47563
 0006:0000AA70       __func__.47700
 0006:0000AA88       __func__.47661
 0006:0000AAA8       __func__.47388
 0006:0000AABC       __func__.47315
 0006:0000AADC       __func__.47249
 0006:0000AAF4       C.449.47123
 0006:0000AAFC       __func__.47114
 0006:0000AB10       __func__.47145
 0006:0000AB24       __func__.47434
 0006:0000AB3C       __func__.47495_0
 0006:0000AB4C       __func__.47245
 0006:0000AB64       __func__.47392
 0006:0000AB7C       __func__.47391
 0006:0000AB94       __func__.48373_1
 0006:0000ABA8       __func__.48291_0
 0006:0000ABC4       __func__.47950
 0006:0000ABDC       __func__.47940_0
 0006:0000ABF8       __func__.46041
 0006:0000AC0C       __func__.47907
 0006:0000AC24       __func__.48233
 0006:0000AC3C       __func__.47970
 0006:0000AC50       __func__.47809
 0006:0000AC68       __func__.47751
 0006:0000AC88       __func__.47695
 0006:0000ACA4       __func__.47557
 0006:0000ACB4       __func__.49105
 0006:0000ACC4       __func__.48070_0
 0006:0000ACDC       __func__.46126
 0006:0000ACF0       __func__.48113
 0006:0000AD04       __func__.48203
 0006:0000AD14       __func__.48138
 0006:0000AD20       __func__.47961
 0006:0000AD38       __func__.47934
 0006:0000AD50       __func__.47898
 0006:0000AD68       __func__.47721
 0006:0000AD78       __func__.47987
 0006:0000AD90       __func__.48024
 0006:0000ADA8       __func__.47732_0
 0006:0000ADB8       __func__.47755_0
 0006:0000ADD4       __func__.48332
 0006:0000ADEC       __func__.48444
 0006:0000AE04       __func__.48512
 0006:0000AE1C       __func__.48608
 0006:0000AE38       __func__.48676_0
 0006:0000AE50       __func__.48275
 0006:0000AE68       __func__.48360
 0006:0000AE8C       __func__.48393
 0006:0000AEA4       __func__.48563
 0006:0000AEBC       __func__.48748
 0006:0000AED4       __func__.48815
 0006:0000AEF0       __func__.48856
 0006:0000AF0C       __func__.48866
 0006:0000AF28       __func__.48880
 0006:0000AF48       __func__.48905
 0006:0000AF68       __func__.48922
 0006:0000AF84       __func__.48949
 0006:0000AFA4       __func__.49005
 0006:0000AFBC       __func__.49038
 0006:0000AFD4       __func__.49063
 0006:0000AFEC       __func__.49507
 0006:0000B000       __func__.48113_0
 0006:0000B018       __func__.49307
 0006:0000B034       __func__.49266
 0006:0000B04C       __func__.48045
 0006:0000B068       __func__.49212
 0006:0000B080       __func__.49147
 0006:0000B098       __func__.49129
 0006:0000B0B0       __func__.48979
 0006:0000B0C8       __func__.49110
 0006:0000B0E0       __func__.48252
 0006:0000B0F8       __func__.47888
 0006:0000B110       __func__.48527
 0006:0000B130       __func__.48496
 0006:0000B14C       __func__.48440
 0006:0000B16C       __func__.48420
 0006:0000B184       __func__.48387
 0006:0000B1A4       __func__.48230
 0006:0000B1C0       __func__.48211
 0006:0000B1D8       __func__.48132
 0006:0000B1F0       __func__.48173_0
 0006:0000B20C       __func__.48063
 0006:0000B228       __func__.48016_0
 0006:0000B240       __func__.47955
 0006:0000B258       __func__.47925_0
 0006:0000B270       __func__.47863
 0006:0000B288       __func__.47751_0
 0006:0000B2A0       __func__.46139
 0006:0000B2B4       __func__.47723
 0006:0000B2CC       __func__.47689
 0006:0000B2E4       __func__.47638
 0006:0000B2FC       __func__.47606
 0006:0000B318       __func__.49461
 0006:0000B338       __func__.49174
 0006:0000B354       __func__.46126_0
 0006:0000B368       __func__.49089
 0006:0000B384       __func__.49012
 0006:0000B3A8       __func__.49036
 0006:0000B3C8       __func__.48949_0
 0006:0000B3E4       __func__.48907
 0006:0000B400       __func__.48871
 0006:0000B41C       __func__.48835
 0006:0000B434       __func__.48615
 0006:0000B450       __func__.49415
 0006:0000B46C       __func__.48565
 0006:0000B488       __func__.48654
 0006:0000B4AC       __func__.48779
 0006:0000B4C8       __func__.48700
 0006:0000B4E4       __func__.49363
 0006:0000B504       __func__.48342
 0006:0000B520       __func__.48287
 0006:0000B53C       __func__.47492
 0006:0000B554       __func__.47301
 0006:0000B56C       __func__.47236
 0006:0000B585       aDirect
 0006:0000B590       __func__.47180
 0006:0000B5A8       __func__.47438
 0006:0000B5CC       __func__.47300
 0006:0000B5E4       __func__.47675
 0006:0000B600       __func__.48000_0
 0006:0000B618       __func__.46139_0
 0006:0000B62C       __func__.48145
 0006:0000B644       __func__.48295
 0006:0000B660       __func__.48418
 0006:0000B67C       __func__.48537
 0006:0000B698       __func__.48593
 0006:0000B6B8       __func__.48687
 0006:0000B6D4       __func__.48881
 0006:0000B6F0       C.565.48924
 0006:0000B6F8       __func__.48962
 0006:0000B718       C.572.48989
 0006:0000B720       __func__.49114
 0006:0000B738       __func__.49408
 0006:0000B754       __func__.49283_1
 0006:0000B774       __func__.49026
 0006:0000B790       __func__.48940
 0006:0000B7B0       __func__.48853
 0006:0000B7D0       __func__.48781
 0006:0000B7F0       __func__.48746
 0006:0000B810       __func__.47754
 0006:0000B830       __func__.47709
 0006:0000B848       __func__.47729
 0006:0000B864       __func__.47692
 0006:0000B880       __func__.48112
 0006:0000B89C       __func__.48488
 0006:0000B8B8       __func__.49217
 0006:0000B8D0       __func__.49311
 0006:0000B8EC       __func__.49351
 0006:0000B90C       __func__.49378
 0006:0000B928       __func__.49436
 0006:0000B948       __func__.49455
 0006:0000B968       __func__.47318
 0006:0000B984       __func__.47293
 0006:0000B994       __func__.47168
 0006:0000B9AC       __func__.46320
 0006:0000B9C4       __func__.46225
 0006:0000B9E4       C.450.46276
 0006:0000B9EC       __func__.46275
 0006:0000BA08       __func__.47008
 0006:0000BA24       __func__.47106
 0006:0000BA44       __func__.46983
 0006:0000BA6C       __func__.46905
 0006:0000BA84       __func__.46041_0
 0006:0000BA98       __func__.47307
 0006:0000BAB0       __func__.47280
 0006:0000BAC8       __func__.47226_0
 0006:0000BADC       __func__.47186
 0006:0000BAF0       __func__.46996
 0006:0000BB08       __func__.48898_0
 0006:0000BB18       __func__.48825
 0006:0000BB28       __func__.48749
 0006:0000BB38       __func__.48690
 0006:0000BB50       __func__.48630
 0006:0000BB6C       __func__.48524
 0006:0000BB84       __func__.48186
 0006:0000BBB0       __func__.48353
 0006:0000BBCC       __func__.48000_1
 0006:0000BBE8       __func__.47917
 0006:0000BC04       __func__.47792_0
 0006:0000BC20       __func__.47591
 0006:0000BC3C       __func__.47472
 0006:0000BC58       __func__.47181
 0006:0000BC74       __func__.47248
 0006:0000BC90       __func__.47073
 0006:0000BCAC       __func__.46333
 0006:0000BCC4       __func__.46445
 0006:0000BCDC       __func__.46429
 0006:0000BCF4       __func__.46306_0
 0006:0000BD08       __func__.46466
 0006:0000BD20       beaconFilterTable
 0006:0000BD58       __func__.46410
 0006:0000BD6C       __func__.46386
 0006:0000BD7C       __func__.46285
 0006:0000BD94       __func__.46244
 0006:0000BDA4       __func__.46264
 0006:0000BDB8       __func__.47625
 0006:0000BDD0       __func__.47607
 0006:0000BDE8       __func__.47510
 0006:0000BDFC       __func__.47488
 0006:0000BE14       __func__.47207
 0006:0000BE24       __func__.47870
 0006:0000BE44       __func__.47821_0
 0006:0000BE58       __func__.47799
 0006:0000BE70       __func__.47749_0
 0006:0000BE84       __func__.47719
 0006:0000BE98       __func__.47695_0
 0006:0000BEAC       __func__.47680
 0006:0000BEC0       __func__.47387
 0006:0000BEDC       __func__.47350
 0006:0000BEF0       __func__.47835
 0006:0000BF08       __func__.47644
 0006:0000BF24       __func__.47574
 0006:0000BF40       __func__.47406
 0006:0000BF58       __func__.47544
 0006:0000BF6C       __func__.47458
 0006:0000BF84       __func__.47290
 0006:0000BF9C       __func__.47227
 0006:0000BFB8       __func__.46984
 0006:0000BFD0       __func__.47997
 0006:0000BFF0       __func__.47955_0
 0006:0000C00C       __func__.47944
 0006:0000C020       __func__.47910
 0006:0000C044       __func__.47875
 0006:0000C060       __func__.47832
 0006:0000C080       __func__.47277_0
 0006:0000C094       __func__.46997
 0006:0000C0AC       __func__.47097
 0006:0000C0C4       __func__.47523
 0006:0000C0DC       __func__.47753
 0006:0000C0F8       __func__.47342
 0006:0000C118       __func__.47707
 0006:0000C130       __func__.47642
 0006:0000C148       __func__.47411
 0006:0000C168       __func__.47538
 0006:0000C184       __func__.47434_0
 0006:0000C1B0       __func__.46058
 0006:0000C1C4       __func__.47863_0
 0006:0000C1DC       __func__.47852
 0006:0000C1F4       __func__.47841
 0006:0000C21C       __func__.47483
 0006:0000C22C       __func__.47829
 0006:0000C244       __func__.47816
 0006:0000C258       __func__.47755_1
 0006:0000C274       __func__.47725
 0006:0000C29C       __func__.47743
 0006:0000C2B8       __func__.47521
 0006:0000C2D4       __func__.47775
 0006:0000C2F8       __func__.47328
 0006:0000C308       CSWTCH.569_0
 0006:0000C320       abChannel
 0006:0000C338       __func__.50423
 0006:0000C350       __func__.50173
 0006:0000C368       __func__.48850
 0006:0000C380       __func__.48505
 0006:0000C394       __func__.48490
 0006:0000C3AC       __func__.47556
 0006:0000C3BC       __func__.50718
 0006:0000C3D4       __func__.47342_0
 0006:0000C3F4       __func__.47316
 0006:0000C40C       __func__.50546
 0006:0000C430       __func__.50503
 0006:0000C444       __func__.49459
 0006:0000C45C       __func__.50242
 0006:0000C478       __func__.50222
 0006:0000C494       __func__.50309
 0006:0000C4AC       __func__.50277
 0006:0000C4CC       __func__.50343
 0006:0000C4EC       __func__.48287_0
 0006:0000C50C       __func__.48353_0
 0006:0000C528       __func__.48302
 0006:0000C540       __func__.48437
 0006:0000C554       __func__.48389
 0006:0000C570       __func__.50136
 0006:0000C588       __func__.50107
 0006:0000C59C       __func__.50077
 0006:0000C5B0       __func__.49740
 0006:0000C5CC       __func__.50195
 0006:0000C5F0       __func__.48613
 0006:0000C608       __func__.50017
 0006:0000C61C       __func__.46139_1
 0006:0000C630       __func__.49994
 0006:0000C644       __func__.49935
 0006:0000C658       __func__.49763
 0006:0000C66C       __func__.49649
 0006:0000C680       __func__.49870
 0006:0000C694       __func__.49629
 0006:0000C6B0       __func__.49500
 0006:0000C6D8       __func__.48550
 0006:0000C6F0       __func__.48637
 0006:0000C718       __func__.48329
 0006:0000C730       __func__.48565_0
 0006:0000C754       __func__.48531
 0006:0000C76C       __func__.50646
 0006:0000C784       __func__.50627
 0006:0000C79C       __func__.48468
 0006:0000C7B0       __func__.48231
 0006:0000C7C8       __func__.48192_0
 0006:0000C7E8       __func__.47913
 0006:0000C800       __func__.47870_0
 0006:0000C818       __func__.47741
 0006:0000C830       __func__.47663
 0006:0000C84C       __func__.47584_0
 0006:0000C864       __func__.48722
 0006:0000C878       __func__.49261
 0006:0000C88C       C.463.47935
 0006:0000C9C0       __func__.47906
 0006:0000C9D4       __func__.48737
 0006:0000C9EC       CSWTCH.517
 0006:0000CA04       __func__.46041_1
 0006:0000CA18       __func__.48782_0
 0006:0000CA34       __func__.48623
 0006:0000CA50       __func__.48690_0
 0006:0000CA64       __func__.48661
 0006:0000CA78       C.450.47771
 0006:0000CA80       __func__.46477
 0006:0000CA90       __func__.46411
 0006:0000CAA0       __func__.46664
 0006:0000CABC       __func__.46645
 0006:0000CAD4       __func__.46744
 0006:0000CAEC       __func__.46722
 0006:0000CB00       __func__.46701
 0006:0000CB14       __func__.46508
 0006:0000CB20       __func__.46683
 0006:0000CB38       __func__.46448
 0006:0000CB50       __func__.46320_0
 0006:0000CB68       CSWTCH.478
 0006:0000CB70       __func__.46372_0
 0006:0000CB90       __func__.46396
 0006:0000CBA0       __func__.46588
 0006:0000CBB8       CSWTCH.475
 0006:0000CBC0       __func__.46277
 0006:0000CBD8       __func__.46300
 0006:0000CBEC       __func__.46234
 0006:0000CC00       __func__.46545
 0006:0000CC18       __func__.46885
 0006:0000CC34       __func__.46904
 0006:0000CC44       __func__.46866
 0006:0000CC5C       __func__.46825
 0006:0000CC6C       __func__.47939
 0006:0000CC80       __func__.47971
 0006:0000CC98       __func__.47915
 0006:0000CCB0       __func__.47890_0
 0006:0000CCC8       __func__.47835_0
 0006:0000CCE4       __func__.47338
 0006:0000CCF0       __func__.47709_0
 0006:0000CD0C       __func__.47761
 0006:0000CD20       __func__.47360
 0006:0000CD3C       __func__.47571
 0006:0000CD50       __func__.47424
 0006:0000CD68       __func__.47878_0
 0006:0000CD88       __func__.47401
 0006:0000CD9C       __func__.47373
 0006:0000CDB4       __func__.47314
 0006:0000CDC4       __func__.47305
 0006:0000CDE0       __func__.46843
 0006:0000CDFC       __func__.47056
 0006:0000CE0C       __func__.47129
 0006:0000CE24       __func__.47028_0
 0006:0000CE3C       __func__.46996_0
 0006:0000CE50       __func__.46961
 0006:0000CE70       __func__.46939
 0006:0000CE8C       __func__.46896
 0006:0000CEA8       __func__.46859_0
 0006:0000CEC4       __func__.47969
 0006:0000CEE8       __func__.47797
 0006:0000CF08       __func__.47762
 0006:0000CF28       __func__.47631
 0006:0000CF44       __func__.47600
 0006:0000CF64       __func__.47569
 0006:0000CF80       __func__.47541
 0006:0000CF9C       __func__.47955_1
 0006:0000CFB0       __func__.47807
 0006:0000CFCC       __func__.47555
 0006:0000CFE8       __func__.47788
 0006:0000CFFC       __func__.47775_0
 0006:0000D018       __func__.47748
 0006:0000D030       __func__.47227_0
 0006:0000D048       __func__.47824
 0006:0000D068       __func__.47617
 0006:0000D084       __func__.47205
 0006:0000D0A0       __func__.47670
 0006:0000D0B8       __func__.47646
 0006:0000D0D0       __func__.47261
 0006:0000D0E4       __func__.47695_1
 0006:0000D100       __func__.47582
 0006:0000D11C       __func__.47152
 0006:0000D138       __func__.47509
 0006:0000D154       __func__.47490_0
 0006:0000D164       __func__.47396
 0006:0000D184       __func__.47357
 0006:0000D19C       __func__.47328_0
 0006:0000D1B8       __func__.47177
 0006:0000D1CC       __func__.47131
 0006:0000D1E8       __func__.47438_0
 0006:0000D1FC       __func__.46529
 0006:0000D21C       __func__.46481
 0006:0000D230       __func__.46468
 0006:0000D244       __func__.47378_0
 0006:0000D258       __func__.47418_0
 0006:0000D270       __func__.47090
 0006:0000D280       P2pOui
 0006:0000D284       __func__.47156
 0006:0000D29C       __func__.47393_0
 0006:0000D2B0       __func__.47240
 0006:0000D2D0       __func__.46437
 0006:0000D2E8       C.471.46781
 0006:0000D2F8       __func__.46774
 0006:0000D30C       __func__.46692_0
 0006:0000D324       C.449.46552
 0006:0000D334       C.450.46553
 0006:0000D344       C.451.46554
 0006:0000D354       C.452.46555
 0006:0000D364       C.453.46556
 0006:0000D374       C.454.46557
 0006:0000D384       __func__.46533
 0006:0000D394       __func__.46671_0
 0006:0000D3A8       __func__.46601_0
 0006:0000D3C0       __func__.46450
 0006:0000D3D4       __func__.64041
 0006:0000D3F4       __func__.64021
 0006:0000D414       __func__.63254
 0006:0000D42C       __func__.62000
 0006:0000D448       __func__.63957
 0006:0000D464       __func__.63948
 0006:0000D490       __func__.63933
 0006:0000D4A8       __func__.63913
 0006:0000D4C0       __func__.63527
 0006:0000D4DC       __func__.63216
 0006:0000D4F4       __func__.62970
 0006:0000D510       __func__.62898
 0006:0000D528       __func__.62128
 0006:0000D538       __func__.62784
 0006:0000D54C       __func__.62873
 0006:0000D564       __func__.62326
 0006:0000D578       __func__.62747
 0006:0000D590       __func__.63385
 0006:0000D5A0       __func__.63271
 0006:0000D5B0       __func__.63864
 0006:0000D5C0       __func__.62517
 0006:0000D5D4       __func__.62185
 0006:0000D5E0       __func__.62921
 0006:0000D5F8       __func__.62419
 0006:0000D610       __func__.62571
 0006:0000D624       __func__.62302
 0006:0000D638       __func__.62280
 0006:0000D650       __func__.62226
 0006:0000D668       __func__.62199
 0006:0000D680       __func__.62142
 0006:0000D68C       __func__.62089
 0006:0000D698       __func__.63431
 0006:0000D6AC       __func__.63558
 0006:0000D6C0       __func__.63482
 0006:0000D6DC       __func__.63805
 0006:0000D6EC       __param_str_con_mode
 0006:0000D6F8       __func__.58075
 0006:0000D708       __func__.57894
 0006:0000D720       __func__.57711
 0006:0000D738       __func__.57662
 0006:0000D74C       __func__.58030
 0006:0000D758       __func__.57927
 0006:0000D764       __func__.61241
 0006:0000D770       __func__.61147
 0006:0000D77C       __func__.60953
 0006:0000D794       __func__.61324_0
 0006:0000D7A8       __func__.61111
 0006:0000D7B8       __func__.61294
 0006:0000D7CC       __func__.60807
 0006:0000D7F0       __func__.60766
 0006:0000D814       __func__.60752
 0006:0000D834       __func__.60852
 0006:0000D848       __func__.60927
 0006:0000D85C       __func__.61009
 0006:0000D870       __func__.60266
 0006:0000D888       __func__.60318
 0006:0000D89C       __func__.60135
 0006:0000D8BC       __func__.60060
 0006:0000D8D4       __func__.60286
 0006:0000D8EC       __func__.60097
 0006:0000D8FC       __func__.59998
 0006:0000D914       __func__.59982
 0006:0000D934       __func__.60682
 0006:0000D948       __func__.60447
 0006:0000D968       __func__.60542
 0006:0000D988       freq_chan_map
 0006:0000DAF0       __func__.65070
 0006:0000DB10       __func__.65055
 0006:0000DB2C       __func__.64999
 0006:0000DB44       __func__.64821
 0006:0000DB5C       __func__.63297
 0006:0000DB70       __func__.63305
 0006:0000DB84       __func__.63887
 0006:0000DB90       __func__.63879
 0006:0000DB9C       __func__.62736
 0006:0000DBA8       __func__.62669
 0006:0000DBB8       __func__.63892
 0006:0000DBCC       __func__.65568
 0006:0000DBE0       CSWTCH.737
 0006:0000DBE4       __func__.65216
 0006:0000DC00       __func__.65154
 0006:0000DC18       __func__.65307
 0006:0000DC2C       __func__.62914
 0006:0000DC3C       __func__.65028
 0006:0000DC4C       __func__.65084
 0006:0000DC60       __func__.64846
 0006:0000DC78       __func__.63177
 0006:0000DC88       __func__.64931
 0006:0000DCA0       __func__.64863
 0006:0000DCBC       __func__.63016
 0006:0000DCD4       __func__.64151
 0006:0000DCE4       __func__.62890
 0006:0000DCF4       __func__.63277
 0006:0000DD0C       __func__.63245
 0006:0000DD24       __func__.64564
 0006:0000DD38       __func__.64382
 0006:0000DD4C       __func__.64189
 0006:0000DD5C       __func__.62434
 0006:0000DD78       __func__.62414
 0006:0000DD94       __func__.64417
 0006:0000DDA8       __func__.64284
 0006:0000DDBC       __func__.63471
 0006:0000DDD8       __func__.62870
 0006:0000DDE8       __func__.63411
 0006:0000DE00       __func__.63448
 0006:0000DE1C       __func__.62487
 0006:0000DE2C       __func__.64006
 0006:0000DE40       __func__.63135
 0006:0000DE50       __func__.62477
 0006:0000DE64       __func__.63910
 0006:0000DE74       __func__.62954
 0006:0000DE84       __func__.63324
 0006:0000DE94       __func__.62770
 0006:0000DEA0       __func__.64222
 0006:0000DEAC       __func__.62677
 0006:0000DEB8       __func__.62692
 0006:0000DEC4       __func__.62839
 0006:0000DED0       __func__.65669
 0006:0000DEE4       we_handler_def
 0006:0000DEFC       __func__.64661
 0006:0000DF14       __func__.63649
 0006:0000DF2C       __func__.63627
 0006:0000DF44       __func__.63580
 0006:0000DF58       C.689.64072
 0006:0000DF60       __func__.64063
 0006:0000DF74       __func__.62582
 0006:0000DF88       __func__.62550
 0006:0000DF9C       __func__.62511
 0006:0000DFB0       __func__.63676
 0006:0000DFBC       __func__.63506
 0006:0000DFD0       __func__.63539
 0006:0000DFDC       we_handler
 0006:0000E0B8       we_private
 0006:0000E12C       we_private_args
 0006:0000E66C       __param_str_ioctl_debug
 0006:0000E678       __func__.58506
 0006:0000E688       __func__.58825
 0006:0000E69C       __func__.58790
 0006:0000E6B4       __func__.42596
 0006:0000E6C8       __func__.58597
 0006:0000E6DC       __func__.58639
 0006:0000E6F4       hddWmmAcToHighestUp
 0006:0000E6F8       C.538.33095
 0006:0000E700       hdd_QdiscAcToTlAC
 0006:0000E704       __func__.58435
 0006:0000E718       __func__.58350
 0006:0000E730       __func__.58296
 0006:0000E744       __func__.58257
 0006:0000E75C       __func__.60549
 0006:0000E77C       __func__.60539
 0006:0000E794       __func__.61239
 0006:0000E7AC       __func__.61235
 0006:0000E7C4       __func__.61227
 0006:0000E7E4       __func__.61045
 0006:0000E808       __func__.61247
 0006:0000E81C       __func__.61027
 0006:0000E83C       __func__.61339
 0006:0000E850       __func__.61116
 0006:0000E860       __func__.60862
 0006:0000E87C       __func__.61000
 0006:0000E894       __func__.60802
 0006:0000E8AC       __func__.61065
 0006:0000E8BC       __func__.60915
 0006:0000E8D0       __func__.60942
 0006:0000E8E4       __func__.60882
 0006:0000E8FC       __func__.60745
 0006:0000E910       __func__.60558
 0006:0000E924       __func__.60675
 0006:0000E93C       __func__.60594
 0006:0000E950       __func__.59650
 0006:0000E960       acmMaskBit
 0006:0000E964       __func__.59327
 0006:0000E974       __func__.59836
 0006:0000E984       __func__.58972
 0006:0000E9A0       __func__.58990
 0006:0000E9B8       __func__.59794
 0006:0000E9C8       __func__.59352
 0006:0000E9E0       hddWmmUpToAcMap
 0006:0000E9E8       hddLinuxUpToAcMap
 0006:0000E9F0       __func__.59719
 0006:0000EA00       __func__.59007
 0006:0000EA14       __func__.58922
 0006:0000EA2C       __func__.59075
 0006:0000EA44       __func__.59571
 0006:0000EA54       __func__.59539
 0006:0000EA6C       __func__.59217
 0006:0000EA84       __func__.59487
 0006:0000EAA0       __func__.59338
 0006:0000EAB8       CSWTCH.602
 0006:0000EAD8       __func__.58554
 0006:0000EAEC       __func__.57712
 0006:0000EB04       __func__.58100
 0006:0000EB18       __func__.57639
 0006:0000EB2C       __func__.57677
 0006:0000EB40       __func__.57644
 0006:0000EB54       __func__.59243
 0006:0000EB70       __func__.59127
 0006:0000EB94       __func__.59163
 0006:0000EBB0       __func__.59556
 0006:0000EBC4       __func__.60945
 0006:0000EBE0       freq_chan_tbl
 0006:0000EC18       __func__.60987
 0006:0000EC34       __func__.61120
 0006:0000EC54       __func__.61026
 0006:0000EC74       C.685.61188
 0006:0000EC7C       __func__.61187
 0006:0000EC9C       __func__.61081
 0006:0000ECB8       C.589.59885
 0006:0000ECD0       C.590.59886
 0006:0000ECE0       C.591.59887
 0006:0000ECE8       __func__.59881
 0006:0000ED04       __func__.61151
 0006:0000ED20       __func__.61305
 0006:0000ED38       __func__.61231
 0006:0000ED58       __func__.60784
 0006:0000ED74       rate_index_2_preamble_table
 0006:0000EDF0       __func__.60181
 0006:0000EE00       __func__.61468
 0006:0000EE14       __func__.61515
 0006:0000EE2C       __func__.61575
 0006:0000EE44       __func__.60065
 0006:0000EE58       __func__.59696
 0006:0000EE6C       __func__.59992
 0006:0000EE80       __func__.59570
 0006:0000EE94       we_ftm_handler_def
 0006:0000EEAC       C.567.59547
 0006:0000EEB4       C.568.59548
 0006:0000EEBC       C.569.59549
 0006:0000EEC4       __func__.59945
 0006:0000EED8       __func__.60123
 0006:0000EEEC       __func__.60677
 0006:0000EF0C       __func__.61336
 0006:0000EF24       __func__.60816
 0006:0000EF48       __func__.59785
 0006:0000EF60       __func__.59801
 0006:0000EF7C       __func__.59817
 0006:0000EF98       __func__.60711
 0006:0000EFB4       __func__.60744
 0006:0000EFD0       __func__.60912
 0006:0000EFEC       __func__.60875
 0006:0000F004       __func__.59838
 0006:0000F020       __func__.60588
 0006:0000F03C       we_ftm_private
 0006:0000F05C       we_ftm_private_args
 0006:0000F2FC       __func__.61287
 0006:0000F318       __func__.60999
 0006:0000F330       __func__.60295
 0006:0000F34C       __func__.61336_0
 0006:0000F368       __func__.61726
 0006:0000F37C       __func__.61539
 0006:0000F394       __func__.61311
 0006:0000F3A4       __func__.61369
 0006:0000F3B8       __func__.60875_0
 0006:0000F3CC       __func__.60842
 0006:0000F3E0       C.639.61413
 0006:0000F3E8       __func__.61399
 0006:0000F3FC       __func__.61775
 0006:0000F40C       __func__.61502
 0006:0000F41C       __func__.60266_0
 0006:0000F430       __func__.61896
 0006:0000F448       __func__.61873
 0006:0000F460       __func__.61814
 0006:0000F474       hostapd_handler_def
 0006:0000F48C       __func__.60900
 0006:0000F4A4       __func__.60770
 0006:0000F4B8       __func__.61099
 0006:0000F4CC       __func__.60307
 0006:0000F4EC       __func__.60260
 0006:0000F500       __func__.60356
 0006:0000F518       message.60402
 0006:0000F51C       __func__.60255
 0006:0000F530       hostapd_handler
 0006:0000F60C       hostapd_private
 0006:0000F658       hostapd_private_args
 0006:0000F8B0       __func__.58362
 0006:0000F8C8       __func__.58963
 0006:0000F8E4       __func__.58526
 0006:0000F900       __func__.58685
 0006:0000F920       __func__.58566
 0006:0000F940       C.538.33095_0
 0006:0000F948       __func__.58482
 0006:0000F964       __func__.58938
 0006:0000F978       __func__.58454
 0006:0000F994       C.647.58923
 0006:0000F99C       C.608.58387
 0006:0000F9A0       __func__.58302
 0006:0000F9BC       __func__.58727
 0006:0000F9D8       __func__.58204
 0006:0000F9F4       pm_ops
 0006:0000FA38       __func__.57934
 0006:0000FA4C       __func__.57907
 0006:0000FA58       __func__.57919
 0006:0000FA6C       __func__.57869
 0006:0000FA7C       __func__.67794
 0006:0000FA90       __func__.68300
 0006:0000FAA4       __func__.69029
 0006:0000FAB0       __func__.69062
 0006:0000FABC       __func__.69076
 0006:0000FAC8       __func__.68879
 0006:0000FADC       __func__.68357
 0006:0000FAF4       __func__.67842
 0006:0000FB04       __func__.68445
 0006:0000FB1C       __func__.69126
 0006:0000FB2C       __func__.67735
 0006:0000FB40       __func__.67664
 0006:0000FB50       __func__.67586
 0006:0000FB68       __func__.68990
 0006:0000FB74       __func__.68263
 0006:0000FB8C       __func__.61353
 0006:0000FBAC       __func__.60306
 0006:0000FBCC       __func__.61391
 0006:0000FBF0       __func__.61513
 0006:0000FC10       __func__.61326
 0006:0000FC30       __func__.61339_0
 0006:0000FC48       __func__.60669
 0006:0000FC64       __func__.61767
 0006:0000FC84       __func__.61235_0
 0006:0000FCA4       __func__.61597
 0006:0000FCC0       __func__.61098
 0006:0000FCD8       __func__.60974
 0006:0000FCF8       __func__.60847
 0006:0000FD18       __func__.60908
 0006:0000FD3C       __func__.61036
 0006:0000FD5C       __func__.61003
 0006:0000FD7C       __func__.60780
 0006:0000FD9C       __func__.61707
 0006:0000FDB8       __func__.61677
 0006:0000FDDC       __func__.60335
 0006:0000FDFC       __func__.60721
 0006:0000FE20       __func__.59663
 0006:0000FE40       wlan_hdd_txrx_stypes
 0006:0000FE68       hdd_cipher_suites
 0006:0000FE7C       __func__.59624
 0006:0000FE98       __func__.59597
 0006:0000FEB0       __func__.61931
 0006:0000FED4       __func__.61868
 0006:0000FEF4       __func__.61855
 0006:0000FF14       __func__.61786
 0006:0000FF38       __func__.61636
 0006:0000FF58       CSWTCH.698
 0006:0000FF8C       __func__.61888
 0006:0000FFAC       __func__.60445
 0006:0000FFC4       __func__.60250
 0006:0000FFE4       __func__.60012
 0006:00010010       C.606.59793
 0006:00010018       __func__.59871
 0006:00010038       __func__.60224
 0006:00010058       __func__.60198
 0006:00010078       C.642.60520
 0006:00010080       __func__.60504
 0006:0001009C       __func__.60464
 0006:000100C4       __func__.58616
 0006:000100DC       __func__.58576
 0006:00010100       __func__.58560
 0006:0001011C       __func__.58546
 0006:00010138       CSWTCH.612
 0006:00010140       __func__.58476
 0006:00010154       __func__.58672
 0006:0001016C       __func__.58221
 0006:00010190       __func__.58350_0
 0006:000101A0       __func__.58306
 0006:000101CC       __func__.58282
 0006:000101E8       __func__.58177
 0006:0001020C       __func__.57631
 0006:00010228       __func__.57695
 0006:00010240       __func__.57824
 0006:00010258       __func__.57715
 0006:0001026C       __func__.57747
 0006:00010280       __func__.52981
 0006:0001029C       __func__.52213
 0006:000102C0       __func__.52185
 0006:000102E0       __func__.49444
 0006:00010300       __func__.49413
 0006:00010320       __func__.55540
 0006:00010348       __func__.55325
 0006:00010370       __func__.55239
 0006:00010394       __func__.54994
 0006:000103B0       __func__.54970
 0006:000103D0       __func__.54949
 0006:000103E8       __func__.54928
 0006:00010400       __func__.54041
 0006:00010420       __func__.53818
 0006:0001043C       __func__.53505
 0006:0001045C       __func__.53432
 0006:0001047C       __func__.53338
 0006:00010498       __func__.53278
 0006:000104B4       __func__.53214
 0006:000104D8       __func__.53158
 0006:000104F8       __func__.53083
 0006:00010518       __func__.53008
 0006:00010538       __func__.52917
 0006:00010558       __func__.52864
 0006:0001057C       __func__.52799
 0006:0001059C       __func__.52677
 0006:000105BC       __func__.52241
 0006:000105E0       __func__.52113
 0006:00010600       __func__.52057
 0006:00010618       __func__.51592
 0006:00010634       __func__.50863
 0006:0001064C       __func__.55694
 0006:0001065C       __func__.55618
 0006:0001067C       __func__.55163
 0006:00010698       __func__.55105
 0006:000106B4       __func__.55021
 0006:000106D4       __func__.53739
 0006:000106EC       __func__.51856
 0006:00010700       __func__.51881
 0006:00010718       __func__.54737
 0006:0001072C       __func__.54112
 0006:00010744       __func__.53673
 0006:00010760       __func__.49215
 0006:00010774       __func__.54218
 0006:00010784       __func__.54181
 0006:00010794       __func__.54147
 0006:000107A8       __func__.54065
 0006:000107C8       __func__.53990
 0006:000107E8       __func__.53881
 0006:00010804       __func__.53838
 0006:00010820       __func__.53773
 0006:00010838       __func__.53684
 0006:00010850       __func__.53648
 0006:00010868       __func__.53591
 0006:00010880       __func__.53525
 0006:0001089C       __func__.53452
 0006:000108B8       __func__.53347
 0006:000108D0       __func__.53287
 0006:000108EC       __func__.53235
 0006:00010908       __func__.53166
 0006:00010920       __func__.53106
 0006:00010938       __func__.53031
 0006:00010954       __func__.52988
 0006:00010970       __func__.52939
 0006:00010994       __func__.52872
 0006:000109B0       __func__.52810
 0006:000109C8       __func__.52708
 0006:000109E4       __func__.52660
 0006:000109FC       __func__.52605
 0006:00010A18       __func__.52539
 0006:00010A30       __func__.52458
 0006:00010A48       __func__.52419
 0006:00010A60       __func__.52396
 0006:00010A78       __func__.52315
 0006:00010A90       __func__.52250
 0006:00010AAC       __func__.52220_0
 0006:00010AD0       __func__.52192
 0006:00010AE8       __func__.52133
 0006:00010B08       __func__.52067
 0006:00010B1C       __func__.51909
 0006:00010B30       __func__.51797
 0006:00010B4C       __func__.51612
 0006:00010B6C       __func__.51469
 0006:00010B84       __func__.50881
 0006:00010B94       __func__.50958
 0006:00010BAC       __func__.48967
 0006:00010BC4       __func__.50666
 0006:00010BD0       __func__.55458
 0006:00010BF0       __func__.54671
 0006:00010C0C       __func__.54520
 0006:00010C24       __func__.53642
 0006:00010C3C       __func__.53569
 0006:00010C58       __func__.52654
 0006:00010C74       __func__.52583
 0006:00010C90       __func__.52517
 0006:00010CA8       __func__.52437
 0006:00010CC4       __func__.52413
 0006:00010CDC       __func__.52390_0
 0006:00010CF8       __func__.52300
 0006:00010D14       __func__.51987
 0006:00010D28       __func__.51965
 0006:00010D40       __func__.51690
 0006:00010D54       __func__.51735
 0006:00010D70       __func__.51665
 0006:00010D88       __func__.51560
 0006:00010DA0       __func__.51526
 0006:00010DC0       __func__.51435
 0006:00010DDC       __func__.51367
 0006:00010DF8       __func__.51345
 0006:00010E14       __func__.51282
 0006:00010E34       __func__.51259
 0006:00010E54       __func__.51183
 0006:00010E6C       __func__.51160
 0006:00010E88       __func__.51113
 0006:00010EA4       __func__.51091
 0006:00010EC0       __func__.51023
 0006:00010ED8       __func__.51000
 0006:00010EF4       __func__.50597
 0006:00010F10       __func__.50528
 0006:00010F2C       __func__.50456
 0006:00010F44       __func__.50378
 0006:00010F5C       __func__.50297
 0006:00010F74       __func__.50169
 0006:00010F90       __func__.50100
 0006:00010FB0       __func__.50026
 0006:00010FC4       __func__.49853
 0006:00010FDC       __func__.49767
 0006:00010FF8       __func__.50620
 0006:00011014       __func__.50553
 0006:00011030       __func__.50484
 0006:00011048       __func__.50413
 0006:00011060       __func__.50333
 0006:00011078       __func__.50254
 0006:00011090       __func__.50123
 0006:000110AC       __func__.50050
 0006:000110C0       __func__.49965
 0006:000110DC       __func__.49885
 0006:000110F4       __func__.49810_0
 0006:0001110C       __func__.49640
 0006:00011120       __func__.53913
 0006:00011140       __func__.49929
 0006:0001115C       __func__.49652
 0006:00011174       __func__.49588
 0006:00011190       __func__.49616
 0006:000111A4       __func__.49690
 0006:000111BC       __func__.49546
 0006:000111CC       __func__.54316
 0006:000111E0       __func__.55260
 0006:00011200       __func__.55347
 0006:00011228       __func__.55487
 0006:00011250       __func__.55560
 0006:00011278       __func__.55678
 0006:00011290       __func__.49509
 0006:000112AC       __func__.49476
 0006:000112C8       __func__.48885
 0006:000112E0       __func__.49309
 0006:000112EC       __func__.49241
 0006:000112F8       __func__.48918_0
 0006:00011304       __func__.54852
 0006:00011314       __func__.44676
 0006:00011324       __func__.44538
 0006:00011340       __func__.45552_0
 0006:00011358       __func__.45522
 0006:00011368       nvDefaults
 0006:0001828C       __func__.27157
 0006:000182A0       __func__.27221
 0006:000182B4       __func__.26965
 0006:000182C8       __func__.27126
 0006:000182DC       __func__.27185
 0006:000182F8       __func__.27065
 0006:00018310       __func__.27038
 0006:00018324       __func__.27012
 0006:0001833C       __func__.26985
 0006:00018354       __func__.15257
 0006:00018364       __func__.15427
 0006:00018374       __func__.15358
 0006:00018384       __func__.15286
 0006:00018394       __func__.15269
 0006:000183A4       __func__.15017
 0006:000183B0       TRACE_LEVEL_STR
 0006:000183D0       __func__.27936
 0006:000183E8       __func__.27868
 0006:00018400       __func__.27821
 0006:0001840C       __func__.15281
 0006:0001841C       __func__.15267
 0006:0001842C       __func__.15253
 0006:0001843C       __func__.58204_0
 0006:0001844C       __func__.58071
 0006:00018460       __func__.58045
 0006:00018474       __func__.57952
 0006:0001848C       __func__.58183
 0006:0001849C       __func__.58145
 0006:000184AC       __func__.58122
 0006:000184C4       __func__.58102
 0006:000184DC       __func__.58033
 0006:000184F4       __func__.57972
 0006:0001850C       __func__.57995
 0006:00018520       __func__.43188
 0006:00018538       __func__.38175
 0006:0001854C       __func__.33837
 0006:0001855C       __func__.43163
 0006:0001857C       CSWTCH.988
 0006:000185FC       __func__.43067
 0006:00018624       __func__.43039
 0006:00018644       __func__.43011
 0006:0001866C       __func__.42983
 0006:0001868C       __func__.42586
 0006:000186A8       __func__.42558
 0006:000186CC       __func__.41291
 0006:000186E4       __func__.41275
 0006:00018700       __func__.41254
 0006:00018720       CSWTCH.982
 0006:00018844       CSWTCH.979
 0006:00018970       __func__.40375
 0006:0001898C       __func__.40313
 0006:000189A8       __func__.40285
 0006:000189C4       __func__.40226
 0006:000189E4       __func__.40105
 0006:00018A10       __func__.40077
 0006:00018A28       __func__.40049
 0006:00018A40       __func__.40021
 0006:00018A5C       __func__.39993
 0006:00018A78       __func__.39965
 0006:00018A90       __func__.39937
 0006:00018AAC       __func__.39909
 0006:00018ACC       __func__.39881
 0006:00018AEC       __func__.39853
 0006:00018B0C       __func__.39825
 0006:00018B30       __func__.39797
 0006:00018B50       __func__.39769
 0006:00018B70       __func__.39739
 0006:00018B88       __func__.39707
 0006:00018BA4       __func__.39651
 0006:00018BBC       __func__.39595
 0006:00018BD4       __func__.39357
 0006:00018BEC       __func__.38892
 0006:00018C00       __func__.38825
 0006:00018C20       __func__.38797
 0006:00018C38       __func__.38769
 0006:00018C50       __func__.38673
 0006:00018C6C       CSWTCH.985
 0006:00018CF0       __func__.38641
 0006:00018D08       __func__.38609
 0006:00018D24       __func__.38577
 0006:00018D3C       __func__.42615
 0006:00018D5C       __func__.40576
 0006:00018D78       __func__.40494
 0006:00018D94       __func__.40468
 0006:00018DB0       __func__.40432
 0006:00018DC4       __func__.40402
 0006:00018DDC       __func__.40340
 0006:00018DF8       __func__.40253
 0006:00018E10       __func__.40198
 0006:00018E2C       __func__.40170
 0006:00018E48       __func__.39567
 0006:00018E60       __func__.39539
 0006:00018E88       __func__.39511
 0006:00018EA8       __func__.39483
 0006:00018ECC       __func__.39385
 0006:00018EE0       __func__.39158
 0006:00018EFC       __func__.38950
 0006:00018F18       __func__.38922
 0006:00018F30       __func__.38853
 0006:00018F4C       __func__.38737
 0006:00018F6C       __func__.38705
 0006:00018F8C       __func__.38307
 0006:00018FA8       __func__.38275
 0006:00018FC0       __func__.38233
 0006:00018FD8       __func__.40797
 0006:00018FF0       CSWTCH.991
 0006:00019120       __func__.42275
 0006:00019140       __func__.42190
 0006:00019160       __func__.42523
 0006:00019180       __func__.40662
 0006:0001919C       __func__.39421
 0006:000191B4       __func__.39308
 0006:000191CC       __func__.39065
 0006:000191EC       C.923.41350
 0006:000191F4       __func__.41349
 0006:00019210       __func__.38979
 0006:0001922C       __func__.41323
 0006:00019240       __func__.41232
 0006:00019258       __func__.39190
 0006:00019270       __func__.41150
 0006:00019288       __func__.41103
 0006:000192A0       __func__.41030
 0006:000192BC       __func__.40908
 0006:000192D0       __func__.40997
 0006:000192E8       __func__.40874
 0006:000192FC       __func__.39261
 0006:00019318       __func__.38484
 0006:00019330       __func__.38392
 0006:00019348       __func__.38344
 0006:0001935C       __func__.38133
 0006:00019370       wdiMainFSM
 0006:000193E8       __func__.42683
 0006:00019408       __func__.42671
 0006:00019420       __func__.42656
 0006:00019440       __func__.42644
 0006:0001945C       __func__.40954
 0006:00019470       __func__.40133
 0006:0001948C       __func__.36062
 0006:000194A8       __func__.43109
 0006:000194C8       __func__.42933
 0006:000194F0       __func__.42887
 0006:00019510       __func__.42764
 0006:00019538       __func__.42700
 0006:00019558       __func__.42463
 0006:00019578       __func__.42411
 0006:00019594       __func__.42359
 0006:000195B8       __func__.41377
 0006:000195CC       __func__.36771
 0006:000195E8       __func__.40609
 0006:00019604       __func__.40541
 0006:00019620       __func__.37886
 0006:0001964C       __func__.37844
 0006:00019664       __func__.37786
 0006:0001967C       __func__.37734
 0006:00019698       __func__.37675
 0006:000196B4       __func__.37616
 0006:000196CC       __func__.37557
 0006:000196E8       __func__.37496
 0006:00019708       __func__.37444
 0006:00019728       __func__.37385
 0006:00019748       __func__.37333
 0006:0001976C       __func__.37281
 0006:0001978C       __func__.37225
 0006:000197AC       __func__.37183
 0006:000197C4       __func__.37126
 0006:000197E0       __func__.37074
 0006:000197F8       __func__.36954
 0006:00019810       __func__.36810
 0006:00019828       __func__.36720
 0006:00019850       __func__.36664
 0006:00019870       __func__.36601
 0006:00019894       __func__.36386
 0006:000198AC       __func__.36250
 0006:000198C8       CSWTCH.1030
 0006:00019904       __func__.36118
 0006:00019920       __func__.36007
 0006:00019940       __func__.35955
 0006:0001995C       __func__.35882
 0006:0001997C       __func__.35826
 0006:00019998       __func__.35773_0
 0006:000199B4       __func__.35720_0
 0006:000199D0       __func__.35668
 0006:000199E8       __func__.35459
 0006:00019A08       __func__.35395
 0006:00019A20       __func__.34904
 0006:00019A3C       CSWTCH.1024
 0006:00019A58       CSWTCH.1027
 0006:00019A60       __func__.34823
 0006:00019A78       __func__.34595
 0006:00019A90       __func__.34522
 0006:00019AA8       CSWTCH.1009
 0006:00019AC0       CSWTCH.1012
 0006:00019AD0       CSWTCH.1018
 0006:00019AE0       CSWTCH.1021
 0006:00019AF0       __func__.34434
 0006:00019B10       CSWTCH.1006
 0006:00019B20       __func__.34484
 0006:00019B34       __func__.34309
 0006:00019B4C       __func__.34257
 0006:00019B64       __func__.34171
 0006:00019B7C       CSWTCH.1003
 0006:00019B8C       __func__.34004
 0006:00019BA0       CSWTCH.997
 0006:00019BAC       __func__.40732
 0006:00019BBC       CSWTCH.994
 0006:00019E58       __func__.40702
 0006:00019E6C       __func__.36865
 0006:00019E80       __func__.39679
 0006:00019E98       __func__.39623
 0006:00019EB0       __func__.38192
 0006:00019EC8       __func__.34362
 0006:00019EE4       CSWTCH.1015
 0006:00019EF4       __func__.36175
 0006:00019F0C       __func__.34666
 0006:00019F24       __func__.39017
 0006:00019F40       __func__.38538
 0006:00019F58       __func__.38448
 0006:00019F70       __func__.38073
 0006:00019F84       __func__.38036
 0006:00019F9C       __func__.37943
 0006:00019FB8       __func__.36521
 0006:00019FD0       __func__.36448
 0006:00019FE4       __func__.36321
 0006:00019FFC       __func__.35602
 0006:0001A010       __func__.35526
 0006:0001A02C       __func__.35301
 0006:0001A044       __func__.35228
 0006:0001A064       __func__.35139
 0006:0001A084       __func__.35065
 0006:0001A0A0       __func__.34976
 0006:0001A0B8       __func__.34755
 0006:0001A0D0       __func__.36996
 0006:0001A0E8       __func__.36891
 0006:0001A100       __func__.34066
 0006:0001A114       CSWTCH.1000
 0006:0001A120       __func__.34140
 0006:0001A134       __func__.33022
 0006:0001A144       __func__.32923
 0006:0001A150       __func__.32770
 0006:0001A15C       szTransportChName
 0006:0001A168       btqmQosTid2QidMapping
 0006:0001A170       __func__.31303
 0006:0001A180       __func__.31194
 0006:0001A194       __func__.31259
 0006:0001A1A8       __func__.31479
 0006:0001A1BC       __func__.31450
 0006:0001A1D0       __func__.31393
 0006:0001A1E4       __func__.31367
 0006:0001A1F8       __func__.31269
 0006:0001A210       __func__.17038
 0006:0001A224       channelType
 0006:0001A234       __func__.16884
 0006:0001A250       __func__.16112
 0006:0001A268       __func__.16278
 0006:0001A278       __func__.17090
 0006:0001A290       __func__.17077
 0006:0001A2B8       __func__.16043
 0006:0001A2C8       __func__.17015
 0006:0001A2D8       __func__.16996
 0006:0001A2E8       __func__.16017
 0006:0001A2F8       __func__.17047
 0006:0001A320       __func__.16072
 0006:0001A334       __func__.16621
 0006:0001A344       __func__.16764
 0006:0001A35C       __func__.16685
 0006:0001A370       __func__.16945
 0006:0001A380       __func__.16500
 0006:0001A390       __func__.16171
 0006:0001A3AC       __func__.16902
 0006:0001A3BC       __func__.15930
 0006:0001A3D0       __func__.15902
 0006:0001A3E4       __func__.15833
 0006:0001A3F8       __func__.15940
 0006:0001A410       __func__.15997
 0006:0001A420       __func__.16441
 0006:0001A444       __func__.16243
 0006:0001A454       __func__.16334
 0006:0001A468       __func__.16458
 0006:0001A474       __func__.16778
 0006:0001A480       __func__.16813
 0006:0001A490       __func__.15781
 0007:00000000       aNullPtrPassedI
 0007:00000018       aNullEventPasse
 0007:00000032       a4WlanVosAssert
 0007:00000055       aHomeAaProjectJ
 0007:000000E2       aUninitializedE
 0007:00000105       aSCannotBeCalle
 0007:00000133       aInitializedEve
 0007:00000154       aWlanPrimaWcnss
 0007:0000017B       aWlanPrimaWcn_0
 0007:0000019B       aInvalidBinaryi
 0007:000001AC       aWlanPrimaWcn_1
 0007:000001C5       aSVos_openFaile
 0007:000001DB       aSNullPointerPa
 0007:000001F6       aSListNotInitia
 0007:0000020F       aSUnableToLockL
 0007:00000227       aSListEmpty
 0007:00000236       aSListLengthNot
 0007:00000258       aSAlreadyInitia
 0007:00000275       aPlistLock
 0007:00000282       aSNullPointer_0
 0007:0000029D       aSUninitialized
 0007:000002B4       aSLockIsNotRele
 0007:000002CD       aSCurrentTaskPi
 0007:00000305       aSCannotBeCal_0
 0007:00000333       aSAlreadyInit_0
 0007:00000350       aLockM_lock
 0007:0000035E       aSCannotBeCal_1
 0007:0000038C       aSCalledWithArg
 0007:000003BA       aSCalledWithNul
 0007:000003D8       aSCalledWithN_0
 0007:000003FA       aSNullPointer_1
 0007:00000412       aSVosMessageQue
 0007:00000431       aVos_nv_getchan
 0007:00000463       aVosSetRegDomai
 0007:00000490       aVos_nv_getvali
 0007:000004B6       aInsufficientMe
 0007:000004E2       aVos_nv_setvali
 0007:00000508       aBufferProvided
 0007:00000522       aNvTypeDIsInval
 0007:0000053A       aNvTypeDDoesNot
 0007:00000560       aTypeDBufferSiz
 0007:00000595       aFailToGetMacAd
 0007:000005E1       aVos_nv_write_t
 0007:00000601       aVos_nv_setva_0
 0007:00000620       aInvalidParamet
 0007:00000660       aVos_nv_readmul
 0007:0000068D       aInvalidRegDoma
 0007:000006AA       aCountryCodeArr
 0007:000006C7       aRegDomainTable
 0007:000006E3       aCountryCodeIsN
 0007:000006FF       aWlanPrimaWcn_2
 0007:00000721       aSVos_openFai_0
 0007:00000737       aSUnableToDownl
 0007:00000759       aSFailedToAlloc
 0007:0000077F       aVpktDNullPoint
 0007:00000797       aVpktDInvalidMa
 0007:000007B0       aVpktDNullSkb
 0007:000007C4       aVpktDPopExceed
 0007:000007F9       aVpktDInvalidNu
 0007:00000815       aVpktDPacketOve
 0007:0000084A       aVpktDInvalidUs
 0007:0000086A       aUnknown
 0007:00000872       aVpktDInvalidPa
 0007:00000898       aVpktDPacketPre
 0007:000008BE       aVpktDNullPppac
 0007:000008D7       aVpktDInvalidPk
 0007:000008F2       aVpktDLowResour
 0007:00000925       aVpktDLowReso_0
 0007:00000960       aVpktDLowReso_1
 0007:0000098E       aTx_802_3_data
 0007:0000099C       aVpktDPPacketAl
 0007:000009C6       aFailedToAcquir
 0007:000009EF       aVpktDPacketRep
 0007:00000A15       aVpktDPPacketRe
 0007:00000A38       aVpktDPPacket_0
 0007:00000A62       aVpktDRecycleP
 0007:00000A78       aVpktDPPacket_1
 0007:00000AA5       aVpktDPPacket_2
 0007:00000AD2       aVpktDInvalid_0
 0007:00000AF4       aVpktDInvalidDa
 0007:00000B14       aVpktDLowReso_2
 0007:00000B4D       aVpktDPPacket_3
 0007:00000B7B       aVpktDUnableToG
 0007:00000BA8       aVpktDRequestOv
 0007:00000BEF       aVpktDInsuffici
 0007:00000C2C       aVpktDTrimExcee
 0007:00000C62       aVpktDInsuffi_0
 0007:00000CA0       aVpktDFailedToR
 0007:00000CC6       a4WlanVosAsse_0
 0007:00000CE9       aHomeAaProjec_0
 0007:00000D77       aVpktDNullPlist
 0007:00000D8D       aEnterS
 0007:00000D96       aVpktDNullPvosc
 0007:00000DB2       aVpktDInvalidPv
 0007:00000DD1       aVpktDNullPvosp
 0007:00000DF3       aVpktDInvalidVo
 0007:00000E25       aVpktDPacketIni
 0007:00000E44       aGpvospacketcon
 0007:00000E5F       aTx_802_11_mgmt
 0007:00000E6E       aTx_802_11_data
 0007:00000E7D       aRx_raw
 0007:00000E84       aEnable
 0007:00000E8B       aDisable
 0007:00000E93       aForceXoCoreSCa
 0007:00000ED8       aXoCoreOnVoteSS
 0007:00000EF9       aSCannotBeCal_2
 0007:00000F27       a4WlanVosAsse_1
 0007:00000F4A       aHomeAaProjec_1
 0007:00000FD7       aSTimerAddrInsi
 0007:00000FFE       aSNullTimerPoin
 0007:00001021       aSCannotStopUni
 0007:00001045       aSCannotStopTim
 0007:00001069       aSNullTimerPo_0
 0007:0000108D       aSCannotDestroy
 0007:000010B4       aSCannotDestr_0
 0007:000010DB       aTimerAddrInsid
 0007:00001100       aSCannotStartUn
 0007:00001125       aSCannotStartAT
 0007:0000115E       aSCannotStartTi
 0007:00001184       aSNullParamsBei
 0007:000011A1       aSNullPointer_2
 0007:000011BC       aTimerCallbackC
 0007:000011E6       aTimerCallbackR
 0007:0000120B       aTimerCallbac_0
 0007:00001230       aTimerCallbac_1
 0007:00001255       aSCouldNotEnque
 0007:0000127E       aInitializingTh
 0007:000012A1       a6Wlan1Fatal2Er
 0007:000012F1       aX
 0007:000012F3       a6Wlan2dSSSSSS
 0007:00001347       a6WlanSInvalidT
 0007:00001377       a6WlanSInvalidM
 0007:000013A6       a6WlanSInvali_0
 0007:000013D7       aDD2s3s
 0007:000013E8       a6WlanS
 0007:000013F9       aF
 0007:000013FC       aE
 0007:000013FF       aW
 0007:00001402       aI
 0007:00001405       aIh
 0007:00001408       aIm
 0007:0000140B       aIl
 0007:0000140E       aSNullPtrPassed
 0007:00001425       aSGlobalVossCon
 0007:00001445       aSDeAllocatingT
 0007:00001467       aSVosContextIsN
 0007:0000147F       aSContextMismat
 0007:00001494       a6WlanVos_precl
 0007:000014AC       aSFailedToShutd
 0007:000014C7       a4WlanVosAsse_2
 0007:000014EA       aHomeAaProjec_2
 0007:00001575       aSVosContextPoi
 0007:00001595       aSPvoscontextGp
 0007:000015B5       aSModuleIdIDoes
 0007:000015F3       aSModuleIdICont
 0007:00001614       aSFailedToClose
 0007:0000162C       aSFailedToClo_0
 0007:00001643       aSFailedToClo_1
 0007:0000165B       aSFailedToClo_2
 0007:00001673       aSFailedToClo_3
 0007:0000168A       aSFailedToClo_4
 0007:000016A2       aSFailedToClo_5
 0007:000016C2       aSFailedToDestr
 0007:000016E9       aSFailedToDes_0
 0007:0000170A       aSGlobalVosCont
 0007:00001729       aSHddContextIsN
 0007:00001741       aSGpvoscontextP
 0007:00001761       aSPmsgwrapperNu
 0007:00001785       aSGpvoscontex_0
 0007:000017A3       aSVos_event_set
 0007:000017BC       aSNullParamsOrG
 0007:000017EA       aTryingToQueueM
 0007:0000181E       aSVosCoreRunOut
 0007:00001846       aTryingToQueu_0
 0007:0000187A       aSTryingToQueue
 0007:000018B2       aSNullParamsOrC
 0007:000018D6       aSModuleIdIDo_0
 0007:00001913       aSModuleIdICo_0
 0007:00001954       aSPgpmodcontext
 0007:00001978       a6WlanVos_preop
 0007:00001990       aSFailedToAll_0
 0007:000019B3       aSVosContextI_0
 0007:000019CB       aSContextMism_0
 0007:000019F5       aSModuleIdICo_1
 0007:00001A29       aSFailedToAll_1
 0007:00001A59       aSFailedToClo_6
 0007:00001A71       aSFailedToStopW
 0007:00001A88       aSTimeoutOccurr
 0007:00001AB1       aSWda_stopRepor
 0007:00001AD4       aSFailedToStopS
 0007:00001AEB       aSFailedToStopT
 0007:00001B01       aSStartingLibra
 0007:00001B17       aSMismatchInCon
 0007:00001B2F       aSWdaNullContex
 0007:00001B44       aSMacNullContex
 0007:00001B59       aSTlNullContext
 0007:00001B6D       aSFailedToStart
 0007:00001B8D       aSTimeoutOccu_0
 0007:00001BC7       aSWda_nvdownloa
 0007:00001BF6       aSWda_nvdownl_0
 0007:00001C21       aSFailedToSta_0
 0007:00001C39       aSWdaCorrectlyS
 0007:00001C53       aSFailedToSta_1
 0007:00001C6B       aSMacCorrectlyS
 0007:00001C85       aSFailedToSta_2
 0007:00001C9D       aSSmeCorrectlyS
 0007:00001CB7       aSFailedToSta_3
 0007:00001CCE       aTlCorrectlySta
 0007:00001CE3       aSVossStartIsSu
 0007:00001D02       aSTimeoutOccu_1
 0007:00001D30       aVosPrestart
 0007:00001D3D       aFailedAtMacpre
 0007:00001D54       aFailedToWdaPre
 0007:00001D6B       aSTimeoutOccu_2
 0007:00001D95       aSWda_prestartR
 0007:00001DBC       aSOpeningVoss
 0007:00001DCD       aSTryingToOpenV
 0007:00001DF7       aSUnableToInitP
 0007:00001E15       aSUnableToInitW
 0007:00001E39       aSHddContextIsS
 0007:00001E5F       aSFailedToIniti
 0007:00001E8F       aSFailedToOpenV
 0007:00001EB0       aSFailedToOpenW
 0007:00001ECE       aSFailedToOpe_0
 0007:00001EF3       aSFailedToOpenS
 0007:00001F11       aSFailedToIni_0
 0007:00001F38       aSFailedToOpenM
 0007:00001F4F       aSFailedToOpe_1
 0007:00001F66       aSFailedToOpenT
 0007:00001F7C       aSVossSuccessfu
 0007:00001F99       aSGpvoswatchdog
 0007:00001FBA       aSGpvosschedcon
 0007:00001FD8       aSResetIsInProg
 0007:00001FF4       a4WlanVosAsse_3
 0007:00002017       aHomeAaProjec_3
 0007:000020A4       aSWlanDriverIsS
 0007:000020C6       aSWatchdogNotEn
 0007:000020EE       aSShutdownAlrea
 0007:0000212C       aSShutdownReIni
 0007:00002172       aSLoadUnloadInP
 0007:000021AB       aSFlushingTheRx
 0007:000021D4       aSPschedcontext
 0007:000021EE       aSFreeingRxWdiM
 0007:00002215       aSFreeingRxSysM
 0007:0000223C       aSFlushingTheTx
 0007:00002265       aSFreeingTxSysM
 0007:00002288       aSFreeingTxTlMs
 0007:000022AE       aSFreeingTxWdiM
 0007:000022D5       aFlushingTheMcT
 0007:000022FB       aSVosctxIsNull
 0007:0000230E       aSFreeingMcSysM
 0007:00002332       aSFreeingMcWdaM
 0007:00002359       aSFreeingMcWdiM
 0007:00002380       aSFreeingMcPeMs
 0007:000023A6       aSFreeingMcSmeM
 0007:000023CD       aSFreeingMcTlMe
 0007:000023EF       aSDeInitializin
 0007:0000241B       aSDeInitializ_0
 0007:00002446       aSDeInitializ_1
 0007:00002472       aSDeInitializ_2
 0007:0000249D       aSDeInitializ_3
 0007:000024C9       aSDeInitializ_4
 0007:000024F5       aSDeInitializ_5
 0007:00002520       aSDeinitializin
 0007:0000254C       aSDeinitializ_0
 0007:00002578       aSDeinitializ_1
 0007:000025A4       aSDeinitializ_2
 0007:000025D0       aSInitializingT
 0007:000025FA       aSFailedToInitW
 0007:00002622       aSInitializin_0
 0007:0000264B       aSFailedToInitP
 0007:00002672       aSInitializin_1
 0007:0000269C       aSFailedToInitS
 0007:000026C4       aSInitializin_2
 0007:000026ED       aSFailedToInitT
 0007:00002714       aSInitializin_3
 0007:0000273E       aSFailedToIni_1
 0007:00002766       aSInitializin_4
 0007:00002790       aSFailedToIni_2
 0007:000027B8       aSInitializin_5
 0007:000027E1       aSFailedToIni_3
 0007:00002808       aSInitializin_6
 0007:00002832       aSFailedToIni_4
 0007:0000285A       aSInitializin_7
 0007:00002884       aSFailedToIni_5
 0007:000028AC       aSInitializin_8
 0007:000028D6       aSFailedToIni_6
 0007:000028FE       aSFailedToIni_7
 0007:00002926       aSVos_watchdogC
 0007:00002943       aSGpvoswatchd_0
 0007:00002965       aSInvoked
 0007:00002971       aSGpvosschedc_0
 0007:00002990       aSOpeningTheVos
 0007:000029B5       aSNullParamsB_0
 0007:000029D2       aSIncorrectVosW
 0007:00002A01       aVoswdthread
 0007:00002A0D       aSCouldNotCreat
 0007:00002A32       aSVossWatchdogT
 0007:00002A57       aSOpeningTheV_0
 0007:00002A76       aSIncorrectVosS
 0007:00002AA2       aSFailedToIni_8
 0007:00002ACD       aVosmcthread
 0007:00002AD9       aSCouldNotCre_0
 0007:00002B0A       aSVossMainContr
 0007:00002B32       aVostxthread
 0007:00002B3E       aSCouldNotCre_1
 0007:00002B62       aVossTxThreadCr
 0007:00002B7A       aVosrxthread
 0007:00002B86       aSCouldNotCre_2
 0007:00002BAA       aVossRxThreadCr
 0007:00002BC2       aSVossMcThreadH
 0007:00002BE1       aSVossTxThreadH
 0007:00002C00       aSVossRxThreadH
 0007:00002C1F       aSVossScheduler
 0007:00002C46       aSBadArgsPassed
 0007:00002C5A       aWd_thread
 0007:00002C64       aSWatchdogThrea
 0007:00002C8C       aSWait_event_in
 0007:00002CBF       aSWatchdogThr_0
 0007:00002CE8       aSWatchdogThr_1
 0007:00002D1E       a6WlanWlan_shut
 0007:00002D44       aSFailedToShu_0
 0007:00002D60       aSWatchdogThr_2
 0007:00002D95       aSTryingToDoWla
 0007:00002DCE       aSFailedToReIni
 0007:00002DE9       aSWatchdogThr_4
 0007:00002E13       aSWatchdogThr_5
 0007:00002E34       aSWatchdogThr_3
 0007:00002E65       aSBadArgsPass_0
 0007:00002E78       aRx_thread
 0007:00002E82       aSRxThreadDSSta
 0007:00002EA5       aSGlobalVosCo_0
 0007:00002EC4       aSHddContextI_0
 0007:00002EDC       aSRxThreadSigna
 0007:00002EFF       aSServicingTheV
 0007:00002F2A       aSPmsgwrapperIs
 0007:00002F42       aSIssueProcessi
 0007:00002F66       aSServicingTh_0
 0007:00002F91       aSRxThreadExiti
 0007:00002FAB       aTx_thread
 0007:00002FB5       aSTxThreadDSSta
 0007:00002FD8       aSTxThreadSigna
 0007:00002FFB       aSServicingTh_1
 0007:00003026       aSServicingTh_2
 0007:00003050       aSIssueProces_0
 0007:00003073       aSServicingTh_3
 0007:0000309E       aSTxThreadExiti
 0007:000030B8       aMc_thread
 0007:000030C2       aSMcThreadDSSta
 0007:000030E4       aSMcThreadSigna
 0007:00003107       aServicingTheVo
 0007:0000312E       aSServicingTh_4
 0007:00003159       aSIssueProces_1
 0007:0000317A       aSServicingTh_5
 0007:000031A5       aSIssueProces_2
 0007:000031C6       aSServicingTh_6
 0007:000031F0       aMacContextNotR
 0007:0000320A       aSIssueProces_3
 0007:0000322A       aSServicingTh_7
 0007:00003255       aSIssueProces_4
 0007:00003276       aServicingThe_0
 0007:0000329C       aSIssueProces_5
 0007:000032BC       aSMcThreadExiti
 0007:000032D6       aCbcAes
 0007:000032DF       aCrypto_alloc_a
 0007:000032FE       aFailedToAlloca
 0007:00003326       aCrypto_cipher_
 0007:00003342       aSCallFailed
 0007:00003353       aHmacSha1
 0007:0000335E       aCrypto_alloc_0
 0007:00003378       aFailedToAllo_0
 0007:000033A2       aFailedToKzallo
 0007:000033BE       aCrypto_ahash_s
 0007:000033D9       aRet0xX
 0007:000033E2       aWait_for_compl
 0007:0000340B       aHmac_sha1CallF
 0007:00003423       aInvalidBapHand
 0007:00003442       aInvalidBapPoin
 0007:00003475       aSLinkSupervisi
 0007:000034AE       aSInvalidFramet
 0007:000034D8       aCallingSWithNe
 0007:000034FD       aSInvalidCoexis
 0007:0000352A       aPbtampctxIsNul
 0007:00003542       aPmacIsNullInS
 0007:00003555       a4WlanVosAsse_4
 0007:00003578       aHomeAaProjec_4
 0007:00003604       aAmp02x02x02x02
 0007:00003626       aBtampCtxtX
 0007:00003636       aSPlog_link_han
 0007:0000364F       aWlanBapContext
 0007:0000368B       aInvalidBapPo_0
 0007:000036B2       aWlanbap_cleanc
 0007:000036C2       aSInitializingS
 0007:000036DD       aSInitializedSt
 0007:000036F7       aWlanBapConte_0
 0007:0000372F       aInvalidBapHa_0
 0007:0000375F       aHalhandleIsNul
 0007:00003777       aInvalidBapHa_1
 0007:000037A8       aInvalidBapPo_1
 0007:000037D2       aHhalIsNullInS
 0007:000037E5       aInvalidBapPo_2
 0007:00003818       aWlanbap_close
 0007:00003826       aInvalidBapPo_3
 0007:00003858       aCouldnTDestroy
 0007:00003883       aCouldnTDestr_0
 0007:000038AD       aCouldnTDestr_1
 0007:000038D4       aWlanbap_startT
 0007:000038EE       aWlanbap_startC
 0007:00003909       aLockInitFail
 0007:00003918       aInvalidBapPo_4
 0007:0000394A       aWlanbap_open
 0007:00003957       aBadInput
 0007:00003961       aInvalidTlvLenO
 0007:00003983       aAmp_assoc_mac_
 0007:00003996       aAmp_assoc_pref
 0007:000039B7       aAmp_assoc_conn
 0007:000039D3       aAmp_assoc_pal_
 0007:000039EE       aAmp_assoc_pa_0
 0007:00003A04       aSNullParameter
 0007:00003A24       aCriticalErrorI
 0007:00003A52       aWlanBapConte_1
 0007:00003A8D       aSDInvalidLogic
 0007:00003AC3       aLogicalLinkInd
 0007:00003ADC       aSIndex_for_log
 0007:00003AFB       aSBtamphandleVa
 0007:00003B15       aSBtampcontextV
 0007:00003B30       aInSBeforeSwitc
 0007:00003B58       aInSCsrRoamresu
 0007:00003B78       aEcsr_roam_roam
 0007:00003B90       aInSCsrRoamstat
 0007:00003BB0       aEcsr_roam_set_
 0007:00003BCB       aEcsr_roam_disa
 0007:00003BE3       aEcsr_roam_lost
 0007:00003BF6       aInSUnsupported
 0007:00003C1D       aInSBeforeSwi_0
 0007:00003C45       aEcsr_roam_resu
 0007:00003C63       aEcsr_roam_re_0
 0007:00003C80       aEcsr_roam_re_1
 0007:00003C99       aEcsr_roam_re_2
 0007:00003CBB       aEcsr_roam_re_3
 0007:00003CD9       aEcsr_roam_re_4
 0007:00003CF5       aEcsr_roam_re_5
 0007:00003D15       aEcsr_roam_re_6
 0007:00003D38       aEcsr_roam_re_7
 0007:00003D58       aEcsr_roam_re_8
 0007:00003D7C       aEcsr_roam_re_9
 0007:00003DA1       aEcsr_roam_r_10
 0007:00003DBF       aEcsr_roam_r_11
 0007:00003DE2       aEcsr_roam_r_12
 0007:00003E01       aEcsr_roam_r_13
 0007:00003E1E       aInSUnsupport_0
 0007:00003E45       aSBtamphandle_0
 0007:00003E5F       aInvalidInputPa
 0007:00003E7E       aOutOfRangeForL
 0007:00003EC2       aInvalidPhysica
 0007:00003EE5       aOutOfRangeForC
 0007:00003F21       aBtamphandleIsN
 0007:00003F3B       aHhalIsNullIn_0
 0007:00003F4E       aSBtamphandle_1
 0007:00003F68       aSBtamphandle_2
 0007:00003F82       aInvalidInput_0
 0007:00003FA1       aInvalidPhysi_0
 0007:00003FC4       aSBtampcontex_0
 0007:00003FDF       aParamIsNullInS
 0007:00003FF3       aHhalIsNullIn_1
 0007:00004006       aInSPhy_link_ha
 0007:00004022       aXxx
 0007:00004026       aSNconsumedValu
 0007:0000403E       aSUpdatingPhysi
 0007:00004087       aInvalidBapHa_2
 0007:000040C0       aInvalidBapHa_3
 0007:000040F6       aWlanBapConte_2
 0007:0000412E       aInvalidBapHa_4
 0007:00004160       aUnableToRetrie
 0007:000041B8       aTxPacketReject
 0007:000041EB       aWlanBapConte_3
 0007:00004234       aInSDInvalidLog
 0007:0000425E       aUnableToRetr_0
 0007:000042A9       aCallbackRegist
 0007:000042F2       aInvalidParamsI
 0007:00004307       aWlanBapInvalid
 0007:00004338       aWlanBapInval_0
 0007:00004363       aInWlanbap_star
 0007:00004376       aUnableToRetr_1
 0007:000043BB       aSReceivedDBap
 0007:000043D5       aWlanbap_starxc
 0007:0000440A       aSLinkSupervi_0
 0007:00004443       aInvalidBapHa_5
 0007:00004462       aWlanBapFailedT
 0007:00004496       aWlanBapFaile_0
 0007:000044CD       aInvalidLlcHead
 0007:000044F8       aInvalidNonData
 0007:0000451C       aMacAddressMism
 0007:00004537       aWlanBapFaile_1
 0007:0000456D       aWlanBapPhy_lin
 0007:000045C7       aUnableToRetr_2
 0007:0000460C       aWlanBapInval_1
 0007:00004649       aInvalidBapPo_5
 0007:00004663       aHalhandleIsN_0
 0007:0000467B       aGetCfgFailedIn
 0007:00004690       aWlanBapSLogLin
 0007:000046C2       aWlanBapIndicat
 0007:000046F7       aWlanBapIndic_0
 0007:00004728       aInvalidBapPo_6
 0007:00004742       aWlanBapFatalEr
 0007:0000475E       a4WlanVosAsse_5
 0007:00004781       aHomeAaProjec_5
 0007:0000480F       aWlanBapInLinks
 0007:0000483C       aSDataSeen_DoNo
 0007:00004856       aWlanBapLinksup
 0007:0000488E       aSResendTheLsPa
 0007:000048A7       aInSBtampcontex
 0007:000048C3       aInSPbtamplogli
 0007:000048E3       aInSFailedToAll
 0007:00004909       aInSFailedToPos
 0007:0000492B       aWlanBapConte_4
 0007:00004966       aWlanBapDeletin
 0007:00004995       aOpenSharedAuth
 0007:000049E2       aCallingSend_bt
 0007:00004A13       aCallingSend__0
 0007:00004A45       aBapRegisterTlU
 0007:00004A61       aBapRegisterTlQ
 0007:00004A81       aSWlantl_regist
 0007:00004ACA       aUlaAuthStaidD_
 0007:00004B0B       aBtampcontextIs
 0007:00004B26       aHhalIsNullIn_2
 0007:00004B39       aSBsstypeSSsidS
 0007:00004B60       aEcsr_bss_type_
 0007:00004B76       aEcsr_bss_typ_0
 0007:00004B8B       aInSAmp_assoc_r
 0007:00004BB2       aInSParsestatus
 0007:00004BCA       aIncorrectChann
 0007:00004BF2       aInSFromStateSS
 0007:00004C0D       aDisconnected
 0007:00004C1A       aS1
 0007:00004C1D       aInSCmdStatusIs
 0007:00004C35       aInSInStateSInv
 0007:00004C5E       aStarting
 0007:00004C67       aScanning
 0007:00004C70       aConnecting
 0007:00004C7B       aDisconnecting
 0007:00004C89       aAuthenticating
 0007:00004C98       aKeying
 0007:00004C9F       aInSFromState_0
 0007:00004CCF       aInSFromState_1
 0007:00004D02       aInSFromState_2
 0007:00004D29       aConnected
 0007:00004D33       aInSEnteredDisc
 0007:00004D51       aBtampfsmGetLoc
 0007:00004D69       aBtampfsmReleas
 0007:00004D85       aUnableToRetr_3
 0007:00004DCA       aSInDisconnecti
 0007:00004E07       aInSFromState_3
 0007:00004E39       aValidated
 0007:00004E43       aInSInvalidStat
 0007:00004E5B       aSBtampcontex_1
 0007:00004E76       a4dSme_roamsetk
 0007:00004EA5       aAesKeyWrapInvo
 0007:00004ECC       aBeforeAesKeyWr
 0007:00004EED       aBeforeAesKey_0
 0007:00004F1A       aAuthRc4KeyWrap
 0007:00004F46       aAuthFailedEapo
 0007:00004F7D       a4WlanVosAsse_6
 0007:00004FA0       aHomeAaProjec_6
 0007:00005035       aParamIsNullI_0
 0007:00005049       aCtxIsNullInS
 0007:0000505B       aAuthrsnrxframe
 0007:000050B3       aAuthTlTxComple
 0007:000050EC       aAuthStartMsg2T
 0007:00005105       aAuthStartMsg4T
 0007:0000511E       aGotostateauthe
 0007:0000515E       aArgIsNullExiti
 0007:00005185       aAuthCannotGene
 0007:000051B8       aAuthDeriveptkF
 0007:000051DD       aAuthRetransmit
 0007:00005201       aAuthFailedToRe
 0007:00005236       aAuthStaSentInc
 0007:0000525A       aAuthGotostatep
 0007:00005286       aAuthRetransm_0
 0007:000052AB       aAuthFailedTo_0
 0007:000052E0       aFailToAllocate
 0007:0000530C       aNothingToDoInT
 0007:0000533C       aUnknownEventFo
 0007:00005364       aGotUnexpectedL
 0007:00005393       aAuthEapolTypeN
 0007:000053BD       aFsmIsNullInS
 0007:000053CF       aCannotGenerate
 0007:00005404       aSuppDeriveptkF
 0007:00005429       aSuppGotostates
 0007:00005459       aBpRadioDGotOld
 0007:0000548B       aSuppApSentInco
 0007:000054AE       aSuppFailToRand
 0007:000054CA       aResendingEapol
 0007:00005503       aResendingEap_0
 0007:0000552E       aIllegalStateFo
 0007:0000554F       a4WlanVosAsse_7
 0007:00005572       aHomeAaProjec_7
 0007:0000560A       aSuppUnknownEve
 0007:0000562E       aSuppGotUnexpec
 0007:0000565C       aSuppEapolTypeN
 0007:00005684       aSuppApSentNoGr
 0007:000056BC       aSuppApSentGtkT
 0007:000056D9       aSuppApSentUnsu
 0007:00005703       aSuppCouldNotSe
 0007:0000572A       aParamIsNullI_1
 0007:0000573E       aCtxIsNullInS_0
 0007:00005750       aSupprsnrxframe
 0007:000057A8       aSuppTlTxComple
 0007:000057E0       a4WlanVosAsse_8
 0007:00005803       aHomeAaProjec_8
 0007:00005894       aGroupKeyExpans
 0007:000058A8       aPairwiseKeyExp
 0007:000058BF       a4WlanVosAsse_9
 0007:000058E2       aHomeAaProjec_9
 0007:00005974       aUnknown_0
 0007:0000597C       aAuthrsnrxfra_0
 0007:000059C2       aAuthrsnrxfra_1
 0007:000059FA       a4WlanVosAss_10
 0007:00005A1D       aHomeAaProje_10
 0007:00005AAE       aAuthrsnrxfra_2
 0007:00005AEE       aSuppAskedToFre
 0007:00005B13       aSuppParsingEap
 0007:00005B3B       aSuppCouldNotMa
 0007:00005B6F       aCouldNotAlloca
 0007:00005B92       aSuppReceivedUn
 0007:00005BC2       aSuppMicKeyProv
 0007:00005BFE       aSuppMicflagIsS
 0007:00005C2D       aSuppParsingE_0
 0007:00005C54       aEapolhandlerRe
 0007:00005C93       aEap
 0007:00005C97       aStart_1
 0007:00005C9D       aLogoff
 0007:00005CA4       aKey
 0007:00005CA8       aAlert
 0007:00005CAE       a4WlanVosAss_11
 0007:00005CD1       aHomeAaProje_11
 0007:00005D66       aBaprsnregister
 0007:00005D98       a4WlanVosAss_12
 0007:00005DBB       aHomeAaProje_12
 0007:00005E48       aBaprsnacquirep
 0007:00005E79       aBaprsnacquir_0
 0007:00005EA4       aBaprsntxframeF
 0007:00005ED6       aPvosgctxIsNull
 0007:00005EED       aBtampcontext_0
 0007:00005F08       aSuppGotostat_0
 0007:00005F33       aIllegalNumberO
 0007:00005F64       aCouldNotAllo_0
 0007:00005F83       aVos_decrypt_ae
 0007:00005F9F       aIllegalNumbe_0
 0007:00005FCE       aVos_encrypt_ae
 0007:00005FEA       aInSPrototypeX
 0007:00006000       aUnableToRetr_4
 0007:0000605F       aTxPacketReje_0
 0007:00006099       aWlanbap_txlink
 0007:000060DD       aInvalidBapHa_6
 0007:000060FC       aInS
 0007:00006103       aInSReceivedRxp
 0007:00006121       aMacAddressMi_0
 0007:0000613C       aFailedToFreeVo
 0007:0000615C       aSFailedToReser
 0007:0000617D       aWlanbap_linksu
 0007:000061B8       aTxcompcbReache
 0007:000061D4       aTxcompcbTransm
 0007:000061F5       aWlanbap_txcomp
 0007:00006211       aSAcquirelspack
 0007:0000622C       aSReturnedVosPa
 0007:00006247       aSVos_pkt_get_l
 0007:00006263       aSNoLsConfigure
 0007:00006284       aWlanTlReplayPa
 0007:000062BF       aWlanTlInvalidP
 0007:000062F5       aWlanTlInvalidT
 0007:00006335       aSInvalidTlHand
 0007:0000634A       aWlanTlInvali_0
 0007:0000637D       aWlanTlDStaIdDo
 0007:0000639F       aWlanTlInvali_1
 0007:000063E3       aWlanTlInvali_2
 0007:00006420       aWlanTlInvali_3
 0007:00006457       aWlanTlInvalidS
 0007:0000649E       aWlanTlInvali_4
 0007:000064DF       aWlanTlStationW
 0007:00006525       aWlanTlInvali_5
 0007:0000655C       aWlanTlInvali_6
 0007:000065A3       aWlanTlInvali_7
 0007:000065E4       aWlanTlStatio_0
 0007:0000662D       aWlanTlInvali_8
 0007:00006660       aWlanTlInvali_9
 0007:0000669D       aWlanTlInval_10
 0007:000066DC       aWlanTlInval_11
 0007:0000671E       aWlanTlManageme
 0007:00006755       aInvalidParam_0
 0007:00006785       aInvalidStation
 0007:000067BB       aInvalidTlPoint
 0007:000067F5       aStationWasNotP
 0007:00006834       aWlanTlInval_12
 0007:00006865       aWlanTlInval_13
 0007:0000689C       aWlanTlInval_14
 0007:000068D7       aWlanTlStatio_1
 0007:00006917       aWlanTlBmpsrssi
 0007:0000692D       aWlanTlInval_15
 0007:00006968       aInvalidFlushCo
 0007:000069AD       aWlanTlInval_16
 0007:000069F2       aWlanTlBapClien
 0007:00006A1C       aWlanTlInval_17
 0007:00006A5A       aWlanTlInval_18
 0007:00006A9C       aWlanTlStatio_2
 0007:00006AE3       aWlanTlInval_19
 0007:00006B1B       aWlanTlInval_20
 0007:00006B59       aWlanTlStatio_3
 0007:00006BA0       aWlanTlInval_21
 0007:00006BF3       aWlantl_configu
 0007:00006C38       aWlanTlBdPduAva
 0007:00006C7C       aWlanTlInval_22
 0007:00006CBD       aWlanTlInval_23
 0007:00006CFA       aWlanTlStatio_4
 0007:00006D40       aSerializingTlS
 0007:00006D7A       aInvalidTlContr
 0007:00006D93       aPowerStateChan
 0007:00006DB8       aNotHandleThisE
 0007:00006DD2       aNotAValidEvent
 0007:00006DE7       aWlanTlInval_24
 0007:00006E2C       aWlanTlInvalidI
 0007:00006E7D       aWlanTlInval_25
 0007:00006ED4       aWlanTlNoRegist
 0007:00006F17       aWlanTlInval_26
 0007:00006F4A       aWlanTlPacketSh
 0007:00006F91       aWlanTlManage_0
 0007:00006FC6       aWlanTlManage_1
 0007:00007013       aWlanTlInval_27
 0007:0000704E       aWlanTlInval_28
 0007:0000708F       aWlanTlInval_29
 0007:000070D4       aWlanTlStatio_5
 0007:00007117       aWlanTlInval_30
 0007:00007149       aWlanTlInval_31
 0007:0000717A       aWlanTlInval_32
 0007:000071BF       aWlanTlFatalFai
 0007:000071FE       a4WlanVosAss_13
 0007:00007221       aHomeAaProje_13
 0007:000072AE       aWlanTlFatalF_0
 0007:000072EC       aWlanTlInval_33
 0007:0000732E       aWlanTlFailedTo
 0007:00007364       aSInvalidPmac
 0007:00007375       aWlanTlInval_34
 0007:000073B5       aWlanTlNoStatio
 0007:000073E9       aWlanTlMask0Sta
 0007:0000741B       aWlanTlFailed_0
 0007:0000744E       aWlanTlFailed_1
 0007:0000747C       aWlanTlFailed_2
 0007:000074AD       aWlanTlFailed_3
 0007:000074D5       aWlanTlPacketPo
 0007:0000751B       aWlanTlPacketPu
 0007:00007566       aWlanTlPacket_0
 0007:000075B1       aWlanTlVossPack
 0007:000075D0       aWlanTlInval_35
 0007:00007614       aWlanTlTlFailed
 0007:00007649       aWlanTlInval_36
 0007:00007689       aWlanTlInval_37
 0007:000076C5       aWlanTlStatio_6
 0007:0000770A       aWlanTlPacketPe
 0007:0000773F       aWlanTlInval_38
 0007:0000777C       aWlanTlInval_39
 0007:000077BD       aWlanTlStatio_7
 0007:00007803       aWlanTlInval_40
 0007:00007836       aWlanTlInval_41
 0007:00007873       aInvalidStati_0
 0007:000078A6       aInvalidTlPoi_0
 0007:000078DD       aStationWasNo_0
 0007:00007919       aWlanTlFatalF_1
 0007:00007955       aWlanTlInval_42
 0007:00007991       aWlanTlInval_43
 0007:000079D7       aWlanTlFatalF_2
 0007:00007A10       aWlanTlFailed_4
 0007:00007A4B       aWlanTlInval_44
 0007:00007A89       aWlanTlInval_45
 0007:00007ACB       aWlanTlStatio_8
 0007:00007B12       aWlanTlErrorExt
 0007:00007B47       aWlanTlInval_46
 0007:00007B7A       aWlanTlCannotEx
 0007:00007B9B       aWlanTlFrameNot
 0007:00007BC5       aWlanTlFailed_5
 0007:00007C01       aWlanTlExtraneo
 0007:00007C37       aWlanTlInval_47
 0007:00007C71       aWlanTlNullPoin
 0007:00007CA6       aWlanTlInval_48
 0007:00007CDB       aWlanTlInval_49
 0007:00007D1A       aWlanTlRecvCorr
 0007:00007D3F       aWlanTlFailed_6
 0007:00007D64       aWlanTlInval_50
 0007:00007D97       aWlanTlInval_51
 0007:00007DD4       aWlanTlWaiFrame
 0007:00007E08       aWlanTlNonWaiFr
 0007:00007E42       aWlanTlCouldNot
 0007:00007E76       aWlanTlAmsduCur
 0007:00007EA4       aWlanTlAmsduPre
 0007:00007ED3       aWlanTlAmsduDro
 0007:00007F0D       aWlanTlAmsduTot
 0007:00007F53       aWlanTlNonAmsdu
 0007:00007F85       aWlanTlNonAms_0
 0007:00007FB8       aWlanTlNonAms_1
 0007:00007FF6       aWlanTlNonAms_2
 0007:0000803F       aWlanTlInval_52
 0007:0000807C       aWlanTlFailedWh
 0007:000080B5       aWlanTlInval_53
 0007:000080F5       aWlanTlFailed_7
 0007:00008126       aWlanTlErrorWhe
 0007:0000815D       aFillTxBdErrorS
 0007:00008178       aWlanTlFailed_8
 0007:000081A6       aWlanTlInval_54
 0007:000081E3       aWlanTlNoMoreDa
 0007:00008209       aWlanTlOnlyEapo
 0007:00008249       aWlanTlErrorW_0
 0007:00008280       aWlanTlLlcHeade
 0007:000082C7       aLlcHeaderPoint
 0007:00008305       aUnableToExtrac
 0007:00008341       aWlanTlCannotFl
 0007:00008371       aWlanTlBdHeader
 0007:0000839F       aWlanTlInval_55
 0007:000083D1       aWlanTlDataPack
 0007:000083F7       aWlanTlCachedPa
 0007:00008459       aHandleRxDataFr
 0007:00008491       aWlanTlNullStat
 0007:000084D1       aWlanTlInval_56
 0007:0000850B       aWlanTlInval_57
 0007:0000854B       aWlanTlInval_58
 0007:0000858B       aWlanTlCannot_0
 0007:000085B6       aWlanTlCannot_1
 0007:000085DF       aHandleRxManage
 0007:0000861D       aWlanTlStaIdInv
 0007:00008643       aWlanTlInval_59
 0007:0000868A       aWlanTlNotFetch
 0007:000086C5       aWlanTlInval_60
 0007:00008701       aWlanTlBapCli_0
 0007:00008734       aWlanTlBtAmpFra
 0007:00008775       aWlanTlErrorW_1
 0007:000087AB       aWlanTlFailed_9
 0007:000087D6       aWlanTlInval_61
 0007:00008809       aWlanTlInval_62
 0007:00008846       aWlanTlManage_2
 0007:00008887       aWlanTlManage_3
 0007:000088CA       aWlanTlFaile_10
 0007:000088FA       aWlanTlFaile_11
 0007:00008930       aWlanTlWda_ds_s
 0007:0000895D       aWlanTlRequestT
 0007:000089A1       aSInvalidSmecon
 0007:000089B8       aHandoffSupport
 0007:000089D9       aWlanTlInval_63
 0007:00008A12       aWlanTlTlFail_0
 0007:00008A46       aWlanTlInval_64
 0007:00008A84       aWlanTlStaclien
 0007:00008AAB       aWlanTlReorderB
 0007:00008AD6       aHandoffSuppo_0
 0007:00008AF7       aOneCycleRounde
 0007:00008B31       aThisIsNotPossi
 0007:00008B61       a4WlanVosAss_14
 0007:00008B84       aHomeAaProje_14
 0007:00008C14       aInvalidArgPtlc
 0007:00008C3D       aWlantl_msdureo
 0007:00008C63       aMakeFrameChain
 0007:00008C7C       aMakeFrameCha_0
 0007:00008CA4       aMakeChainWithB
 0007:00008CCB       aDropBarFrameFa
 0007:00008CE2       aQCurrentFrameF
 0007:00008CFA       aTimerStartFail
 0007:00008D0B       aSInvalidTlCont
 0007:00008D28       aWlanTlInval_65
 0007:00008D5F       aWlanTlInval_66
 0007:00008DA0       aPopMpduAmsduHe
 0007:00008DBB       aTrimGarbageDat
 0007:00008DD2       aAmsduHeaderPop
 0007:00008DE8       aMpduHeaderPush
 0007:00008E03       aPaddingSizeIsN
 0007:00008E2C       aLuAmsduFramesA
 0007:00008E45       aWlanTlInval_67
 0007:00008E7B       aWlanTlInval_68
 0007:00008EB7       aWlanTlInval_69
 0007:00008EF7       aWlanTlStatio_9
 0007:00008F35       aStaWasDeletedB
 0007:00008F75       aWlanTlBaSessio
 0007:00008FAF       aUnableToAcquir
 0007:00008FD9       aTimerStopFail
 0007:00008FE9       aTimerIsNotStop
 0007:00009018       aWlanTlFaile_12
 0007:00009057       aUnableToDestro
 0007:00009076       aWlanTlInval_70
 0007:000090AC       aWlanTlInval_71
 0007:000090E8       aWlanTlInval_72
 0007:00009128       aWlanTlStati_10
 0007:00009166       aWlanTlBaSess_0
 0007:0000919F       aNumberOfAddBaR
 0007:000091D5       aTimerInitFail
 0007:000091E5       aLockInitFail_0
 0007:000091F4       aTimerCallbackU
 0007:00009212       aSidDOrTidDIsNo
 0007:00009230       aTlControlBlock
 0007:00009246       aReorderDataNul
 0007:0000927E       aReorderSession
 0007:000092AB       aWlantl_reorder
 0007:000092DE       aBaTimeoutWithD
 0007:0000930B       aWlantl_reord_3
 0007:00009342       aWlantl_reord_0
 0007:0000939D       aWlantl_reord_1
 0007:000093EA       aWlantl_reord_2
 0007:0000943A       aMakePacketChai
 0007:00009464       aCallbackFuncti
 0007:00009489       aNoPendingFrame
 0007:000094B2       aInvalidTlHandl
 0007:000094C4       aCurrentNewRssi
 0007:000094F0       aSInvalidTlCo_0
 0007:00009507       aCregionDHrssiN
 0007:00009533       aCregionDHrssiD
 0007:00009559       aClientSmePcbPT
 0007:00009583       aClientHddPcbPT
 0007:000095AD       aCregionDNthres
 0007:000095D1       aFoundRegionDNo
 0007:000095ED       aCurrentRegionI
 0007:00009609       aRegionIncrease
 0007:00009624       aTriggerEventDR
 0007:00009646       aRegionDecrease
 0007:00009662       aClientFailToHa
 0007:00009698       aStopTrafficSta
 0007:000096BD       aTimerStopFaile
 0007:000096DA       aTimerDestroyFa
 0007:000096FA       aInvalidArgumen
 0007:0000971B       aTrafficStatusT
 0007:0000974C       aRtTrafficStatu
 0007:00009774       aNrtTrafficStat
 0007:0000979D       aTrafficStatusI
 0007:000097CE       aSGetLockFail
 0007:000097DF       aWlantl_hssetal
 0007:000097F1       aSReleaseLockFa
 0007:00009806       aInvalidFwRssiN
 0007:00009823       a4WlanVosAss_15
 0007:00009846       aHomeAaProje_15
 0007:000098DD       aCurrentFwNotif
 0007:000098FD       aThisIsTheFirst
 0007:00009937       aPosCrossToRegi
 0007:0000994D       aPosCrossToRe_0
 0007:00009963       aPosCrossToRe_1
 0007:00009979       aNegCrossToRegi
 0007:0000998F       aNegCrossToRe_0
 0007:000099A5       aNegCrossToRe_1
 0007:000099BB       aNoRegionChange
 0007:000099DB       aBmpsStateMsgFr
 0007:00009A16       aWlanTlDStaIdIs
 0007:00009A36       aThisTxIsBcFram
 0007:00009A4A       aThisIsTxUcFram
 0007:00009A5E       aTxFrameAcDRtFr
 0007:00009A94       aManagementFram
 0007:00009AC3       aThisIsRxBcMcFr
 0007:00009ADA       aThisIsRxBcFram
 0007:00009AEE       aThisIsRxMcFram
 0007:00009B02       aThisIsRxUcFram
 0007:00009B16       aRxFrameAcDRtFr
 0007:00009B4C       aThereIsNoThres
 0007:00009B68       aGetRssiFail
 0007:00009B76       aHandleNewRssiF
 0007:00009B8B       aSingleClientTh
 0007:00009BBA       aEmptyListCanNo
 0007:00009BD5       aWlantl_hsdereg
 0007:00009BF4       aDelTargetRssiD
 0007:00009C11       aRemoveThreshol
 0007:00009C3D       aFoundMultipleI
 0007:00009C56       aFoundSingleIdx
 0007:00009C6D       aCouldNotFindEn
 0007:00009C95       aRemoveTargetIs
 0007:00009CAF       aShiftUpFromDTo
 0007:00009CC6       aRemovedThresho
 0007:00009CFC       aCurrentRegionN
 0007:00009D30       aDecreaseRegion
 0007:00009D5F       aRegisterIntoFw
 0007:00009D7A       aNoRegisteredTh
 0007:00009D92       aRegInvalidArgu
 0007:00009DA7       aWlantl_hsregrs
 0007:00009DC4       aMakeRegistrati
 0007:00009DF3       aNoMoreAvailabl
 0007:00009E1F       aFirstRegistrat
 0007:00009E32       aRegCbP0xXRegis
 0007:00009E56       aSameRssiDSameC
 0007:00009E84       aShiftDArrayToD
 0007:00009E99       aPutInHereD
 0007:00009EA8       aNewThresholdPu
 0007:00009EC4       aAddedThreshold
 0007:00009EF8       aCurrentRegio_0
 0007:00009F31       aIncreaseRegion
 0007:00009F60       aRegisteredRssi
 0007:00009FB2       aRegisteredRs_0
 0007:00009FE2       aRegisteredRs_1
 0007:0000A033       aSDPalsendmbmes
 0007:0000A056       aSDPalallocatem
 0007:0000A079       aSDPalsendmbm_0
 0007:0000A0A7       aSDMutexAllocFa
 0007:0000A0C3       aSDSendcfgFaile
 0007:0000A0DD       aSDWni_cfg_SD0x
 0007:0000A110       aSDWni_cfg_SD_0
 0007:0000A144       aSDDeletingCfgr
 0007:0000A167       aSDReqstateIsNo
 0007:0000A197       aSDCanNotMatchR
 0007:0000A1EA       aCcm861870
 0007:0000A1F8       aSErrorPlistIsN
 0007:0000A212       aSErrorPentryIs
 0007:0000A22D       aSDCallbackNull
 0007:0000A247       aSettingCountry
 0007:0000A281       aCsraddbkidcand
 0007:0000A2C2       aCsraddpmkidcan
 0007:0000A305       aSBufferOverflo
 0007:0000A336       aSettingChannel
 0007:0000A352       aSettingMaxTran
 0007:0000A372       aSettingMaxTr_0
 0007:0000A39F       aSDUpdatingCfgW
 0007:0000A3CA       aSDFailed
 0007:0000A3DB       aNoMemoryForSca
 0007:0000A3FD       aNoMemoryForS_0
 0007:0000A422       aCouldnTGetTheV
 0007:0000A461       aNoMemoryForS_1
 0007:0000A483       aSDFailedToAllo
 0007:0000A4AE       aSDFailToSendMe
 0007:0000A4D9       aSAbortScanComm
 0007:0000A506       aSDRanOutOfMemo
 0007:0000A521       aSDCanNotObtain
 0007:0000A549       aSDCalled
 0007:0000A559       aSDCannotScanBe
 0007:0000A5A1       aSDProcessAChan
 0007:0000A5D1       aRemoveScanComm
 0007:0000A5F5       aCsrreleasescan
 0007:0000A636       aCsrScanComplet
 0007:0000A676       aCsrscancanceli
 0007:0000A68F       aSDCannotReques
 0007:0000A6C6       aSDCallPmcreque
 0007:0000A703       aSDAlreadyInImp
 0007:0000A71C       aCsrscanstartid
 0007:0000A73A       aFailToStartIdl
 0007:0000A776       aSDCannotContin
 0007:0000A7B0       aSDFailedToGetQ
 0007:0000A7DD       aSDFailedToGetC
 0007:0000A80E       aSDFailedToRemo
 0007:0000A847       aSDCanNotGetSel
 0007:0000A882       aStartingScanCo
 0007:0000A8B8       aAgingOutBss02x
 0007:0000A8F0       aSDFailToRemove
 0007:0000A910       aSDAdding11bGCh
 0007:0000A951       aSDAdding11aCha
 0007:0000A990       aMatchingRoamPr
 0007:0000A9EC       aMatchingConnec
 0007:0000AA4B       a4WlanVosAss_16
 0007:0000AA6E       aHomeAaProje_16
 0007:0000AAFF       aSDDSetsEachOne
 0007:0000AB21       aSD11dChannelLi
 0007:0000AB46       aSDFailedToGetD
 0007:0000AB86       aSDFailToSetReg
 0007:0000ABA6       aSDFailToAlloca
 0007:0000ABD0       aSDFailToAllo_0
 0007:0000AC0B       aSDFailToCopyMe
 0007:0000AC3A       aSDReturnDBss
 0007:0000AC51       aPmacScan_numbk
 0007:0000AC76       aPmacScan_numpm
 0007:0000AC9C       aCsrissueroamaf
 0007:0000ACC3       aLostlinkRoamin
 0007:0000ACE3       aSDCannotFindMa
 0007:0000AD26       aSDAbortsBecaus
 0007:0000AD54       aSDSsidS
 0007:0000AD68       aSDFailedToIssu
 0007:0000ADA8       aSDCalled_0
 0007:0000ADB9       aCsrscanrequest
 0007:0000ADE9       aLostlinkScan3F
 0007:0000AE03       aLostlinkScan2F
 0007:0000AE1D       aCsrscanreque_0
 0007:0000AE4D       aLostlinkScan1F
 0007:0000AE67       a___bssid02x02x
 0007:0000AEA5       aSDCannotParedI
 0007:0000AEC1       a6WlanBssLimitR
 0007:0000AEDF       aSD11dscan13Pro
 0007:0000AF1D       aSDScanCompleti
 0007:0000AF60       aSDScanComple_0
 0007:0000AF9F       aCsrProcessingI
 0007:0000AFE6       aCsrProcessin_0
 0007:0000B00F       aScanrspFail0x0
 0007:0000B034       aScanReceivedDU
 0007:0000B064       aCsrScanCompl_0
 0007:0000B0A3       aCsrScanCompl_1
 0007:0000B0DE       aMessage0x04xRe
 0007:0000B120       aCsrscanreque_1
 0007:0000B150       aSDFailedToGetM
 0007:0000B181       aSDFailedToCopy
 0007:0000B1B2       aSDChanneltosca
 0007:0000B227       aSDFailToCopyRe
 0007:0000B252       aSDStartsIdleMo
 0007:0000B276       aSDCannotStartI
 0007:0000B2A0       aSDSeesNotSucce
 0007:0000B2C6       aCsrscanidlesca
 0007:0000B2ED       aDDetect1List0x
 0007:0000B34D       aDDetectList0xX
 0007:0000B3AB       aSDCannotAlloca
 0007:0000B3DF       aSDCannotAllo_0
 0007:0000B41E       aSDCannotAllo_1
 0007:0000B451       aSDCannotAllo_2
 0007:0000B487       aCsrroamregiste
 0007:0000B4D5       aCsrroamregis_0
 0007:0000B521       aInvalidCenterC
 0007:0000B554       aSDCannotRecogn
 0007:0000B583       aCsrRoamsubstat
 0007:0000B5A7       aCsrRoamstateDD
 0007:0000B5C5       aSmePreAuthStat
 0007:0000B5E5       aSDCsrroamtlsta
 0007:0000B629       aCsrroamstartib
 0007:0000B647       aCsrscanstartwa
 0007:0000B667       aSDCsrroamrepor
 0007:0000B6A4       aSDCsrroamrep_0
 0007:0000B6E2       aSDCsrroamrep_1
 0007:0000B711       aSDCsrroamrep_2
 0007:0000B74F       aSDCsrroamrep_3
 0007:0000B77D       aSDCsrroamrep_4
 0007:0000B7BA       aSDCsrroamrep_5
 0007:0000B7E8       aSDCsrroamrep_6
 0007:0000B825       aSDCsrroamrep_7
 0007:0000B853       aSDCsrroamrep_8
 0007:0000B890       aSDCsrroamrep_9
 0007:0000B8BE       aSDCsrroamre_10
 0007:0000B8FB       aSDCsrroamre_11
 0007:0000B929       aSDCsrroamre_12
 0007:0000B966       aSDCsrroamre_13
 0007:0000B99A       aSDNumpmkidcach
 0007:0000B9FC       aCsrroamsetpmki
 0007:0000BA28       aSDInvalidSessi
 0007:0000BA46       aCsrroamsetbkid
 0007:0000BA71       aSDMemoryAlloca
 0007:0000BAA9       aCsrsendmbstats
 0007:0000BAE7       aCsrsendmbsta_0
 0007:0000BB22       aSDSessionDoesN
 0007:0000BB55       aSDSelfmac02x02
 0007:0000BB89       aCsrroaminserte
 0007:0000BBD7       aSDNoPendingCom
 0007:0000BBF3       a4WlanVosAss_17
 0007:0000BC16       aHomeAaProje_17
 0007:0000BCA7       aCsrroamvcctrig
 0007:0000BCD7       aCsrroamvcctr_0
 0007:0000BD00       aCsrroamvcctr_1
 0007:0000BD37       aCsrroamvcctr_2
 0007:0000BD73       aCsrroamvcctr_3
 0007:0000BDA2       aSessionIdDIsNo
 0007:0000BDBE       aAssocCompleteR
 0007:0000BDFB       aSessionIdIsNot
 0007:0000BE14       a6WlanDisconnec
 0007:0000BE5F       a6WlanDisconn_0
 0007:0000BE91       a6WlanDisconn_1
 0007:0000BECC       a6WlanAssociate
 0007:0000BF0C       aSDPreauthRespo
 0007:0000BF34       aSDPreauthReass
 0007:0000BF81       aCsrroamvcctr_4
 0007:0000BFC1       aCsrroamvcctr_5
 0007:0000C014       aCsrroamvcctr_6
 0007:0000C04C       aCsrroamvcctr_7
 0007:0000C085       aCsrroamvcctr_8
 0007:0000C0C5       aCsrroamvcctr_9
 0007:0000C110       aCsrroamvcct_10
 0007:0000C14E       aSDCannotProces
 0007:0000C193       aSDCannotQueueC
 0007:0000C1B6       aSDFailToSend_0
 0007:0000C1E1       aSDFailToGetCom
 0007:0000C206       aInvalidWep40Ke
 0007:0000C239       aInvalidWep104K
 0007:0000C26D       aInvalidTkipKey
 0007:0000C29F       aInvalidAesCcmp
 0007:0000C2D5       aInvalidWapiKey
 0007:0000C307       aCsrroamcheckcl
 0007:0000C355       aCsrroamcheck_0
 0007:0000C37D       aCsrroamchecknu
 0007:0000C3D2       aCsrroamcheck_1
 0007:0000C401       aCsrroaminser_0
 0007:0000C445       aCsrroamfindinp
 0007:0000C480       aCsrroamfindi_0
 0007:0000C4AA       aCsrroamremovee
 0007:0000C4F1       aCsrroamremov_0
 0007:0000C524       aSDCsrroamremov
 0007:0000C578       aCsrroamderegst
 0007:0000C5C6       aSDCsrroamdereg
 0007:0000C608       aSDCsrroamder_0
 0007:0000C64E       aCsrAttemptingT
 0007:0000C68D       aCsrroamissuetk
 0007:0000C6C4       aCsrIssuingTkip
 0007:0000C71E       aCsrroamissue_0
 0007:0000C772       aCsrroamcheckpe
 0007:0000C7B6       aSDCsrroamcheck
 0007:0000C7FE       aSDCsrroamche_0
 0007:0000C842       aCsrroamcheck_2
 0007:0000C875       aSDCsrroamche_1
 0007:0000C8BA       aCsrgetstatisti
 0007:0000C8DC       aCsrgetstatis_0
 0007:0000C919       aCsrgetstatis_1
 0007:0000C988       aSDCsrgetstatis
 0007:0000C9C1       aSDCsrgetstat_0
 0007:0000C9FE       aSDCsrgetstat_1
 0007:0000CA39       aSDCsrgetstat_2
 0007:0000CA73       aSDCsrgetstat_3
 0007:0000CAB1       aCsrgetstatis_2
 0007:0000CAEF       aSDCsrgetstat_4
 0007:0000CB27       aSDCsrgetstat_5
 0007:0000CB60       aSDCalled_1
 0007:0000CB6F       aCsrgetrssiFail
 0007:0000CB9D       aCsrgetrssiFa_0
 0007:0000CBC6       aSDReturned
 0007:0000CBD7       aSDCsrroamstats
 0007:0000CC19       aSDCsrroamsta_5
 0007:0000CC49       aSDCsrroamsta_0
 0007:0000CC88       aSDCsrroamsta_6
 0007:0000CCB7       aSDCsrroamsta_1
 0007:0000CCF5       aSDCsrroamsta_7
 0007:0000CD24       aSDCsrroamsta_2
 0007:0000CD62       aSDCsrroamsta_8
 0007:0000CD91       aSDCsrroamsta_3
 0007:0000CDCF       aSDCsrroamsta_9
 0007:0000CDFE       aSDCsrroamsta_4
 0007:0000CE3C       aSDCsrroamst_10
 0007:0000CE71       aSDCsrroampesta
 0007:0000CEB9       aSDCsrroampes_0
 0007:0000CEFE       aInSMsgPtrIsNul
 0007:0000CF15       aAddStaRspStatu
 0007:0000CF2E       aInSEwni_sme_ad
 0007:0000CF86       aInSEwni_sme__0
 0007:0000CFCF       aCsrroamwmstatu
 0007:0000D00D       aCsrWmstatuscha
 0007:0000D05C       aCsrWmstatusc_0
 0007:0000D0A2       aSDCannotAllo_3
 0007:0000D0D4       aSDCannotAllo_4
 0007:0000D10A       aSDCannotAllo_5
 0007:0000D148       aSDCannotAllo_6
 0007:0000D185       aSmeSetKeyidxDE
 0007:0000D1FE       aCsrroamgetwpss
 0007:0000D231       aCsrGettingWpsS
 0007:0000D27C       aCsrroamgetwp_0
 0007:0000D2CC       aCsrroamgetasso
 0007:0000D2FC       aCsrGettingAsso
 0007:0000D347       aCsrroamgetas_0
 0007:0000D394       aSDFailedToPars
 0007:0000D3B5       aBtampIsNotAllo
 0007:0000D3F3       aBtampIsNotAl_0
 0007:0000D43A       aSDSwitchingToD
 0007:0000D45F       aSDCanNotFindAn
 0007:0000D487       aSDBtcDoesnTAll
 0007:0000D4BE       aSDPbssdescript
 0007:0000D4E0       aSDWpaRsnIeLeng
 0007:0000D534       aSDCallingCsrse
 0007:0000D55F       aSDCsrPersonaD
 0007:0000D576       aAttemptingToJo
 0007:0000D5AF       aSDProcessACh_0
 0007:0000D5DF       aSDChannelListE
 0007:0000D5FB       aSDNum_ratesDIs
 0007:0000D65D       aSDForP2pclient
 0007:0000D69C       aCsrCannotFindA
 0007:0000D6C8       aSDIndicatesRoa
 0007:0000D6F0       aCsrscanstartro
 0007:0000D70D       aSDIndicatesAss
 0007:0000D74A       aCancellingRoam
 0007:0000D761       aSDGetsAnUnknow
 0007:0000D784       aFailToStartRoa
 0007:0000D7A9       aCsrroamlinkupW
 0007:0000D7EE       aSDWrongStateNo
 0007:0000D81B       aSDErrorStatus
 0007:0000D833       aSDCannotProc_0
 0007:0000D85A       aSDErrorStatusD
 0007:0000D875       aSDKeytypeDKeyi
 0007:0000D8BF       aCsrroamgetqosi
 0007:0000D8E2       aLostLinkRoamin
 0007:0000D901       aSDGetsAnUnkn_0
 0007:0000D925       aSDFailedToIs_0
 0007:0000D950       aSDReasonD
 0007:0000D967       aSDCalled_2
 0007:0000D977       aSDRoamreasonD
 0007:0000D993       aSDCannotFindAR
 0007:0000D9BA       aSDIsCalled
 0007:0000D9CD       aSDNoProfileSpe
 0007:0000D9EA       aSDCalledBsstyp
 0007:0000DA26       aSDNotConnected
 0007:0000DA63       aSDNotConnect_0
 0007:0000DA8E       aSDFailedToStar
 0007:0000DAB6       aSDIsCalledWith
 0007:0000DAD6       aCsrscangetresu
 0007:0000DB09       aCsrFailedToIss
 0007:0000DB48       aSDRestoreAcWei
 0007:0000DB73       aCsrAttemptin_0
 0007:0000DBC6       aSDFailToSend_1
 0007:0000DBE6       aSDAssociationI
 0007:0000DC0F       aSDDisassociati
 0007:0000DC3B       aSDDeauthentica
 0007:0000DC69       aSDEwni_sme_swi
 0007:0000DC93       aSDEwni_sme_dea
 0007:0000DCB9       aSDEwni_sme_dis
 0007:0000DCEF       aSDWpsPbcProbeR
 0007:0000DD22       aCsrEsir_sme_ib
 0007:0000DD57       aCsrEsir_sme_jo
 0007:0000DD87       aCsrHandlingEsi
 0007:0000DDAE       aCsrPeerDeparte
 0007:0000DDD8       aCsrRoamComplet
 0007:0000DE31       aCsrRoamCompl_0
 0007:0000DE73       aCsrSetkeyCompl
 0007:0000DEB1       aSDStatsRspFrom
 0007:0000DECC       aSDGetrssireqFr
 0007:0000DEEA       aSDPgetrssireqP
 0007:0000DF14       aSDPgetrssireqR
 0007:0000DF3F       aSDPgetrssireqI
 0007:0000DF5C       aSDSendIndicati
 0007:0000DFBA       aSDEstablishLog
 0007:0000E004       aSDAssociationC
 0007:0000E043       aSDProcessingRo
 0007:0000E067       aSDReceivesAsso
 0007:0000E090       aSDCannotParseI
 0007:0000E0AB       aSDSetContextFo
 0007:0000E0D3       aSDFailedToSt_0
 0007:0000E0FE       aUapsd_mask0xXS
 0007:0000E129       aSDChangeAcWeig
 0007:0000E153       aRoamCommandDoe
 0007:0000E17B       aSDCannotStartB
 0007:0000E1A1       aSDBmpsRetryTim
 0007:0000E1D5       aSDReceivesStar
 0007:0000E1FF       aSDCannotPars_0
 0007:0000E21E       aStartbssForWds
 0007:0000E249       aSDReceivesSile
 0007:0000E277       aSDReceivesSi_0
 0007:0000E2AA       aSDFailedToJoin
 0007:0000E2C6       aSDReceivesNoAs
 0007:0000E2F2       aSDRoamReasonDF
 0007:0000E314       aRoamqRoamCompl
 0007:0000E330       aCsrroamcomplet
 0007:0000E36E       aCsrRoamCompl_1
 0007:0000E3AE       aCsrRoamCompl_2
 0007:0000E3EA       aBssDescSsidIsA
 0007:0000E409       aBothBssDescAnd
 0007:0000E438       aCanNotFindMatc
 0007:0000E458       aSDFailToParseI
 0007:0000E473       aSDDetectSamePr
 0007:0000E4AF       aSDFailToIssueD
 0007:0000E4D5       aSCsrConcurrent
 0007:0000E4F6       aSDConcurrentCh
 0007:0000E51B       aSDCannotCont_0
 0007:0000E545       aSDFailedToIs_1
 0007:0000E57A       aSDFailedToIs_2
 0007:0000E5AB       aCfg_cnfWithAct
 0007:0000E5CE       aSDRoamCommandC
 0007:0000E5F0       aCfgSequenceCom
 0007:0000E607       aCsrStartBssFai
 0007:0000E61E       aProambssentryI
 0007:0000E636       aSDFoundBsstype
 0007:0000E676       aSDFailToPars_0
 0007:0000E693       aSDCallingCsrro
 0007:0000E6BE       aSDReceivedEcsr
 0007:0000E6E0       aFailedToReissu
 0007:0000E721       aFailedToReis_0
 0007:0000E756       aCommandIsNotRo
 0007:0000E784       aDisassocRspCan
 0007:0000E7C5       aCsrroamroaming
 0007:0000E7FB       aCsrSmedisassoc
 0007:0000E830       aCsrroamroami_0
 0007:0000E880       aSDCsrroamprepa
 0007:0000E8C5       aCsrroamroami_1
 0007:0000E906       aSDFailToAllo_1
 0007:0000E938       aCsrSmedisass_0
 0007:0000E967       aSmedisassocreq
 0007:0000E997       aMessageD0x04xR
 0007:0000E9C3       aSmejoinreqFail
 0007:0000E9F4       aSDIsNoOp
 0007:0000EA06       aCsrSmeauthreqS
 0007:0000EA21       aCsrSmeauthreqF
 0007:0000EA56       aCsrSmereassocr
 0007:0000EA74       aCsrSmereasso_0
 0007:0000EAAC       aEwni_sme_disas
 0007:0000EAD1       aCsrSmedeauthre
 0007:0000EAFE       aSmedeauthreqFa
 0007:0000EB2C       aSmestartbssreq
 0007:0000EB47       aSmestartbssr_0
 0007:0000EB77       aCsrPeerDepar_0
 0007:0000EBB2       aUnexpectedMess
 0007:0000EBEE       aSDFailedToGe_0
 0007:0000EC0F       aIsftsupportedD
 0007:0000EC23       aIsftresourcere
 0007:0000EC3D       aNneighborscant
 0007:0000EC5D       aNneighborreass
 0007:0000EC81       aNneighborlooku
 0007:0000ECA4       aNneighborscanm
 0007:0000ECC3       aNneighborsca_0
 0007:0000ECE2       aNmaxneighborre
 0007:0000ECFC       aNneighborresul
 0007:0000ED20       aSDNumOfChannel
 0007:0000ED51       aD
 0007:0000ED57       aFailedToSetBan
 0007:0000ED84       aFailedToSetB_0
 0007:0000EDB2       aBandChangedToU
 0007:0000EDE7       aSDropScanReaso
 0007:0000EE0E       aSCallbackScanR
 0007:0000EE2A       aCsrAbortStanda
 0007:0000EE4A       aDelStaRspStatu
 0007:0000EE63       aInSEwni_sme_de
 0007:0000EEBB       aInSEwni_sme__1
 0007:0000EF04       aCsrinitchannel
 0007:0000EF3E       aCsrstartCouldn
 0007:0000EF68       aSDInvalidCount
 0007:0000EF8F       aSDCountryCodeS
 0007:0000EFA9       aSDFailToGetReg
 0007:0000EFDA       aSDFailToGetNv_
 0007:0000F000       aSDCountryCodeF
 0007:0000F025       a4WlanVosAss_18
 0007:0000F048       aHomeAaProje_18
 0007:0000F0DC       aMessageD0x04_0
 0007:0000F11A       aSDHandlingMsg0
 0007:0000F146       aMessage0x04xIs
 0007:0000F180       aUnknown_1
 0007:0000F188       aSDIsNotWhatItI
 0007:0000F1C8       aSDWarningSeesE
 0007:0000F1FB       aSDDoesnTExpect
 0007:0000F225       aSDCsrscangetba
 0007:0000F25E       aMatchBkid02x02
 0007:0000F28C       aCsrlookupbkidC
 0007:0000F2D0       aMatchPmkid02x0
 0007:0000F2FF       aCsrlookuppmkid
 0007:0000F345       aSDDoesnTMatchC
 0007:0000F36B       aSDNoIes
 0007:0000F37D       aSDFailedToAl_0
 0007:0000F3A1       a4WlanVosAss_19
 0007:0000F3C4       aHomeAaProje_19
 0007:0000F452       aCsrretrievewpa
 0007:0000F489       aCsrretrievewap
 0007:0000F4C2       aCsrretrieversn
 0007:0000F4F9       aSDFailToPars_1
 0007:0000F516       aEcsr_roam_canc
 0007:0000F52A       aEcsr_roam_ro_0
 0007:0000F542       aEcsr_roam_ro_1
 0007:0000F55F       aEcsr_roam_as_1
 0007:0000F57B       aEcsr_roam_as_2
 0007:0000F59C       aEcsr_roam_di_2
 0007:0000F5B4       aEcsr_roam_shou
 0007:0000F5CA       aEcsr_roam_scan
 0007:0000F5E7       aEcsr_roam_lo_1
 0007:0000F5FA       aEcsr_roam_r_28
 0007:0000F610       aEcsr_roam_r_29
 0007:0000F629       aEcsr_roam_r_30
 0007:0000F645       aEcsr_roam_r_31
 0007:0000F665       aEcsr_roam_r_32
 0007:0000F682       aEcsr_roam_r_33
 0007:0000F69A       aEcsr_roam_r_34
 0007:0000F6B8       aEcsr_roam_r_35
 0007:0000F6D4       aEcsr_roam_r_36
 0007:0000F6F1       aEcsr_roam_r_37
 0007:0000F70F       aEcsr_roam_r_38
 0007:0000F72E       aEcsr_roam_r_39
 0007:0000F74D       aEcsr_roam_r_40
 0007:0000F76D       aSDSignalBtEven
 0007:0000F7A6       aSDInvalidEvent
 0007:0000F7C3       aAninet
 0007:0000F7CA       aCsr850860
 0007:0000F7D8       aCsrCsrTestingC
 0007:0000F7FE       aBtcFakeBtEvent
 0007:0000F822       aSDDisconnectIn
 0007:0000F868       aSDIgnoringDisc
 0007:0000F8A1       aSDIgnoringDi_0
 0007:0000F8D1       aSDReceivedDisc
 0007:0000F8FF       aSDTransitionin
 0007:0000F923       aSDNeighborRoam
 0007:0000F959       aSDAddedBssid02
 0007:0000F9A4       aSDPreauthFailL
 0007:0000F9E0       aSDPurgingThePr
 0007:0000FA06       a4WlanVosAss_20
 0007:0000FA29       aHomeAaProje_20
 0007:0000FABF       aSDScanFilterSs
 0007:0000FAE9       aSDFilteringFor
 0007:0000FB2D       aSDScanFilterCh
 0007:0000FB5F       aSDResponseWait
 0007:0000FB8D       aSDLlOpenOfPrea
 0007:0000FBBC       aSDMemoryAllo_0
 0007:0000FBF2       aSDLlOpenOfRoam
 0007:0000FC1D       aSDMemoryAllo_1
 0007:0000FC62       aChannelListFro
 0007:0000FC83       aSDNeighborScan
 0007:0000FCD8       aSDDeregisterin
 0007:0000FD26       aSDCouldnTDereg
 0007:0000FD8A       aSDNon11rAssoci
 0007:0000FDDD       aSDRegisteringU
 0007:0000FE27       aSDCouldnTRegis
 0007:0000FE87       aSDDownEventRec
 0007:0000FEC4       aSDNeighborLook
 0007:0000FF11       aIgnoringTheInd
 0007:0000FF42       aSDCsrneighborr
 0007:0000FF8D       aSDCouldnTAlloc
 0007:0000FFE7       aSDCsrScanReque
 0007:00010016       aSDChannelListA
 0007:0001004D       aSDChannelLis_0
 0007:00010071       aSDChannelListF
 0007:0001009A       aSDIssueOfBgSca
 0007:000100CF       aSDCompletedSca
 0007:0001012A       aSDAlreadyBgsca
 0007:00010150       aSDNeighborSc_0
 0007:00010195       aSDBssid02x02x0
 0007:000101E6       aSDNumberOfHand
 0007:00010210       aSDHandoffCandi
 0007:0001024E       aCsrroamhandoff
 0007:00010288       aCsrroamhando_0
 0007:000102BE       aSDRoamableApLi
 0007:000102E3       aSDSendPreauthR
 0007:0001031D       aSDPreauthRes_0
 0007:0001035E       aSDReassocIndic
 0007:00010389       aSDDeregister_0
 0007:000103CE       aSDCouldnTDer_0
 0007:00010423       aSDDeregister_1
 0007:0001046E       aSD11rReassocIn
 0007:000104AD       aSDNon11rReasso
 0007:000104F0       aSDRemovingNeig
 0007:00010539       aSDPreauthCompl
 0007:00010570       aSDPreauthFaile
 0007:000105A5       aSDNeighborResu
 0007:000105E9       aSDEmptyingTheB
 0007:0001061C       aSDNeighborRo_0
 0007:0001064C       aSDDeregister_2
 0007:00010698       aSDCouldnTDer_1
 0007:000106FA       aSDRegisteringD
 0007:00010746       aSDCouldnTReg_0
 0007:000107A8       aSDNeighborLo_0
 0007:000107F3       aSDReceivedInCo
 0007:00010861       aSDCsrneighbo_0
 0007:000108B6       aSDChannelListS
 0007:000108F3       aSDScanFilterBs
 0007:0001091E       aSD11rAssociati
 0007:00010958       aSDNon11rAsso_0
 0007:00010996       aSDScanFilterPr
 0007:000109DF       aSDGetScanResul
 0007:00010A06       aSDScanResultBs
 0007:00010A41       aSDBssidPresent
 0007:00010A78       aSDIgnoringBssA
 0007:00010ABC       aSDMemoryAllo_2
 0007:00010B08       aSDMemoryAllo_3
 0007:00010B5A       aSDCompletedS_0
 0007:00010BBB       aSDNoCandidateF
 0007:00010BF4       aSDPaltimerstop
 0007:00010C21       aSDRegisterin_0
 0007:00010C6F       aSDCouldnTReReg
 0007:00010CCD       aSDNeighborRe_0
 0007:00010D11       aSDRegisterin_1
 0007:00010D54       aSDCouldnTReg_1
 0007:00010DA7       aSDDeregister_3
 0007:00010DF3       aSDCouldnTDer_2
 0007:00010E50       aSDConnectIndic
 0007:00010E93       aSDRegisteringN
 0007:00010ED5       aSDCouldnTReg_2
 0007:00010F30       aSDConnectEvent
 0007:00010F70       aSFilteridD
 0007:00010F82       aSNotAbleToAllo
 0007:00010FC8       aSNotAbleToPost
 0007:00011019       aSNotAbleToAl_0
 0007:00011050       aSNotAbleToPo_0
 0007:00011084       aSStarted
 0007:0001108F       aSNotAbleToAl_1
 0007:000110CC       aSNotAbleToPo_1
 0007:00011107       aSNotAbleToAl_2
 0007:00011137       aSWda_set_keep_
 0007:00011156       aSNotAbleToAl_3
 0007:0001118D       aBuffTpDInputTp
 0007:000111A5       aSNotAbleToPo_2
 0007:000111DC       aSNotAbleToAl_4
 0007:00011215       aSNotAbleToPo_3
 0007:0001124E       aFailedToCalcul
 0007:00011291       aFailedToPackAP
 0007:000112BB       aSSsidSS
 0007:000112CD       aSDEnteringPmci
 0007:00011309       aSDInvalidPower
 0007:0001132D       aSDEnteringPmcq
 0007:00011352       aSDEnteringPmcg
 0007:0001138E       aSDEnteringPmcs
 0007:000113BE       aSDInvalidEve_0
 0007:000113D8       aSDCannotFreeMe
 0007:000113F5       aPmcEnteringPmc
 0007:0001140F       aPmcEnteringP_0
 0007:00011434       aSDPatternIdMus
 0007:00011460       aSDCannotDelete
 0007:0001149B       aSDSendOfEwni_p
 0007:000114D6       aPmcEnteringP_1
 0007:000114FB       aSDNullBroadcas
 0007:00011528       aSDCannotAddWow
 0007:00011560       aSDSendOfEwni_0
 0007:0001159B       aSDEnteringPmcd
 0007:000115D5       aSDEnteringPmce
 0007:0001160E       aSDEnteringPmcr
 0007:00011628       aSDPmcreadyIsIn
 0007:00011659       aSDEnteringPm_0
 0007:00011695       aSDImpsConfigur
 0007:000116B0       aEnterOnAcD
 0007:000116CB       aSDBmpsConfigur
 0007:000116E6       aTxThresholdD
 0007:00011702       aRxThresholdD
 0007:0001171E       aTrafficMeasure
 0007:0001174D       aBmpsPeriodD
 0007:00011768       aBeaconsToForwa
 0007:0001178F       aValueOfND
 0007:000117A9       aUsePsPollD
 0007:000117C4       aSetPmOnLastFra
 0007:000117E8       aValueOfEnableb
 0007:0001181D       aValueOfBcnearl
 0007:0001184E       aSDSmpsConfigur
 0007:00011869       aModeD
 0007:0001187D       aSDEnteringPm_1
 0007:000118B0       aSDCannotRemove
 0007:000118EF       aSDCannotFree_0
 0007:0001193A       aSDEnteringPm_2
 0007:00011967       aSDCannotFree_1
 0007:000119AB       aSDCannotRemo_0
 0007:000119E6       aSDEnteringPm_3
 0007:00011A17       aSDCannotAllo_7
 0007:00011A60       aSDEnteringPm_4
 0007:00011A8B       aSDCannotAllo_8
 0007:00011AD3       aPmcIbssStarted
 0007:00011AFE       aPmcBtAmpExists
 0007:00011B2A       aPmcEnteringP_2
 0007:00011B4A       aPmcCannotEnter
 0007:00011B7A       aSDRequestingSt
 0007:00011BA9       aSDPmcreadyDPmc
 0007:00011BCE       aWlanIbssOrBtAm
 0007:00011C11       aPmcEnteringP_3
 0007:00011C2C       aPmcDeviceIsAlr
 0007:00011C6C       aPmcEnteringP_4
 0007:00011C89       aPmcDeviceAlrea
 0007:00011CB1       aPmcCannotAlloc
 0007:00011CF2       aPmcStaNotAssoc
 0007:00011D23       aPmcIbssStart_0
 0007:00011D4E       aPmcBtAmpExis_0
 0007:00011D7A       aPmcMultipleAct
 0007:00011DB8       aPmcEnteringP_5
 0007:00011DD4       aSDRequestingWo
 0007:00011E00       aPmcCannotEnt_0
 0007:00011E2A       aPmcCannotEnt_1
 0007:00011E54       aPmcCannotEnabl
 0007:00011EBF       aPmcCannotReque
 0007:00011EF0       aPmcPowerSaveCh
 0007:00011F31       aPmcEnteringP_6
 0007:00011F4D       aSDRequestingUa
 0007:00011F7A       aPmcCannotEnt_2
 0007:00011FA5       aPmcCannotEnt_3
 0007:00011FD1       aPmcStaNotAss_0
 0007:0001200E       aPmcCannotAll_0
 0007:00012056       aSDEnteringPmcm
 0007:0001208D       aSDRcvdEwni_pmc
 0007:000120C3       aSDGotEwni_pmc_
 0007:000120F9       aSDExitBmpsIndi
 0007:00012134       aSDProcessMessa
 0007:00012152       aSDRcvdEwni_p_0
 0007:00012189       aSDRcvdEwni_p_1
 0007:000121BF       aSDResponseMess
 0007:0001220F       aPmcResponseMes
 0007:0001225F       aPmcEnterImpsRs
 0007:00012294       aSDRcvdEwni_p_2
 0007:000122CA       aSDRcvdEwni_p_3
 0007:000122FF       aSDGotExitImpsR
 0007:00012339       aSDResponseMe_0
 0007:00012388       aSDRcvdEwni_p_4
 0007:000123BF       aSDRcvdEwni_p_5
 0007:000123F5       aSDGotEnterBmps
 0007:00012430       aSDResponseMe_1
 0007:00012480       aSDRcvdEwni_p_6
 0007:000124B6       aSDRcvdEwni_p_7
 0007:000124EB       aSDGotExitBmpsR
 0007:00012525       aSDResponseMe_2
 0007:00012574       aSDRcvdEwni_p_8
 0007:000125AC       aSDRcvdEwni_p_9
 0007:000125E3       aSDGotEnterUaps
 0007:0001261A       aPmcResponseM_0
 0007:00012668       aSDRcvdEwni__10
 0007:0001269F       aSDRcvdEwni__11
 0007:000126D5       aSDGotExitUapsd
 0007:0001270B       aPmcResponseM_1
 0007:00012758       aSDRcvdEwni__12
 0007:0001278E       aSDGotEwni_pm_0
 0007:000127C5       aPmcResponseM_2
 0007:00012812       aSDRcvdEwni__13
 0007:00012847       aSDGotExitWowlR
 0007:0001287C       aPmcResponseM_3
 0007:000128C8       aSDInvalidMessa
 0007:000128F2       aSDMessageTypeD
 0007:0001292C       aSDEnteringPm_5
 0007:0001294C       aSDEnteringPm_6
 0007:00012971       aSDRequestingFu
 0007:000129A3       aSDCannotCancel
 0007:000129C5       aSDCannotAllo_9
 0007:00012A0F       aSDEnteringPm_7
 0007:00012A36       aSDEnteringPm_8
 0007:00012A5E       aPmcCannotEna_0
 0007:00012A8F       aSDEnteringPmcc
 0007:00012AAA       aSDCannotDeallo
 0007:00012AD0       aSDCannotDeal_0
 0007:00012AF9       aSDCannotDeal_1
 0007:00012B2F       aSDEnteringPm_9
 0007:00012B49       aSDCannotCanc_0
 0007:00012B7B       aSDEnteringP_10
 0007:00012B96       aSDEnteringPmco
 0007:00012BB0       aSDCannotAll_10
 0007:00012BD8       aSDCannotAll_11
 0007:00012C0F       aSDCannotAll_12
 0007:00012C43       aSDCannotInitia
 0007:00012C7C       aSDCannotInit_0
 0007:00012CC0       aPmcCannotIniti
 0007:00012CFB       aPmcCannotIni_0
 0007:00012D3D       aPmcCannotIni_1
 0007:00012D82       aSDCannotInit_1
 0007:00012DAF       aUnknown_2
 0007:00012DB7       aPmcEnteringP_7
 0007:00012DD9       aPmcEnteringP_8
 0007:00012DFE       aSDBmpsIsNotEna
 0007:00012E2A       aSDNoInfraSessi
 0007:00012E5D       a4WlanVosAss_21
 0007:00012E80       aHomeAaProje_21
 0007:00012F0A       aSDFailToGetC_0
 0007:00012F4D       aSDCommand0xXCa
 0007:00012F8D       aSFailToAllocat
 0007:00012FBB       aExitBmpsMustHa
 0007:00012FDF       aSDInvalidComma
 0007:00013002       aPmcEnteringP_9
 0007:00013029       aPmcFailureToSe
 0007:0001305E       aPmcRcvdExitWow
 0007:00013098       aPmcGotExitWowl
 0007:000130DE       aPmcEntering_10
 0007:0001310B       aPmcTryingToEnt
 0007:00013148       aPmcFailureTo_0
 0007:0001317E       aSDCannotAll_13
 0007:000131B3       aSDCannotCopyPa
 0007:000131E5       aSDFailedToRequ
 0007:00013217       aSDPmcUpdateReg
 0007:00013258       aSDEnteringPmcp
 0007:0001327C       aSDCheckroutine
 0007:000132B7       aPmcCannotIni_2
 0007:000132E4       aSDRequestingBm
 0007:00013310       aSDPmcreadyDP_0
 0007:00013335       aPmcStaNotAss_1
 0007:0001338C       aPmcDeviceNotIn
 0007:000133CD       aPmcPowerSave_0
 0007:00013407       aSDRequestingIm
 0007:00013433       aSDImpsIsDisabl
 0007:0001344D       aSDImpsIsDisa_0
 0007:00013482       aSDImpsCannotBe
 0007:000134A6       aSDAlreadyInI_0
 0007:000134BF       aPmcEntering_11
 0007:000134E7       aPmcEntering_12
 0007:00013509       aSDEnteringP_11
 0007:00013530       aSDTrafficTimer
 0007:0001355C       aSDCannotStartT
 0007:00013580       aSDEnteringP_12
 0007:000135A7       aSDCannotExitLo
 0007:000135E1       aSDEnteringP_13
 0007:00013607       aPmcEntering_13
 0007:00013632       aPmcTryingToE_0
 0007:00013664       aPmcFailureTo_1
 0007:0001369A       aSDEnteringP_14
 0007:000136C5       aSDTryingToEnte
 0007:000136FF       aPmcFailureTo_2
 0007:00013735       aPmcEnterBmpsCo
 0007:0001375D       aSDEwni_pmc_ent
 0007:00013789       aPmcEntering_14
 0007:000137B1       aPmcDeviceInFul
 0007:00013800       aPmcBmpsTransac
 0007:0001383F       aPmcFailureTo_3
 0007:00013875       aPmcEnterWowlTr
 0007:000138C6       aPmcExitWowlTra
 0007:0001390E       aPmcTryingToE_1
 0007:0001393D       aPmcEntering_15
 0007:0001396B       aPmcPowerSave_1
 0007:000139B6       aPmcDeviceInF_0
 0007:00013A0C       aPmcStateD
 0007:00013A1D       aPmcTryingToE_2
 0007:00013A4D       aSDFailToReques
 0007:00013A7E       aSDBmpsTrafficT
 0007:00013AA1       aSDGotTrafficTi
 0007:00013AD2       aSDBmpsTraffi_0
 0007:00013B1F       aSDRemainInPowe
 0007:00013B74       aSDCannotReStar
 0007:00013B9B       aSDBmpsTimerSho
 0007:00013BC4       aSDBmpsEntryCri
 0007:00013C01       aSDPowerSaveChe
 0007:00013C39       aSDEnteringP_15
 0007:00013C64       aSDTryingToEn_0
 0007:00013C9E       aSDEwni_pmc_e_0
 0007:00013CCA       aSDEnteringP_16
 0007:00013CEB       aSDCannotFreeRe
 0007:00013D26       aSDEnteringP_17
 0007:00013D58       aSDCannotAll_14
 0007:00013D84       aSDCannotCopyMe
 0007:00013DA6       aSDCannotSendMe
 0007:00013DC3       aSDEnteringP_18
 0007:00013DEC       aSDSendOfEwni_1
 0007:00013E27       aSDSendOfEwni_2
 0007:00013E5B       aSDUnknownMessa
 0007:00013E79       aSDTryingToEn_1
 0007:00013EB1       aPmcEnterFullPo
 0007:00013EE5       aCouldNotCancel
 0007:00013F3B       aSDAbortingRequ
 0007:00013F63       aSDAbortingRe_0
 0007:00013F8B       aSDAbortingRe_1
 0007:00013FB4       aSDAbortingRe_2
 0007:00013FDC       aSDAbortingRe_3
 0007:00014006       aSDAbortingRe_4
 0007:0001402F       aSDAbortingRe_5
 0007:00014058       aSDAbortingRe_6
 0007:00014080       aSDAbortingRe_7
 0007:000140AC       aSDRequestForPm
 0007:000140DD       aSDEnteringP_19
 0007:0001410D       aSDEnteringP_20
 0007:0001413D       aSDRequesting_0
 0007:00014175       aSDCannotRequ_0
 0007:000141A7       aSDRequestForFu
 0007:000141EE       aPmcFailureTo_4
 0007:00014223       aSDTryingToEn_2
 0007:00014263       aPmcEntering_16
 0007:00014284       aPmcTryingToE_3
 0007:000142B3       aPmcEntering_17
 0007:000142D7       aPmcTryingToE_4
 0007:00014309       aPmcEntering_18
 0007:0001432B       aSDEnteringP_21
 0007:0001435A       aSDEnteringP_22
 0007:00014380       aSDGotImpsTimer
 0007:000143AF       aSDEnteringP_23
 0007:000143D3       aSDTryingToEn_3
 0007:00014405       aSDPendingFullP
 0007:00014464       aSDBothUapsdAnd
 0007:000144C8       aSDUapsdSession
 0007:0001451D       aSDWowlIsRequir
 0007:00014568       aPmcFailureTo_5
 0007:000145BA       aSDEwni_pmc_exi
 0007:000145E5       aSDEwni_pmc_e_1
 0007:00014625       aPmcEnterBmpsRe
 0007:00014651       aCouldNotTurnXo
 0007:0001467E       aFailToSendEnte
 0007:000146A1       aInModuleInitCa
 0007:000146EE       aCouldNotCanc_0
 0007:00014742       aPmcFailureTo_6
 0007:00014782       aSDEwni_pmc_e_2
 0007:000147AD       aSDEwni_pmc_e_3
 0007:000147ED       aWlanIbssOrBt_0
 0007:00014830       aSDEnteringP_24
 0007:00014854       aSDTryingToEn_4
 0007:00014886       aSDCannotStar_0
 0007:000148A7       aSDEnteringP_25
 0007:000148CF       aSDCannotCanc_1
 0007:000148F1       aSDCannotCanc_2
 0007:00014923       aStopped
 0007:0001492B       aFull_power
 0007:00014936       aLow_power
 0007:00014940       aRequest_imps
 0007:0001494D       aImps
 0007:00014952       aRequest_bmps
 0007:0001495F       aBmps
 0007:00014964       aRequest_full_p
 0007:00014977       aRequest_start_
 0007:0001498B       aRequest_stop_u
 0007:0001499E       aUapsd
 0007:000149A4       aRequest_standb
 0007:000149B4       aStandby
 0007:000149BC       aRequest_enter_
 0007:000149CF       aRequest_exit_w
 0007:000149E1       aWowl
 0007:000149E6       aReceivedCallba
 0007:00014A25       aDump_pmc_remov
 0007:00014A52       aRequestingWowl
 0007:00014AA1       aReadingOfWni_c
 0007:00014AEA       aPmcStateConfig
 0007:00014B19       aPmcImpsEnabled
 0007:00014B31       aPmcAutoBmpsTim
 0007:00014B54       aPmcBmpsEnabled
 0007:00014B6C       aPmcUapsdEnable
 0007:00014B85       aPmcWowlEnabled
 0007:00014B9D       aPmcStandbyEnab
 0007:00014BB8       aPmcAutoBmpsT_0
 0007:00014BDF       aPmcBmpsListenI
 0007:00014C12       aPmcDeviceState
 0007:00014C2B       aPmcRequestfull
 0007:00014C4F       aPmcUapsdsessio
 0007:00014C70       aPmcWowlmodereq
 0007:00014C8E       aS
 0007:00014C92       aReceivedMsgFro
 0007:00014CD2       aPmc900925
 0007:00014CE0       aPmcDumpStateCo
 0007:00014CF9       aPmcEnableImps
 0007:00014D0A       aPmcDisableImps
 0007:00014D1C       aPmcRequestImps
 0007:00014D51       aPmcStartAutoBm
 0007:00014D6C       aPmcStopAutoBmp
 0007:00014D86       aPmcRequestBmps
 0007:00014D98       aPmcEnableUapsd
 0007:00014DAA       aPmcDisableUaps
 0007:00014DBD       aPmcStartUapsd
 0007:00014DCE       aPmcStopUapsd
 0007:00014DDE       aPmcRequestStan
 0007:00014DF3       aPmcRequestFull
 0007:00014E0B       aPmcTestUapsd
 0007:00014E1B       aPmcTestWowl
 0007:00014E2A       aPmcEnterWowlSy
 0007:00014E73       aPmcExitWowl
 0007:00014E82       aPmcRemoveAPatt
 0007:00014EBC       aPmcEnableBmps
 0007:00014ECD       aPmcDisableBmps
 0007:00014EDF       aSDOnSessionDNe
 0007:00014F1B       aSDUpDAcDReturn
 0007:00014F3C       aSDAcDUpDReturn
 0007:00014F5D       aSDInvalidAcDVi
 0007:00014F7F       aSDQosDefaultPa
 0007:00014FB4       aSDSessionIdDIs
 0007:00014FD5       aSDSessionDIsIn
 0007:00014FF4       aSDSessionDHasA
 0007:00015025       aSDOnSessionDUn
 0007:00015053       aSDOnSessionDHt
 0007:000150A6       aSDValidationFo
 0007:000150C8       aSDCsrgetparsed
 0007:000150F7       aSDApDoesnTSupp
 0007:00015116       aSDApDoesnTSu_0
 0007:00015136       aSDValidatedWit
 0007:00015159       aSDEntryIsNull
 0007:0001516F       a4WlanVosAss_22
 0007:00015192       aHomeAaProje_22
 0007:00015220       aSDEntryWithFlo
 0007:00015250       aSDPsirbssdescI
 0007:0001526C       aSDUnknownAcD
 0007:00015284       aSDAcmDForAcD
 0007:000152A1       aSDInvoked
 0007:000152B1       aSDMaskIsD
 0007:000152C4       aSDInvokedOnSes
 0007:000152E2       aSDOnSessionDAc
 0007:00015313       aSDInvokedOnS_0
 0007:00015346       aSDAcDIsInState
 0007:00015366       aSDFlowListEmpt
 0007:0001538C       aSDNothingToPro
 0007:000153B7       aSDIgnoringDevi
 0007:000153E7       aSDMatchFoundOn
 0007:00015414       aSDFailedToProc
 0007:00015434       aSDMatchFound_0
 0007:0001545D       aSDMatchFound_1
 0007:0001548A       aSDInvokedOnS_1
 0007:000154BB       aSDExceededTheA
 0007:000154F2       aSDFlowListEm_0
 0007:0001551D       aSDFlowDMatches
 0007:00015535       aSDSme_qos_csr_
 0007:00015591       aSDNoNeedToNoti
 0007:000155EB       aSDDeletingEntr
 0007:00015617       aSDDeletingOrig
 0007:0001564C       aSDInvokedOnS_2
 0007:0001566A       aSDBufferedList
 0007:000156A7       aSDDeletingEn_0
 0007:000156D1       aSDFlowListEm_1
 0007:000156FC       aSDPassoc_infoI
 0007:00015718       aSDCouldnTAll_0
 0007:00015750       aSDInputIsNullN
 0007:0001577C       aSDCurrentIsNul
 0007:000157A5       aSDInvoked_0
 0007:000157B5       aSDMemoryAllo_4
 0007:000157D7       aSDFlowListEm_2
 0007:00015802       aSDCouldnTBuffe
 0007:00015849       aSDBufferedASet
 0007:00015887       aSDCouldnTBuf_0
 0007:000158D0       aSDBufferedARel
 0007:00015910       aSDCouldnTBuf_1
 0007:00015958       aSDBufferedAMod
 0007:00015997       aSDNoNeedForSta
 0007:000159E0       aSDOutputIsNull
 0007:00015A08       aSDSkippingFlow
 0007:00015A44       aSDSme_qosaggre
 0007:00015A6C       aSDFtReassocReq
 0007:00015AA0       aSDChangingFlow
 0007:00015AE3       aSDCouldnTAll_1
 0007:00015B17       aSDSentDownAAgg
 0007:00015B3E       aSDRicResponseN
 0007:00015B95       aSDRicResponseO
 0007:00015BEC       aSDProcessingRi
 0007:00015C3C       aSDFailedWithSt
 0007:00015C7E       aSDRicResponseS
 0007:00015CD9       aSDInvokedOnS_3
 0007:00015D01       aSDBssDescripto
 0007:00015D3F       aSDUpDTidD
 0007:00015D59       aSDSme_qosdelts
 0007:00015D93       aSDSentDownAAdd
 0007:00015DB7       aSDInvalidCom_0
 0007:00015DD7       aSDPackingOfRic
 0007:00015E16       aAcDTspecStatus
 0007:00015E46       aSDFailToGetC_1
 0007:00015E78       aSDNullPointerP
 0007:00015E94       aSDOnSessionDAp
 0007:00015EC1       aSDRequestIsLoo
 0007:00015F0B       aSDSme_qosaddts
 0007:00015F2C       aSDOnSessionDAd
 0007:00015F5C       aSDOnSessionDRe
 0007:00015F9A       aSDUnableToRequ
 0007:00015FC2       aSDOnSessionD_0
 0007:00016009       aSDRequestIsNot
 0007:00016060       aSDOnSessionD_1
 0007:0001608E       aSDRequestIsL_0
 0007:000160D3       aSDOnSessionD_2
 0007:00016110       aSDNoSupportFor
 0007:0001613D       aSDInvokedForFl
 0007:00016159       aSDNoMatchFound
 0007:00016180       aSDBufferingThe
 0007:000161DF       aSDBufferingT_0
 0007:00016235       aSDCouldnTBuf_2
 0007:0001626F       aSDBufferedRele
 0007:0001629E       aSDTspec_mask_s
 0007:000162E4       aSDOnSessionDBu
 0007:00016360       aSDOnSessionD_3
 0007:000163B8       aSDOnSessionDWi
 0007:00016416       aSDCouldnTNotif
 0007:0001644B       aSDOnSessionD_4
 0007:0001648F       aSDOnSessionDDe
 0007:000164C9       aSDSme_qosupdat
 0007:000164EE       aSDSme_qosdel_0
 0007:0001650F       aSDReassocFaile
 0007:00016526       aSDNothingToDoF
 0007:00016548       aSDExceededTh_0
 0007:00016580       aSDReleaseReque
 0007:000165B1       aSDNoMoreBuffer
 0007:000165E1       aSDSme_qosinter
 0007:00016616       aSDSme_qosint_0
 0007:0001664D       aSDSme_qosint_1
 0007:00016683       aSDSme_qosrereq
 0007:000166B6       aSDOnSessionD_5
 0007:000166DD       aSDCmdBufferEmp
 0007:000166F6       aSDInvokedOnS_4
 0007:00016727       aSDOnSessionD_6
 0007:000167A9       aSDSme_qossetup
 0007:000167F8       aSDUapsdIsSetup
 0007:0001683C       aSDUnexpectedSt
 0007:00016874       aSDReAddRequest
 0007:000168AD       aSDCouldnTBuf_3
 0007:000168E5       aSDReaddRequest
 0007:00016914       aSDSessionDIsAc
 0007:00016931       aSDOnSessionD_7
 0007:0001695C       aSDOnSessionD_8
 0007:00016988       aSDOnSessionD_9
 0007:000169D1       aSDOnSession_10
 0007:00016A13       aSDOnSession_11
 0007:00016A38       aSDOnSessionDFa
 0007:00016A62       aSDPmcFailedToP
 0007:00016A93       aSDInvokedOnS_5
 0007:00016ABB       aSDInvalidAcDFr
 0007:00016ADC       aSDOnSessionDAn
 0007:00016B13       aSDExceededTh_1
 0007:00016B53       aSDOnSessionDNo
 0007:00016B82       aSDOnSession_12
 0007:00016BB3       aSDAddtsRespons
 0007:00016BF9       aSDInvokedOnS_6
 0007:00016C2B       aSDPevent_infoI
 0007:00016C47       aSDPbssdescIsNu
 0007:00016C60       aSDSme_qossavea
 0007:00016C86       aSDNoMatchFou_0
 0007:00016CA9       aSDAssocWithThe
 0007:00016CDB       aSDWrongStateBe
 0007:00016D0B       aSDOnSessionDEv
 0007:00016D3C       aSDOnSession_13
 0007:00016D75       aSDOnSessionDPr
 0007:00016DAD       aSDInvokedOnS_7
 0007:00016DD5       aSDInvalidParam
 0007:00016DEC       aSDModification
 0007:00016E24       aSDBufferingT_1
 0007:00016E82       aSDBufferingT_2
 0007:00016ED7       aSDCouldnTBuf_4
 0007:00016F10       aSDBufferedModi
 0007:00016F3E       aSDCouldnTAll_2
 0007:00016F82       aSDOnSessionDCr
 0007:00016FC5       aSDBufferingMod
 0007:00017000       aSDModifyReques
 0007:00017032       aSDInvokedOnS_8
 0007:0001705C       aSDCallerSentAn
 0007:00017098       aSDBufferingT_3
 0007:000170F5       aSDBufferingT_4
 0007:00017149       aSDCouldnTBuf_5
 0007:00017181       aSDBufferedSetu
 0007:000171AE       aSDOnSession_14
 0007:0001720D       aSDOnSession_15
 0007:00017279       aSDCreatingEntr
 0007:000172B3       aSDBufferingSet
 0007:000172ED       aSDOnSessionDCo
 0007:0001733F       aSDTspec_mask_0
 0007:0001736A       aSDTspec_mask_1
 0007:000173A9       aSDTmaskDNew_tm
 0007:000173DA       aSDFailedToAggr
 0007:000173FD       aSDNoFlowsRunni
 0007:00017436       aSDCreatingFlow
 0007:0001744F       aSDOnSession_16
 0007:00017489       aSDSetupRequest
 0007:000174BA       aSDMsgDForQos
 0007:000174D3       aSDUnknownMsgTy
 0007:000174F1       aSDQosReleaseRe
 0007:00017525       aSDUnableToObta
 0007:00017543       aSDQosRelease_0
 0007:00017576       aSDQosModifyReq
 0007:000175A9       aSDQosModifyRet
 0007:000175DB       aSDQosSetupRequ
 0007:0001760F       aSDSuppliedSess
 0007:00017639       aSDSuppliedSe_0
 0007:00017664       aSDSoftwareTest
 0007:000176B6       aSDQosRequestOn
 0007:000176EC       aSDQosSetupRetu
 0007:00017720       aSDClosingDownS
 0007:0001773D       aSDCannotDeregi
 0007:00017780       aSDCannotDere_0
 0007:000177BD       aSDClosedDownQo
 0007:000177D5       aSDInitializing
 0007:000177F9       aSDCannotInit_2
 0007:0001781D       aSDCannotInit_3
 0007:0001784F       aSDCannotRegist
 0007:00017888       aSDCannotRegi_0
 0007:000178C7       aSDDoneInitiali
 0007:000178F0       aSFilteridD_0
 0007:00017902       aSNotAbleToAl_5
 0007:0001794A       aSNotAbleToPo_4
 0007:0001798E       aSFiltertypeDFi
 0007:000179AF       aSNotAbleToAl_6
 0007:000179F5       aPktFltReqFtDFi
 0007:00017A11       aPktFltReqParam
 0007:00017A2F       aProtoDCompFlag
 0007:00017A47       aDataOffsetDDat
 0007:00017A63       aCdataDDDDDD
 0007:00017A7D       aMdataDDDDDD
 0007:00017A97       aSNotAbleToPo_5
 0007:00017AD9       aSUlmulticastad
 0007:00017B08       aSNotAbleToAl_7
 0007:00017B48       aSNotAbleToPo_6
 0007:00017B84       aSNotAbleToAl_8
 0007:00017BB4       aSNotAbleToPo_7
 0007:00017BF3       aXx
 0007:00017BF6       aSetCountryCode
 0007:00017C0F       aSDFailToGetR_0
 0007:00017C2F       aSDFailToSetR_0
 0007:00017C4F       aSDFailToGetCha
 0007:00017C70       aInSMsgPtrIsN_0
 0007:00017C87       aPreferredNetwo
 0007:00017CBB       aSCallbackFaile
 0007:00017CDF       aSmeEnteringSme
 0007:00017D12       aSStatus0xX
 0007:00017D22       aScanCommandRea
 0007:00017D3D       aRoamCommandRea
 0007:00017D58       aWmstatuschange
 0007:00017D7B       aSetkeyCommandA
 0007:00017D9C       aRemovekeyComma
 0007:00017DC0       aCsrstartFailed
 0007:00017DF0       aPmcstartFailed
 0007:00017E20       aWlansap_startF
 0007:00017E55       aUmacpostctrlms
 0007:00017E8B       aPmcquerypowers
 0007:00017EB5       aCsrreadyFailed
 0007:00017ED5       aPmcreadyFailed
 0007:00017EF5       aBtcreadyFailed
 0007:00017F06       aEmptyConfigPar
 0007:00017F3E       aCsrupdateconfi
 0007:00017F6A       aEmptyConfigP_0
 0007:00017FA2       aCsrchangedefau
 0007:00017FD5       aEmptyCountryCo
 0007:00017FFB       aCsrsetreginfoF
 0007:00018020       aSme_openFailed
 0007:0001803B       aCcmopenFailedD
 0007:0001806F       aCsropenFailedD
 0007:000180A3       aPmcopenFailedD
 0007:000180D7       aQosOpenFailedD
 0007:0001810C       aBtcopenOpenFai
 0007:00018145       aMeasinnavopenF
 0007:0001817F       aWlansap_open_0
 0007:000181AE       aWlansap_openOp
 0007:000181EC       aOutOfCommandBu
 0007:0001821C       aOutOfCommand_0
 0007:00018256       aOutOfCommand_1
 0007:00018290       aS_0
 0007:00018294       aS_1
 0007:00018298       aSNotAbleToAl_9
 0007:000182D3       aSNotAbleToPo_8
 0007:00018313       aSOtherConcurre
 0007:00018336       aCsrcloseFailed
 0007:00018367       aWlansap_closeF
 0007:0001839D       aBtcCloseFailed
 0007:000183CF       aQosCloseFailed
 0007:00018401       aInnavCloseFail
 0007:00018435       aCcmcloseFailed
 0007:00018466       aPmccloseFailed
 0007:00018497       aWlansap_stopFa
 0007:000184CA       aPmcstopFailedD
 0007:000184F8       aCsrstopFailedD
 0007:00018526       aCannotProcessC
 0007:0001855A       aSDCannotIssueC
 0007:0001859F       aSDFailedToRe_0
 0007:000185CA       a4WlanVosAss_23
 0007:000185ED       aHomeAaProje_23
 0007:00018682       aCsrprocesscomm
 0007:000186B6       aExitingFunctio
 0007:000186CB       aSUnableToAlloc
 0007:000186E9       aSSettingKeepAl
 0007:0001870D       aSNewInnavMeasu
 0007:0001872F       aSSessionidD
 0007:00018750       aSBssidsU
 0007:00018771       aSMeasurementsU
 0007:00018792       aSRepetitionsU
 0007:000187B3       aSTimeIntervalM
 0007:000187D4       aSDSessionidIsH
 0007:00018807       aSDFilledWith0x
 0007:00018848       aSDCalled_3
 0007:00018859       aCsrchangecount
 0007:00018891       aSme_changecoun
 0007:000188C5       aSDReturned_0
 0007:000188D8       aSDKeylength
 0007:000188EB       aSD02x
 0007:000188F8       aSessionidDRoam
 0007:00018912       aSD
 0007:0001891B       aEmptyConfigP_1
 0007:00018953       aSDEnter
 0007:00018961       aSDExitStatusD
 0007:00018978       aEmptyMessageFo
 0007:000189A3       aEmptyRspMessag
 0007:000189D2       aEmptyRspMess_0
 0007:00018A01       aEmptyRspMess_1
 0007:00018A30       aEmptyRspMess_2
 0007:00018A7A       aEmptyRspMess_3
 0007:00018AC6       aEmptyRspMess_4
 0007:00018B12       aEmptyRspMess_5
 0007:00018B5F       aEmptyRspMess_6
 0007:00018BB0       aEmptyRspMess_7
 0007:00018BF8       aEmptyRspMess_8
 0007:00018C49       aEmptyRspMes_10
 0007:00018C8D       aEmptyRspMess_9
 0007:00018CDF       aEmptyRspMes_11
 0007:00018D3A       aEmptyRspMes_12
 0007:00018D69       aUnknownMessage
 0007:00018D96       aMessageTypeDIn
 0007:00018DBD       aLockingFailedB
 0007:00018DDA       aSDFilledRicIes
 0007:00018DF8       aSDFilledAuthRe
 0007:00018E18       aSDKeylengthD
 0007:00018E2E       aSD02x_0
 0007:00018E3B       aSmeSetKeyidx_0
 0007:00018EB4       aSPftkeyinfoIsN
 0007:00018ECC       aSme_ftupdateke
 0007:00018EF5       aSUnhandledStat
 0007:00018F0D       aSDFtIesIsNull
 0007:00018F26       aFtIesReqIsRece
 0007:00018F4A       aSDMemoryAllo_5
 0007:00018F7C       aFt_ies_lengthD
 0007:00018F8E       aDNewAuthFt_ies
 0007:00018FB7       aPreAuthDoneAnd
 0007:00018FF7       aUnhandledRecep
 0007:00019022       aNewReassocReqP
 0007:00019042       aSDMemoryAllo_6
 0007:00019077       aFt_ies_lengt_0
 0007:00019092       aSDUnhandledSta
 0007:000190AF       aSDFreeingPAndS
 0007:000190D8       aSDSFreeingPAnd
 0007:00019104       aSDPreauthRea_0
 0007:0001913D       aInSMsgPtrIsN_1
 0007:00019154       aCoexIndication
 0007:00019175       aUnknownCoexInd
 0007:0001919A       aBtcgetconfigNu
 0007:000191C4       aBtcsendcfgmsgN
 0007:000191EF       aBtcsendcfgmsgI
 0007:00019225       aBtcsendcfgms_0
 0007:00019263       aBtcsendcfgms_1
 0007:000192A2       aFailureToSendB
 0007:000192C2       aBtccheckheartb
 0007:000192F3       aBtccheckhear_0
 0007:00019323       aBtEventTimeout
 0007:00019354       aSDInvalidHandl
 0007:0001936D       aSDAclEventHist
 0007:000193C7       aSDAclEventOver
 0007:000193E4       aSDSyncEventHis
 0007:0001943F       aSDSyncEventOve
 0007:0001945D       aSDCannotFind_0
 0007:000194AC       aSInvalidLinkTy
 0007:000194F4       aSInvalidConnec
 0007:00019554       aSInvalidModeDF
 0007:00019596       aSNotAbleToA_10
 0007:000195C3       aSBluetoothEven
 0007:000195E3       aScoConnectionC
 0007:00019658       aBdAddr0xX0xX0x
 0007:00019680       aAclConnectionC
 0007:000196B3       aAclModeChangeC
 0007:000196E2       aDisconnectEven
 0007:0001970A       aSNotAbleToPo_9
 0007:00019742       aBtEventDisconn
 0007:0001978D       aBtEventDevice_
 0007:000197D5       aBtEventA2dp_st
 0007:00019815       aBtEventBt_even
 0007:00019862       aBt_event_mode_
 0007:000198A3       aBt_event_creat
 0007:000198FB       a4WlanVosAss_24
 0007:0001991E       aHomeAaProje_24
 0007:000199AB       aSDTooManyScoIg
 0007:000199D2       aSDTsyncComplet
 0007:000199F1       aBt_event_a2dp_
 0007:00019A44       aBtEventDHappen
 0007:00019A7F       aBt_event_a2d_0
 0007:00019AB8       aSNullPointerFo
 0007:00019ADA       aSBtcExecutionM
 0007:00019B2C       aSInvalidBtEven
 0007:00019B6B       aSDFailedToFind
 0007:00019B93       aSDMissingDisco
 0007:00019BC4       aSDAclCompletio
 0007:00019C02       aSDCannotFind_1
 0007:00019C74       aSDFailedToFi_0
 0007:00019C9D       aSDSyncCompleti
 0007:00019CDC       aSDCannotFind_2
 0007:00019D48       aSDCannotFind_3
 0007:00019D98       aSDCannotFind_4
 0007:00019DDD       aSDEventDIsNotD
 0007:00019E02       aBtccloseFailTo
 0007:00019E22       aSDCannotDere_1
 0007:00019E65       aBtcopenFailToI
 0007:00019E81       aBtcopenFailToR
 0007:00019EA9       aInnavIsNotAllo
 0007:00019EE9       aExitingMeasisi
 0007:00019F14       aInnavEnteringF
 0007:00019F31       aInnavSendingMe
 0007:00019F51       aInnavExitingFu
 0007:00019F6D       aInnavMeasMeasr
 0007:00019FCB       aSInnavEntering
 0007:00019FDF       aInSMsgPtrIsN_2
 0007:00019FF6       aInSMsgPtrPmacI
 0007:0001A040       aInSVos_mem_mal
 0007:0001A084       aInSEwni_sme_in
 0007:0001A0CD       aInSEwni_sme__2
 0007:0001A114       aInSCouldNotSta
 0007:0001A141       aNoFurtherMeasu
 0007:0001A186       aInSInnavMeasur
 0007:0001A1A7       aSInnavMeasurem
 0007:0001A1DB       aSInnavMeasur_0
 0007:0001A213       aMeasinnavclose
 0007:0001A24F       aMeasinnavopenC
 0007:0001A299       aExitingFunct_0
 0007:0001A2AE       a4WlanVosAss_25
 0007:0001A2D1       aHomeAaProje_25
 0007:0001A35F       a4WlanVosAss_26
 0007:0001A382       aHomeAaProje_26
 0007:0001A418       aUnknownMessa_0
 0007:0001A458       aReceivedSysMes
 0007:0001A4A5       aReceivedSys_ms
 0007:0001A4E5       aUnknownMessa_1
 0007:0001A525       aReceivedSysM_0
 0007:0001A572       aFailedToValida
 0007:0001A5A1       aFoundTheStatio
 0007:0001A5CB       aFailedToFindSt
 0007:0001A5F8       aHandlingForThe
 0007:0001A62B       aHandlingForT_0
 0007:0001A66B       aMessageOfIdDIs
 0007:0001A698       aReceivedSys__0
 0007:0001A6D4       aProcessingSysM
 0007:0001A6EB       aSInvalidHhal
 0007:0001A6FC       aReceivedSys__1
 0007:0001A73C       aUnknownMessa_2
 0007:0001A77C       aReceivedSysM_1
 0007:0001A7C8       aSInvalidVoscon
 0007:0001A7DF       aSInvalidHhal_0
 0007:0001A7F0       a4WlanVosAss_27
 0007:0001A813       aHomeAaProje_27
 0007:0001A8AF       aTx_timer_runni
 0007:0001A8D7       aTx_timer_delet
 0007:0001A8FE       aTx_timer_deact
 0007:0001A929       aUnableToStopTi
 0007:0001A94E       a4WlanVosAss_28
 0007:0001A971       aHomeAaProje_28
 0007:0001AA13       aTimerSTriggere
 0007:0001AA27       aUnableToResche
 0007:0001AA51       aTimerSBeingAct
 0007:0001AA6B       aTimerSNowActiv
 0007:0001AA83       aTimerSIsAlread
 0007:0001AAA0       aTimerSFailsToA
 0007:0001AABC       aCannotCreateTi
 0007:0001AAD8       aCreatingPeriod
 0007:0001AAF8       aSDNoOp_NeedToC
 0007:0001AB36       aSDReasonCode0x
 0007:0001AB52       a4WlanVosAss_29
 0007:0001AB75       aHomeAaProje_29
 0007:0001AC14       aSDCalled_4
 0007:0001AC24       aSDPmacPresetms
 0007:0001AC45       aSDPmacDumptabl
 0007:0001AC6B       aSDRxMgmtFrameS
 0007:0001AC8E       aSDPostingToLim
 0007:0001ACB6       aBbtReceivedInv
 0007:0001ACF9       aCategory
 0007:0001AD02       aAction
 0007:0001AD09       aDialogtoken
 0007:0001AD15       aStatuscode
 0007:0001AD20       aWmmtspec
 0007:0001AD29       aTpcrequest
 0007:0001AD34       aTpcreport
 0007:0001AD3E       aSmpowermodeset
 0007:0001AD4D       aCapabilities
 0007:0001AD5A       aStatus
 0007:0001AD61       aAid
 0007:0001AD65       aSupprates
 0007:0001AD6F       aExtsupprates
 0007:0001AD7C       aEdcaparamset
 0007:0001AD89       aRcpiie
 0007:0001AD90       aRsniie
 0007:0001AD97       aRrmenabledcap
 0007:0001ADA5       aRsnopaque
 0007:0001ADAF       aMobilitydomain
 0007:0001ADBE       aFtinfo
 0007:0001ADC5       aRicdatadesc
 0007:0001ADD1       aWpa
 0007:0001ADD5       aHtcaps
 0007:0001ADDC       aHtinfo
 0007:0001ADE3       aWmmparams
 0007:0001ADED       aAirgo
 0007:0001ADF3       aWscreassocres
 0007:0001AE01       aP2passocres
 0007:0001AE0D       aListeninterval
 0007:0001AE1C       aCurrentapaddre
 0007:0001AE2D       aSsid
 0007:0001AE32       aPowercaps
 0007:0001AE3C       aSuppchannels
 0007:0001AE49       aQoscapsstation
 0007:0001AE58       aWpaopaque
 0007:0001AE62       aWmmcaps
 0007:0001AE6A       aWmminfostation
 0007:0001AE79       aWscieopaque
 0007:0001AE85       aWapiopaque
 0007:0001AE90       aP2pieopaque
 0007:0001AE9C       aNumofrepetitio
 0007:0001AEAD       aMeasurementreq
 0007:0001AEC0       aMeasurementrep
 0007:0001AED2       aP2poui
 0007:0001AED9       aP2pouisubtype
 0007:0001AEE7       aP2pwscprovisio
 0007:0001AF03       aP2pprovisiondi
 0007:0001AF1C       aTimestamp
 0007:0001AF26       aBeaconinterval
 0007:0001AF35       aFhparamset
 0007:0001AF40       aDsparams
 0007:0001AF49       aCfparams
 0007:0001AF52       aIbssparams
 0007:0001AF5D       aCountry_0
 0007:0001AF65       aFhparams
 0007:0001AF6E       aFhpatttable
 0007:0001AF7A       aPowerconstrain
 0007:0001AF8B       aChanswitchann
 0007:0001AF99       aQuiet
 0007:0001AF9F       aErpinfo
 0007:0001AFA7       aRsn
 0007:0001AFAB       aQbssload
 0007:0001AFB4       aApchannelrepor
 0007:0001AFC4       aExtchanswitcha
 0007:0001AFD5       aWmminfoap
 0007:0001AFDF       aWapi
 0007:0001AFE4       aWscproberes
 0007:0001AFF0       aP2pproberes
 0007:0001AFFC       aRequestedinfo
 0007:0001B00A       aWscprobereq
 0007:0001B016       aWfatpc
 0007:0001B01D       aP2pprobereq
 0007:0001B029       aP2ppresenceres
 0007:0001B03D       aP2pnoticeofabs
 0007:0001B050       aNeighborreport
 0007:0001B05F       aTxpower
 0007:0001B067       aMaxtxpower
 0007:0001B072       aTpceleid
 0007:0001B07B       aTpcelelen
 0007:0001B085       aLinkmargin
 0007:0001B090       aRxantennaid
 0007:0001B09C       aTxantennaid
 0007:0001B0A8       aRcpi
 0007:0001B0AD       aRsni
 0007:0001B0B2       aP2pinvitationr
 0007:0001B0C3       aP2pinvitatio_0
 0007:0001B0D4       aP2pgonegwps
 0007:0001B0E0       aP2pgonegres
 0007:0001B0EC       aP2pgonegreq
 0007:0001B0F8       aP2pgonegcnf
 0007:0001B104       aReason
 0007:0001B10B       aP2pdisassoc
 0007:0001B117       aP2pdevicedisco
 0007:0001B133       aP2pdevicedis_0
 0007:0001B14F       aTsinfo
 0007:0001B156       aDelbaparameter
 0007:0001B168       aP2pdeauth
 0007:0001B172       aTim
 0007:0001B176       aQoscapsap
 0007:0001B180       aWscbeaconprobe
 0007:0001B192       aP2pbeaconprobe
 0007:0001B1A4       aWscbeacon
 0007:0001B1AE       aP2pbeacon
 0007:0001B1B8       aAuthalgo
 0007:0001B1C1       aAuthseqno
 0007:0001B1CB       aChallengetext
 0007:0001B1D9       aFttimeoutinter
 0007:0001B1EB       aWscassocres
 0007:0001B1F7       aTsdelay
 0007:0001B1FF       aTspec
 0007:0001B205       aTclas
 0007:0001B20B       aTclassproc
 0007:0001B216       aSchedule
 0007:0001B21F       aWmmtsdelay
 0007:0001B22A       aWmmschedule
 0007:0001B236       aWmmtclas
 0007:0001B23F       aWmmtclasproc
 0007:0001B24C       aAddbaparameter
 0007:0001B25E       aBatimeout
 0007:0001B268       aBastartingsequ
 0007:0001B282       aVersion
 0007:0001B28A       aResponsetype
 0007:0001B297       aVendorextensio
 0007:0001B2A7       aWpsstate
 0007:0001B2B0       aApsetuplocked
 0007:0001B2BE       aSelectedregist
 0007:0001B2D0       aDevicepassword
 0007:0001B2E1       aSelectedregi_0
 0007:0001B300       aUuid_e
 0007:0001B307       aManufacturer
 0007:0001B314       aModelname
 0007:0001B31E       aModelnumber
 0007:0001B32A       aSerialnumber
 0007:0001B337       aPrimarydevicet
 0007:0001B349       aDevicename
 0007:0001B354       aConfigmethods
 0007:0001B362       aRfbands
 0007:0001B36A       aRequesttype
 0007:0001B376       aAssociationsta
 0007:0001B387       aConfiguratione
 0007:0001B39A       aRequestdevicet
 0007:0001B3AC       aUuid_r
 0007:0001B3B3       aRicdata
 0007:0001B3BB       aRicdescriptor
 0007:0001B3C9       aP2pcapability
 0007:0001B3D7       aP2pdeviceinfo
 0007:0001B3E5       aP2pgroupid
 0007:0001B3F0       aExtendedlisten
 0007:0001B405       aNoticeofabsenc
 0007:0001B415       aP2pgroupinfo
 0007:0001B422       aP2pdeviceid
 0007:0001B42E       aListenchannel
 0007:0001B43C       aOperatingchann
 0007:0001B44D       aP2pstatus
 0007:0001B457       aConfigurationt
 0007:0001B46C       aP2pgroupbssid
 0007:0001B47A       aChannellist
 0007:0001B486       aInvitationflag
 0007:0001B496       aGointent
 0007:0001B49F       aIntendedp2pint
 0007:0001B4BB       aMinorreasoncod
 0007:0001B4CB       aTsfinfo
 0007:0001B4D3       aCondensedcount
 0007:0001B4E7       aMeasurementpil
 0007:0001B4F8       aMultibssid
 0007:0001B503       aBeaconreportin
 0007:0001B513       aBcnreportingde
 0007:0001B526       aBeaconreportfr
 0007:0001B53A       aR1kh_id
 0007:0001B542       aGtk
 0007:0001B546       aR0kh_id
 0007:0001B54E       aPropsupprates
 0007:0001B55C       aApname
 0007:0001B563       aHcf
 0007:0001B567       aWds
 0007:0001B56B       aBpindicator
 0007:0001B577       aLoadinfo
 0007:0001B580       aLoadbalance
 0007:0001B58C       aPropassoctype
 0007:0001B59A       aLlattr
 0007:0001B5A1       aPropcapability
 0007:0001B5B0       aPropedcaparams
 0007:0001B5BF       aTitan_0
 0007:0001B5C5       aPropchannswitc
 0007:0001B5D8       aPropquietbss
 0007:0001B5E5       aTriggerstabgsc
 0007:0001B5F6       aTaurus
 0007:0001B5FD       aVersion2
 0007:0001B606       aAuthorizedmacs
 0007:0001B615       aRequesttoenrol
 0007:0001B625       a4WlanVosAss_30
 0007:0001B648       aHomeAaProje_30
 0007:0001B6E2       aSDSetS0xXToVal
 0007:0001B706       aSDSettingCfgid
 0007:0001B738       aSDGetCfgid0xXF
 0007:0001B757       aSDWni_cfg_SD_1
 0007:0001B77B       aSDWni_cfg_SD_2
 0007:0001B7A1       aOutputExceeded
 0007:0001B7F6       aS_2
 0007:0001B7FF       a4dS
 0007:0001B807       aCmdNotSupporte
 0007:0001B81A       aCmdNotFound
 0007:0001B82A       aStartCfgidMust
 0007:0001B84C       a0x2x
 0007:0001B854       aHal
 0007:0001B859       aCfg
 0007:0001B85E       aLim
 0007:0001B863       aArq
 0007:0001B868       aSch
 0007:0001B86D       aPmm
 0007:0001B872       aMnt
 0007:0001B877       aDbg
 0007:0001B87C       aDph
 0007:0001B881       aSys
 0007:0001B886       aPhy
 0007:0001B88B       aDvt
 0007:0001B890       aSms
 0007:0001B895       aUnk
 0007:0001B89A       aDebugLevelIs0x
 0007:0001B8B3       aLogDisabled
 0007:0001B8C1       aLogpPanicOnly
 0007:0001B8D3       aLogeErrorsOnly
 0007:0001B8E6       aLogwWarnings
 0007:0001B8F6       aLog1MinimalDeb
 0007:0001B90B       aLog2Verbose
 0007:0001B91A       aLog3VeryVerbos
 0007:0001B92E       aLog4VeryVeryVe
 0007:0001B947       aUnknown_3
 0007:0001B950       aInvalidModuleI
 0007:0001B968       aReserved
 0007:0001B972       aS_3
 0007:0001B975       aD_0
 0007:0001B97B       aBbtReceive
 0007:0001B994       aBbtCrcErrorsRe
 0007:0001B9B5       aBbtDuplicatesR
 0007:0001B9D5       aBbtTotalFrames
 0007:0001B9F5       aPostedToLimD
 0007:0001BA0A       aPostedToSchD
 0007:0001BA1F       aPostedToPmmD
 0007:0001BA34       aPostedToHalD
 0007:0001BA49       aDroppedD
 0007:0001BA5E       aLearnModeFrame
 0007:0001BA89       aNonLearnModeFr
 0007:0001BAB4       aMgmtRxFrameCou
 0007:0001BACD       aDD
 0007:0001BAD6       aCtrlRxFrameCou
 0007:0001BAEC       aDataRxFrameCou
 0007:0001BB02       aSchProcessedMe
 0007:0001BB20       aBeaconsD
 0007:0001BB30       aIgnoredD
 0007:0001BB41       aInErrorD
 0007:0001BB52       aQosNullD
 0007:0001BB62       aDroppedD_0
 0007:0001BB72       aLimProcessedMe
 0007:0001BB90       aSmeMessagesHdd
 0007:0001BBAA       aMacMessagesBbt
 0007:0001BBC4       aBadProtocolD
 0007:0001BBD9       aInLearnModeDIg
 0007:0001BBFF       aD_1
 0007:0001BC06       aBeaconsReceive
 0007:0001BC1E       aIgnoredD_0
 0007:0001BC2E       aProbeRequestsR
 0007:0001BC4C       aIgnoredD_1
 0007:0001BC5D       aSsidMissD
 0007:0001BC6E       aParseErrD
 0007:0001BC7F       aRespondedD
 0007:0001BC90       aData
 0007:0001BC96       aDA
 0007:0001BC9C       aDP
 0007:0001BCA2       aDAP
 0007:0001BCA8       aNull
 0007:0001BCAE       aAck
 0007:0001BCB4       aPoll
 0007:0001BCBA       aAP
 0007:0001BCC0       aQdata
 0007:0001BCC6       aQdA
 0007:0001BCCC       aQdP
 0007:0001BCD2       aQdAp
 0007:0001BCD8       aQnull
 0007:0001BCDE       aQack
 0007:0001BCE4       aQAP
 0007:0001BCEA       aBeacon
 0007:0001BCF4       aAssocreq
 0007:0001BCFE       aAssocrsp
 0007:0001BD08       aReassrsp
 0007:0001BD12       aReassreq
 0007:0001BD1C       aProbereq
 0007:0001BD26       aProbersp
 0007:0001BD30       aAuth_0
 0007:0001BD3A       aDeauth
 0007:0001BD44       aDisassoc
 0007:0001BD4E       aAction_0
 0007:0001BD58       aRtsCtl
 0007:0001BD62       aCtsCtl
 0007:0001BD6C       aAckCtl
 0007:0001BD76       aPsPoll
 0007:0001BD80       aBar
 0007:0001BD8A       aBa
 0007:0001BD94       aCfEnd
 0007:0001BD9E       aCfeAck
 0007:0001BDA8       aUnknown_4
 0007:0001BDB0       aWni_cfg_dnld_r
 0007:0001BDC1       aWni_cfg_param_
 0007:0001BDDA       aWni_cfg_dnld_c
 0007:0001BDEB       aWni_cfg_get_rs
 0007:0001BDFB       aWni_cfg_set_cn
 0007:0001BE0B       aSir_cfg_param_
 0007:0001BE24       aSir_cfg_downlo
 0007:0001BE42       aWni_cfg_set_re
 0007:0001BE59       aPe
 0007:0001BE5C       aUnknownMsgtype
 0007:0001BE6C       aTracingDisable
 0007:0001BE7F       aTotalRecordsDH
 0007:0001BEA6       aTraceDumpLastD
 0007:0001BEC1       aEwni_sme_start
 0007:0001BED4       aEwni_sme_sta_0
 0007:0001BEE7       aEwni_sme_sys_r
 0007:0001BEFE       aEwni_sme_scan_
 0007:0001BF10       aEwni_sme_sca_0
 0007:0001BF28       aEwni_sme_sca_1
 0007:0001BF3A       aEwni_sme_join_
 0007:0001BF4C       aEwni_sme_joi_0
 0007:0001BF5E       aEwni_sme_setco
 0007:0001BF76       aEwni_sme_set_0
 0007:0001BF8E       aEwni_sme_reass
 0007:0001BFA3       aEwni_sme_rea_0
 0007:0001BFB8       aEwni_sme_auth_
 0007:0001BFCA       aEwni_sme_aut_0
 0007:0001BFDC       aEwni_sme_dis_0
 0007:0001BFF2       aEwni_sme_dis_1
 0007:0001C008       aEwni_sme_dis_2
 0007:0001C01E       aEwni_sme_dis_3
 0007:0001C034       aEwni_sme_deaut
 0007:0001C048       aEwni_sme_dea_0
 0007:0001C05C       aEwni_sme_dea_1
 0007:0001C070       aEwni_sme_wm_st
 0007:0001C08E       aEwni_sme_ibss_
 0007:0001C0A9       aEwni_sme_ibs_0
 0007:0001C0C9       aEwni_sme_sta_1
 0007:0001C0E0       aEwni_sme_sta_2
 0007:0001C0F7       aEwni_sme_aut_1
 0007:0001C109       aEwni_sme_assoc
 0007:0001C11C       aEwni_sme_ass_0
 0007:0001C12F       aEwni_sme_rea_1
 0007:0001C144       aEwni_sme_rea_2
 0007:0001C159       aEwni_sme_switc
 0007:0001C171       aEwni_sme_swi_0
 0007:0001C189       aEwni_sme_stop_
 0007:0001C19F       aEwni_sme_sto_0
 0007:0001C1B5       aEwni_sme_del_b
 0007:0001C1CE       aEwni_sme_promi
 0007:0001C1EC       aEwni_sme_pro_0
 0007:0001C20A       aEwni_sme_neigh
 0007:0001C224       aEwni_sme_measu
 0007:0001C23D       aEwni_sme_mea_0
 0007:0001C256       aEwni_sme_mea_1
 0007:0001C26F       aEwni_sme_set_w
 0007:0001C289       aEwni_sme_set_1
 0007:0001C2A3       aEwni_sme_wds_i
 0007:0001C2B9       aEwni_sme_dea_2
 0007:0001C2CD       aEwni_sme_mic_f
 0007:0001C2E6       aEwni_sme_addts
 0007:0001C2F9       aEwni_sme_add_0
 0007:0001C30C       aEwni_sme_add_1
 0007:0001C31F       aEwni_sme_add_2
 0007:0001C332       aEwni_sme_delts
 0007:0001C345       aEwni_sme_del_0
 0007:0001C358       aEwni_sme_del_1
 0007:0001C36B       aEwni_sme_set_b
 0007:0001C391       aEwni_sme_swi_1
 0007:0001C3B4       aEwni_sme_swi_2
 0007:0001C3D7       aEwni_sme_swi_3
 0007:0001C3FC       aEwni_sme_swi_4
 0007:0001C421       aEwni_sme_probe
 0007:0001C434       aEwni_sme_sta_s
 0007:0001C44A       aEwni_sme_sta_3
 0007:0001C460       aEwni_sme_aggr_
 0007:0001C477       aEwni_sme_agg_0
 0007:0001C48E       aEwni_sme_globa
 0007:0001C4A7       aEwni_sme_glo_0
 0007:0001C4C0       aEwni_sme_stat_
 0007:0001C4D7       aEwni_sme_sta_4
 0007:0001C4EE       aEwni_sme_remov
 0007:0001C505       aEwni_sme_rem_0
 0007:0001C51C       aEwni_sme_get_s
 0007:0001C53D       aEwni_sme_get_0
 0007:0001C55E       aEwni_sme_set_t
 0007:0001C578       aEwni_sme_set_2
 0007:0001C592       aEwni_sme_get_t
 0007:0001C5AC       aEwni_sme_get_1
 0007:0001C5C6       aEwni_sme_get_n
 0007:0001C5DD       aEwni_sme_get_2
 0007:0001C5F4       aEwni_sme_low_r
 0007:0001C60A       aEwni_sme_get_3
 0007:0001C626       aEwni_sme_get_4
 0007:0001C642       aEwni_pmc_pwr_s
 0007:0001C658       aEwni_pmc_enter
 0007:0001C670       aEwni_pmc_ent_0
 0007:0001C688       aEwni_pmc_exit_
 0007:0001C69F       aEwni_pmc_exi_0
 0007:0001C6B6       aEwni_pmc_exi_1
 0007:0001C6CD       aEwni_pmc_ent_1
 0007:0001C6E5       aEwni_pmc_ent_2
 0007:0001C6FD       aEwni_pmc_exi_2
 0007:0001C714       aEwni_pmc_exi_3
 0007:0001C72B       aEwni_pmc_ent_3
 0007:0001C744       aEwni_pmc_ent_4
 0007:0001C75D       aEwni_pmc_exi_4
 0007:0001C775       aEwni_pmc_exi_5
 0007:0001C78D       aEwni_pmc_smps_
 0007:0001C7A5       aEwni_sme_msg_t
 0007:0001C7BC       aSir_hal_radar_
 0007:0001C7D7       aSir_hal_wdt_ka
 0007:0001C7EB       aSir_hal_timer_
 0007:0001C807       aSir_hal_time_0
 0007:0001C830       aSir_hal_cal_re
 0007:0001C844       aSir_hal_mnt_op
 0007:0001C867       aSir_hal_cca_mo
 0007:0001C887       aSir_hal_cca__0
 0007:0001C8A7       aSir_hal_cca__1
 0007:0001C8C1       aSir_hal_cca__2
 0007:0001C8DA       aSir_hal_cca_ch
 0007:0001C8F2       aSir_hal_add_st
 0007:0001C906       aSir_hal_add__0
 0007:0001C91A       aSir_hal_delete
 0007:0001C931       aSir_hal_dele_0
 0007:0001C948       aSir_hal_add_bs
 0007:0001C95C       aSir_hal_add__1
 0007:0001C970       aSir_hal_dele_1
 0007:0001C987       aSir_hal_dele_2
 0007:0001C99E       aSir_hal_init_s
 0007:0001C9B4       aSir_hal_init_0
 0007:0001C9CA       aSir_hal_start_
 0007:0001C9E1       aSir_hal_star_0
 0007:0001C9F8       aSir_hal_end_sc
 0007:0001CA0D       aSir_hal_end__0
 0007:0001CA22       aSir_hal_finish
 0007:0001CA3A       aSir_hal_fini_0
 0007:0001CA52       aSir_hal_send_b
 0007:0001CA6A       aSir_hal_send_0
 0007:0001CA82       aSir_hal_init_c
 0007:0001CA97       aSir_hal_init_1
 0007:0001CAAC       aSir_hal_init_w
 0007:0001CAC4       aSir_hal_init_2
 0007:0001CADC       aSir_hal_set_bs
 0007:0001CAF3       aSir_hal_set__0
 0007:0001CB0A       aSir_hal_set_st
 0007:0001CB21       aSir_hal_set__1
 0007:0001CB38       aSir_hal_dpu_st
 0007:0001CB4E       aSir_hal_dpu__0
 0007:0001CB64       aSir_hal_get_dp
 0007:0001CB7C       aSir_hal_get__0
 0007:0001CB94       aSir_hal_update
 0007:0001CBB4       aSir_hal_upda_0
 0007:0001CBD3       aSir_hal_upda_1
 0007:0001CBF2       aSir_hal_upda_2
 0007:0001CC0C       aSir_hal_upda_3
 0007:0001CC22       aSir_hal_chnl_s
 0007:0001CC3A       aSir_hal_add_ts
 0007:0001CC4D       aSir_hal_del_ts
 0007:0001CC60       aSir_hal_softma
 0007:0001CC7E       aSir_hal_exit_b
 0007:0001CC94       aSir_hal_exit_0
 0007:0001CCAA       aSir_hal_exit_1
 0007:0001CCC0       aSir_hal_enter_
 0007:0001CCD7       aSir_hal_ente_0
 0007:0001CCEE       aSir_hal_bmps_s
 0007:0001CD06       aSir_hal_missed
 0007:0001CD20       aSir_hal_switch
 0007:0001CD3B       aSir_hal_pwr_sa
 0007:0001CD50       aSir_hal_regist
 0007:0001CD6D       aSir_hal_soft_0
 0007:0001CD8D       aSir_hal_soft_1
 0007:0001CDAE       aSir_hal_soft_2
 0007:0001CDCF       aSir_hal_soft_3
 0007:0001CDF4       aSir_hal_soft_4
 0007:0001CE19       aSir_hal_soft_5
 0007:0001CE43       aSir_hal_addba_
 0007:0001CE55       aSir_hal_addb_0
 0007:0001CE67       aSir_hal_delba_
 0007:0001CE79       aSir_hal_delb_0
 0007:0001CE8B       aSir_hal_ibss_s
 0007:0001CEA0       aSir_hal_time_1
 0007:0001CECC       aSir_hal_set_li
 0007:0001CEE3       aSir_hal_ente_1
 0007:0001CEFA       aSir_hal_ente_2
 0007:0001CF11       aSir_hal_exit_i
 0007:0001CF27       aSir_hal_exit_2
 0007:0001CF3D       aSir_hal_soft_6
 0007:0001CF64       aSir_hal_postpo
 0007:0001CF84       aSir_hal_sta_st
 0007:0001CF99       aSir_hal_global
 0007:0001CFB1       aSir_hal_aggr_s
 0007:0001CFC7       aSir_hal_sta__0
 0007:0001CFDC       aSir_hal_glob_0
 0007:0001CFF4       aSir_hal_aggr_0
 0007:0001D00A       aSir_hal_stat_s
 0007:0001D020       aSir_hal_stat_0
 0007:0001D036       aSir_hal_remove
 0007:0001D050       aSir_hal_remo_0
 0007:0001D06A       aSir_hal_remo_1
 0007:0001D084       aSir_hal_remo_2
 0007:0001D09E       aSir_hal_set__2
 0007:0001D0BB       aSir_hal_set__3
 0007:0001D0D8       aSir_hal_remo_3
 0007:0001D0F8       aSir_hal_remo_4
 0007:0001D118       aSir_hal_add__2
 0007:0001D12B       aSir_hal_dpu_mi
 0007:0001D141       aSir_hal_time_2
 0007:0001D15F       aSir_hal_time_3
 0007:0001D182       aSir_hal_time_4
 0007:0001D1A5       aSir_hal_set_mi
 0007:0001D1BC       aSir_hal_set__4
 0007:0001D1D3       aSir_hal_sys_re
 0007:0001D1E9       aSir_hal_set_tx
 0007:0001D202       aSir_hal_set__5
 0007:0001D21B       aSir_hal_get_tx
 0007:0001D234       aSir_hal_get__1
 0007:0001D24D       aSir_hal_get_no
 0007:0001D263       aSir_hal_get__2
 0007:0001D279       aSir_hal_transm
 0007:0001D29A       aSir_hal_init_r
 0007:0001D2B1       aSir_hal_beacon
 0007:0001D2C8       aSir_hal_ente_3
 0007:0001D2E0       aSir_hal_ente_4
 0007:0001D2F8       aSir_hal_exit_u
 0007:0001D30F       aSir_hal_exit_3
 0007:0001D326       aSir_hal_low_rs
 0007:0001D33B       aSir_hal_get_st
 0007:0001D356       aSir_lim_resume
 0007:0001D372       aSir_lim_suspen
 0007:0001D38F       aSir_hal_suspen
 0007:0001D3AC       aSir_lim_retry_
 0007:0001D3C8       aSir_bb_xport_m
 0007:0001D3DE       aSir_lim_inv_ke
 0007:0001D3FC       aSir_lim_key_id
 0007:0001D419       aSir_lim_replay
 0007:0001D43C       aSir_lim_td_dum
 0007:0001D45A       aSir_lim_sch_cl
 0007:0001D470       aSir_lim_radar_
 0007:0001D489       aSir_lim_del_ts
 0007:0001D49C       aSir_lim_add_ba
 0007:0001D4AF       aSir_lim_del_ba
 0007:0001D4C6       aSir_lim_delete
 0007:0001D4E5       aSir_lim_del__0
 0007:0001D4F8       aSir_lim_min_ch
 0007:0001D514       aSir_lim_max_ch
 0007:0001D530       aSir_lim_join_f
 0007:0001D54A       aSir_lim_auth_f
 0007:0001D564       aSir_lim_auth_r
 0007:0001D57D       aSir_lim_assoc_
 0007:0001D598       aSir_lim_reasso
 0007:0001D5B5       aSir_lim_heart_
 0007:0001D5D0       aSir_lim_channe
 0007:0001D5ED       aSir_lim_probe_
 0007:0001D60E       aSir_lim_addts_
 0007:0001D628       aSir_lim_link_t
 0007:0001D64B       aSir_lim_hash_m
 0007:0001D66B       aSir_lim_cnf_wa
 0007:0001D684       aSir_lim_keepal
 0007:0001D69E       aSir_lim_update
 0007:0001D6C1       aSir_lim_chan_0
 0007:0001D6E0       aSir_lim_quiet_
 0007:0001D6F6       aSir_lim_quie_0
 0007:0001D710       aSir_lim_beacon
 0007:0001D727       aSir_lim_msg_ty
 0007:0001D73D       aPo
 0007:0001D742       aFailedToCfgGet
 0007:0001D75B       aSDCouldNotRetr
 0007:0001D786       aSDCfgGetPrimDe
 0007:0001D7B3       aSDCfgGetPrim_0
 0007:0001D7DB       aSDCfgGetPrim_1
 0007:0001D80C       aSDBadTclasType
 0007:0001D83F       aSDSirconvertad
 0007:0001D8AD       aSDSirconvert_0
 0007:0001D91C       aSDFailedToPa_0
 0007:0001D962       aSDMissingTsdel
 0007:0001D97F       aSDMandatoryTsp
 0007:0001D9BC       aSDFailedToConv
 0007:0001D9E3       aSDDTclasIeButN
 0007:0001DA0E       aSDMandatoryWme
 0007:0001DA3C       aSDSirconvert_1
 0007:0001DAAA       aSDSirconvert_2
 0007:0001DB19       aSDFailedToPa_1
 0007:0001DB5E       aSDMandatoryT_0
 0007:0001DB9A       aSDFailedToPa_2
 0007:0001DBDF       aSDFailedToPa_3
 0007:0001DC17       aSDMandatoryIeS
 0007:0001DC3F       aSDMandatoryI_0
 0007:0001DC72       aSDFailedToAl_1
 0007:0001DC95       aSDFailedToPa_4
 0007:0001DCDB       aSDFailedToPa_5
 0007:0001DD20       aSDWmmParameter
 0007:0001DD66       aSDWmmParamet_0
 0007:0001DD89       aSDBeAifsnDAcmD
 0007:0001DDCD       aSDBkAifsnDAcmD
 0007:0001DE11       aSDViAifsnDAcmD
 0007:0001DE55       aSDVoAifsnDAcmD
 0007:0001DE99       aSDNewMdie02x02
 0007:0001DEB8       aSDFtInfoPresen
 0007:0001DEDA       aSDFailedToPa_6
 0007:0001DF1E       aSDFailedToPa_7
 0007:0001DF5C       aSDMdie02x02x02
 0007:0001DF77       aSDFailedToPa_8
 0007:0001DFB4       aSDSirconvertde
 0007:0001E022       aSDSirconvert_3
 0007:0001E091       aSDFailedToPa_9
 0007:0001E0D6       aSDNoIeDInFindi
 0007:0001E0FD       aSDParseFailure
 0007:0001E133       aSDFailedToGetT
 0007:0001E194       aSDNoSessionCon
 0007:0001E1DD       aSDFailedToRetr
 0007:0001E224       aSDFailedToRe_1
 0007:0001E26B       aSDFailedToRe_2
 0007:0001E2A3       aSDParseFailu_0
 0007:0001E2DA       aSDDot11funpack
 0007:0001E31C       aSDParseFailu_1
 0007:0001E352       aSDDot11funpa_0
 0007:0001E393       aSDFailedToRe_3
 0007:0001E3DD       aSDFailedToRe_4
 0007:0001E41F       aSDFailedToRe_5
 0007:0001E461       aSDFailedToRe_6
 0007:0001E4A3       aSDFailedToRe_7
 0007:0001E4E4       aSDFailedToRe_8
 0007:0001E523       aSDHtCapsX
 0007:0001E538       aSDSupportedchn
 0007:0001E596       aSDFailedToRe_9
 0007:0001E5D9       aSDAmpduParamX
 0007:0001E5F2       aSDFailedToR_10
 0007:0001E637       aSDFailedToR_11
 0007:0001E67A       aSDFailedToR_12
 0007:0001E6B7       aSDFailedToR_13
 0007:0001E6F1       aSDFailedToR_14
 0007:0001E742       aSD11bProtectio
 0007:0001E780       aSDFailedToR_15
 0007:0001E7C9       aSDFailedToR_16
 0007:0001E805       aSDFailedToR_17
 0007:0001E835       aSDFailedToR_18
 0007:0001E875       aSDLenDIsOutOfB
 0007:0001E8A2       aSDFailedToR_19
 0007:0001E8E7       aSDDumpingDByte
 0007:0001E90F       a02x02x02x02x02
 0007:0001E939       a02x
 0007:0001E941       aSDFailedToRePa
 0007:0001E971       aSDFailedToR_20
 0007:0001E9A1       aInSBeforeSwi_1
 0007:0001E9CA       aInSInvalidHhal
 0007:0001E9DD       aInSCallingSme_
 0007:0001EA17       aInSCsrRoamst_0
 0007:0001EA38       aEcsr_roam_infr
 0007:0001EA4C       aEcsr_roam_lo_0
 0007:0001EA5F       aEcsr_roam_mic_
 0007:0001EA77       aEcsr_roam_se_0
 0007:0001EA92       aEcsr_roam_remo
 0007:0001EAB0       aEcsr_roam_asso
 0007:0001EAD1       aEcsr_roam_di_0
 0007:0001EAE9       aEcsr_roam_wps_
 0007:0001EB09       aInSCsrRoamst_1
 0007:0001EB41       aInSBeforeSwi_2
 0007:0001EB6A       aInSCsrRoamre_0
 0007:0001EB8B       aEcsr_roam_r_14
 0007:0001EBB2       aEcsr_roam_r_15
 0007:0001EBD9       aEcsr_roam_r_16
 0007:0001EBF7       aEcsr_roam_r_17
 0007:0001EC13       aEcsr_roam_r_18
 0007:0001EC34       aEcsr_roam_r_19
 0007:0001EC57       aEcsr_roam_r_20
 0007:0001EC76       aEcsr_roam_r_21
 0007:0001EC92       aEcsr_roam_r_22
 0007:0001ECB1       aEcsr_roam_r_23
 0007:0001ECD0       aEcsr_roam_r_24
 0007:0001ECF7       aEcsr_roam_r_25
 0007:0001ED0F       aEcsr_roam_r_26
 0007:0001ED25       aEcsr_roam_r_27
 0007:0001ED49       aInSCsrRoamre_1
 0007:0001ED76       aInSBeforeSwi_3
 0007:0001ED9E       aInSCsrScanstat
 0007:0001EDBE       aEcsr_scan_succ
 0007:0001EDD0       aInSSme_scanget
 0007:0001EDF0       aEcsr_scan_abor
 0007:0001EE08       aInSChannelSele
 0007:0001EE25       aPrintAclEntere
 0007:0001EE37       aAclEntryI02x02
 0007:0001EE67       aRemoveAclEnter
 0007:0001EE7A       aAddAclEntered
 0007:0001EE8A       aSearchSucc
 0007:0001EE96       aIndexD
 0007:0001EE9F       aSearchNotSucc
 0007:0001EEAF       a4WlanVosAss_31
 0007:0001EED2       aHomeAaProje_31
 0007:0001EF5B       aInSSapEventCal
 0007:0001EF80       aEsap_start_bss
 0007:0001EF95       aEsap_stop_bss_
 0007:0001EFA9       aEsap_sta_assoc
 0007:0001EFBE       aEsap_sta_disas
 0007:0001EFD6       aEsap_sta_set_k
 0007:0001EFED       aEsap_sta_del_k
 0007:0001F004       aEsap_sta_mic_f
 0007:0001F01F       aEsap_assoc_sta
 0007:0001F03D       aEsap_indicate_
 0007:0001F056       aEsap_remain_ch
 0007:0001F06D       aEsap_send_acti
 0007:0001F082       aEsap_unknown_s
 0007:0001F098       aEsap_max_assoc
 0007:0001F0B0       aInSSapUnknownC
 0007:0001F0D7       aInSPeer02x02x0
 0007:0001F10E       aInSPeer02x02_0
 0007:0001F16D       aInSPeer02x02_1
 0007:0001F1CF       aInSInvalidHh_0
 0007:0001F1E3       aErrorInSCallin
 0007:0001F214       aInS_0
 0007:0001F21A       aErrorInSCall_0
 0007:0001F24B       aInvalidHalPoin
 0007:0001F282       aSSapgetchannel
 0007:0001F2C7       aSapgetchannell
 0007:0001F2F2       aSUnableToAll_0
 0007:0001F316       aSapgetchanne_0
 0007:0001F36D       aInSCallingSm_0
 0007:0001F38C       aSSme_scanreque
 0007:0001F3AB       aSoftapConfigur
 0007:0001F3DA       aInSReturnFromS
 0007:0001F417       aInSForConfigur
 0007:0001F43D       aInSBeforeExiti
 0007:0001F470       aInSNewFromStat
 0007:0001F48F       aEsap_disconnec
 0007:0001F4A1       aEsap_ch_select
 0007:0001F4B0       aSSmeSessionIsA
 0007:0001F4D2       aInSFromState_4
 0007:0001F4ED       aInSInStateSEve
 0007:0001F50E       aEsap_starting
 0007:0001F51C       aInSInStateSI_0
 0007:0001F545       aInSFromStateCh
 0007:0001F56D       aEsap_started
 0007:0001F57A       aEsap_disconn_0
 0007:0001F58D       aInSNullHhalInS
 0007:0001F5B2       aSInvalidSapPoi
 0007:0001F5D8       aSHalPointerPNu
 0007:0001F612       aFailedToDeregi
 0007:0001F632       aFailedToRegist
 0007:0001F650       aFailedToCancel
 0007:0001F673       aFailedToSetRem
 0007:0001F693       aFailedToSendAc
 0007:0001F6AF       aSWpaieLenX
 0007:0001F6C2       aSWpaie02x02x02
 0007:0001F6EB       aSErrorUnableTo
 0007:0001F715       aSInvalidHalPoi
 0007:0001F73B       aSD_0
 0007:0001F742       aWlansap_setcha
 0007:0001F789       aInvalidOperati
 0007:0001F7BA       aInvalidStartch
 0007:0001F7F0       aInvalidEndchan
 0007:0001F824       aSInvalidStartc
 0007:0001F85E       aCouldNotPassOn
 0007:0001F8A1       aCouldNotPass_0
 0007:0001F8E3       aSNoActiveChann
 0007:0001F92B       aSInvalidSapCon
 0007:0001F943       aModifyAclEnter
 0007:0001F995       aWhiteList
 0007:0001F9A8       aBlackList
 0007:0001F9BB       aPeerMac02x02x0
 0007:0001FA3E       aCmdD
 0007:0001FA45       aWhiteListIsAlr
 0007:0001FA92       aMacAddressAlre
 0007:0001FADA       aStaPresentInBl
 0007:0001FB0C       a___NowAddToThe
 0007:0001FB2A       aSizeOfAcceptAn
 0007:0001FB4E       aDeleteFromWhit
 0007:0001FB65       aMacAddressToBe
 0007:0001FBBE       aInvalidCmdType
 0007:0001FBD6       aBlackListIsAlr
 0007:0001FC23       aMacAddressAl_0
 0007:0001FC6B       aPresentInWhite
 0007:0001FC99       a___NowAddToBla
 0007:0001FCB3       aDeleteFromBlac
 0007:0001FCCA       aNoAcceptAndDen
 0007:0001FCE7       aMacAddressTo_0
 0007:0001FD40       aInvalidListTyp
 0007:0001FD5C       aAfterModificat
 0007:0001FD76       aSInvalidSapP_0
 0007:0001FD8E       aWlansap_cleanc
 0007:0001FD9E       aSInitializin_9
 0007:0001FDD0       aWlansap_stopbs
 0007:0001FDE0       aSInvalidGlobal
 0007:0001FDFF       aWlansap_startb
 0007:0001FE10       aSInvalidMacCon
 0007:0001FE36       aSoftapRoleHasN
 0007:0001FE57       aWlansap_pmcful
 0007:0001FE9A       a4WlanVosAss_32
 0007:0001FEBD       aHomeAaProje_32
 0007:0001FF49       aWlansap_closeI
 0007:0001FF5F       aWlansap_close
 0007:0001FF6D       aWlansap_stopIn
 0007:0001FF90       aWlansap_stop_0
 0007:0001FFB2       aWlansap_startI
 0007:0001FFD6       aWlansap_star_0
 0007:0001FFF6       aWlansap_open
 0007:00020003       aInSRssiweightD
 0007:0002003C       aInSSortedSpect
 0007:00020063       aInSChannelDWei
 0007:00020094       aInSComputingSp
 0007:000200B5       aInSBssdes_ch_s
 0007:00020116       aInSSpectrumCha
 0007:00020136       aInSChanDWeight
 0007:00020167       aInS_1
 0007:0002016D       aInSVos_malloc_
 0007:00020183       aInSRunningSapC
 0007:000201A0       aInSChSelectIni
 0007:000201C7       aInSRunningSa_0
 0007:000201F5       aSDInvalidCfgId
 0007:00020210       aSDCfgIndexOutO
 0007:00020234       aSDNotValidCfgI
 0007:00020251       aSDInvalidLengt
 0007:0002027C       aSDCanTGetCapab
 0007:000202AD       aSDCfgGetWni_cf
 0007:000202DD       aSDCfgGetWni__0
 0007:0002030C       aSDCfgGetWni__1
 0007:0002033C       aSDCfgGetWni__2
 0007:00020370       aSDCfgGetWni__3
 0007:0002039C       aSDCfgGetWni__4
 0007:000203C8       aSDCfgGetWni__5
 0007:000203F5       aSDCfgGetWni__6
 0007:00020427       aSDPalallocat_0
 0007:00020458       aSDFailedToR_21
 0007:000204AC       aSDInvalidSbufI
 0007:000204D9       aSDInvalidLen_0
 0007:00020504       aSDCfgNotifyHwN
 0007:0002052C       aSDValueDOutOfR
 0007:0002055D       aSDSendingCfg_d
 0007:0002057B       aSDInvalidPar_0
 0007:00020598       aSDParamIdDNotV
 0007:000205B7       aSDParamIdDWron
 0007:000205E1       aSDCfgNotReadyP
 0007:00020602       aSDInvalidValue
 0007:0002063C       aSDInvalidStrin
 0007:00020677       aSDCheckParamFa
 0007:0002069D       aCfgidDNoRsp
 0007:000206B0       aSDCfgSizeDByte
 0007:000206DF       aSDInvalidMagic
 0007:00020701       aSDCfgHdrTotpar
 0007:0002073D       aSDCfgDnld_rspI
 0007:00020770       aSDCfgTotalPara
 0007:0002079E       aSDCfgIntegerPa
 0007:000207CE       aSDCfgIdDInvali
 0007:00020804       aSDErrorParsing
 0007:00020836       aSDParamIdDLenD
 0007:00020858       aSDErrorSetting
 0007:0002088B       aSDWdapostmsgap
 0007:000208AA       aSDErrorParsi_0
 0007:000208DB       aSDPparamlistNu
 0007:00020911       aSDPdataNullWhe
 0007:00020941       aSDMemoryAllo_7
 0007:00020964       aSDUnknownMsgD
 0007:0002097C       aSta_id
 0007:00020983       aCf_pollable
 0007:0002098F       aCfp_period
 0007:0002099A       aCfp_max_durati
 0007:000209AB       aSsid_0
 0007:000209B0       aBeacon_interva
 0007:000209C0       aDtim_period
 0007:000209CC       aWep_key_length
 0007:000209DB       aWep_default_ke
 0007:000209ED       aWep_default__0
 0007:000209FF       aWep_default__1
 0007:00020A11       aWep_default__2
 0007:00020A23       aWep_default__3
 0007:00020A35       aExclude_unencr
 0007:00020A49       aRts_threshold
 0007:00020A57       aShort_retry_li
 0007:00020A69       aLong_retry_lim
 0007:00020A7A       aFragmentation_
 0007:00020A92       aActive_minimum
 0007:00020AAE       aActive_maximum
 0007:00020ACA       aPassive_minimu
 0007:00020AE7       aPassive_maximu
 0007:00020B04       aJoin_failure_t
 0007:00020B19       aAuthenticate_f
 0007:00020B36       aAuthenticate_r
 0007:00020B4F       aAssociation_fa
 0007:00020B6B       aReassociation_
 0007:00020B89       aRa_periodicity
 0007:00020BA6       aPs_enable_bcn_
 0007:00020BBB       aPs_enable_hear
 0007:00020BD0       aPs_enable_rssi
 0007:00020BE7       aPs_data_inacti
 0007:00020C02       aRf_settling_ti
 0007:00020C17       aSupported_rate
 0007:00020C2B       aSupported_ra_0
 0007:00020C3F       aPhy_mode
 0007:00020C48       aDot11_mode
 0007:00020C53       aOperational_ra
 0007:00020C68       aExtended_opera
 0007:00020C86       aProprietary_op
 0007:00020CA7       aBssid
 0007:00020CAD       aListen_interva
 0007:00020CBD       aValid_channel_
 0007:00020CD0       aCurrent_channe
 0007:00020CE0       aDefault_rate_i
 0007:00020CF8       aDefault_rate_0
 0007:00020D11       aRate_adaptatio
 0007:00020D26       aFixed_rate
 0007:00020D31       aFixed_rate_mul
 0007:00020D4C       aFixed_rate_m_0
 0007:00020D66       aRetryrate_poli
 0007:00020D77       aRetryrate_seco
 0007:00020D8B       aRetryrate_tert
 0007:00020D9E       aApsd_enabled
 0007:00020DAB       aShared_key_aut
 0007:00020DC2       aOpen_system_au
 0007:00020DDA       aAuthentication
 0007:00020DEE       aCf_poll_reques
 0007:00020DFE       aPrivacy_enable
 0007:00020E0E       aShort_preamble
 0007:00020E1D       aShort_slot_tim
 0007:00020E2D       aAccept_short_s
 0007:00020E4A       aQos_enabled
 0007:00020E56       aHcf_enabled
 0007:00020E62       aRsn_enabled
 0007:00020E6E       aBackground_sca
 0007:00020E85       aMax_num_pre_au
 0007:00020E96       aPreauth_clnup_
 0007:00020EAC       aRelease_aid_ti
 0007:00020EC0       aHeart_beat_thr
 0007:00020ED5       aProbe_after_hb
 0007:00020EF1       aManufacturer_o
 0007:00020F02       aManufacturer_n
 0007:00020F14       aModel_number
 0007:00020F21       aModel_name
 0007:00020F2C       aManufacturer_p
 0007:00020F46       aManufacturer_0
 0007:00020F63       a11d_enabled
 0007:00020F6F       aMax_tx_power_2
 0007:00020F80       aMax_tx_power_5
 0007:00020F8F       aNetwork_densit
 0007:00020F9F       aAdaptive_thres
 0007:00020FBC       aCurrent_tx_ant
 0007:00020FCF       aCurrent_rx_ant
 0007:00020FE2       aCurrent_tx_pow
 0007:00020FF9       aPower_state_pe
 0007:0002100F       aNew_bss_found_
 0007:00021021       aProprietary_an
 0007:00021042       aProprietary_ra
 0007:0002105C       aAp_node_name
 0007:00021069       aCountry_code
 0007:00021076       a11h_enabled
 0007:00021082       aWt_cnf_timeout
 0007:00021091       aKeepalive_ti_0
 0007:000210A3       aProximity
 0007:000210AD       aLog_level
 0007:000210B7       aOlbc_detect_ti
 0007:000210CB       aProtection_ena
 0007:000210DE       a11g_protection
 0007:000210F4       aForce_policy_p
 0007:0002110C       a11g_short_prea
 0007:00021127       a11g_short_slot
 0007:00021143       aCal_period
 0007:0002114E       aStats_period
 0007:0002115B       aCal_control
 0007:00021167       a11g_only_polic
 0007:00021177       aPacket_classif
 0007:0002118D       aWme_enabled
 0007:00021199       aAddts_rsp_time
 0007:000211AB       aMax_sp_length
 0007:000211B9       aKeep_alive_sta
 0007:000211D8       aSend_single_ss
 0007:000211F0       aWsm_enabled
 0007:000211FC       aProp_capabilit
 0007:0002120C       aEdca_profile
 0007:00021219       aEdca_ani_acbk_
 0007:0002122D       aEdca_ani_acbe_
 0007:00021241       aEdca_ani_acvi_
 0007:00021255       aEdca_ani_acvo_
 0007:00021269       aEdca_ani_acbk
 0007:00021277       aEdca_ani_acbe
 0007:00021285       aEdca_ani_acvi
 0007:00021293       aEdca_ani_acvo
 0007:000212A1       aEdca_wme_acbk_
 0007:000212B5       aEdca_wme_acbe_
 0007:000212C9       aEdca_wme_acvi_
 0007:000212DD       aEdca_wme_acvo_
 0007:000212F1       aEdca_wme_acbk
 0007:000212FF       aEdca_wme_acbe
 0007:0002130D       aEdca_wme_acvi
 0007:0002131B       aEdca_wme_acvo
 0007:00021329       aEdca_tit_demo_
 0007:00021342       aEdca_tit_dem_0
 0007:0002135B       aEdca_tit_dem_1
 0007:00021374       aEdca_tit_dem_2
 0007:0002138D       aEdca_tit_dem_3
 0007:000213A0       aEdca_tit_dem_4
 0007:000213B3       aEdca_tit_dem_5
 0007:000213C6       aEdca_tit_dem_6
 0007:000213D9       aRdet_flag
 0007:000213E3       aRadar_channel_
 0007:000213F6       aLocal_power_co
 0007:0002140D       aAdmit_policy
 0007:0002141A       aAdmit_bwfactor
 0007:00021429       aMax_consecutiv
 0007:00021451       aChannel_bondin
 0007:00021466       aCb_secondary_c
 0007:00021481       aDynamic_thresh
 0007:00021498       aDynamic_thre_0
 0007:000214AE       aDynamic_thre_1
 0007:000214C4       aTrig_sta_bk_sc
 0007:000214D5       aDynamic_profil
 0007:000214EF       aScan_control_l
 0007:00021501       aMimo_enabled
 0007:0002150E       aBlock_ack_enab
 0007:00021520       aBa_activity_ch
 0007:0002153A       aHt_rx_stbc
 0007:00021545       aHt_cap_info
 0007:00021551       aHt_ampdu_param
 0007:00021561       aSupported_mcs_
 0007:00021573       aExt_ht_cap_inf
 0007:00021583       aTx_bf_cap
 0007:0002158D       aAs_cap
 0007:00021594       aHt_info_field1
 0007:000215A3       aHt_info_field2
 0007:000215B2       aHt_info_field3
 0007:000215C1       aBasic_mcs_set
 0007:000215CF       aGreenfield_cap
 0007:000215E5       aMax_amsdu_leng
 0007:000215F6       aMpdu_density
 0007:00021603       aMax_rx_ampdu_f
 0007:00021617       aShort_gi_20mhz
 0007:00021626       aShort_gi_40mhz
 0007:00021635       aRifs_enabled
 0007:00021642       aMax_ps_poll
 0007:0002164E       aNum_beacon_per
 0007:0002166A       aRssi_filter_pe
 0007:0002167D       aMin_rssi_thres
 0007:00021690       aNth_beacon_fil
 0007:000216A2       aBroadcast_fram
 0007:000216C0       aScan_in_powers
 0007:000216D2       aIgnore_dtim
 0007:000216DE       aWowlan_ucast_p
 0007:00021701       aWowlan_channel
 0007:0002171E       aWowlan_deauth_
 0007:00021733       aWowlan_disasso
 0007:0002174A       aWowlan_max_mis
 0007:00021763       aWowlan_max_sle
 0007:0002177B       aBa_timeout
 0007:00021786       aBa_threshold_h
 0007:00021798       aMax_ba_buffers
 0007:000217A7       aMax_ba_session
 0007:000217B7       aBa_auto_setup
 0007:000217C5       aAddba_req_decl
 0007:000217D7       aBg_scan_channe
 0007:000217EC       aMax_medium_tim
 0007:000217FC       aMax_mpdus_in_a
 0007:0002180F       aIbss_auto_bssi
 0007:0002181F       aProbe_req_addn
 0007:00021835       aProbe_req_ad_0
 0007:0002184B       aProbe_rsp_addn
 0007:00021861       aProbe_rsp_ad_0
 0007:00021878       aProbe_rsp_ad_1
 0007:0002188F       aProbe_rsp_ad_2
 0007:000218A6       aAssoc_rsp_addn
 0007:000218BC       aAssoc_rsp_ad_0
 0007:000218D2       aProbe_req_ad_1
 0007:000218EB       aProbe_req_ad_2
 0007:00021904       aProbe_rsp_bcn_
 0007:0002191E       aProbe_rsp_bc_0
 0007:00021938       aWps_enable
 0007:00021943       aWps_state
 0007:0002194D       aWps_probe_req_
 0007:00021960       aWps_version
 0007:0002196C       aWps_request_ty
 0007:0002197D       aWps_cfg_method
 0007:0002198C       aWps_uuid
 0007:00021995       aWps_primary_de
 0007:000219B1       aWps_pimary_dev
 0007:000219C7       aWps_device_sub
 0007:000219DF       aWps_associatio
 0007:000219F5       aWps_configurat
 0007:00021A0D       aWps_device_pas
 0007:00021A24       aWps_assoc_meth
 0007:00021A35       aLow_gain_overr
 0007:00021A47       aEnable_phy_agc
 0007:00021A62       aRpe_polling_th
 0007:00021A78       aRpe_aging_thre
 0007:00021A98       aRpe_aging_th_0
 0007:00021AB8       aRpe_aging_th_1
 0007:00021AD8       aRpe_aging_th_2
 0007:00021AF8       aNo_of_onchip_r
 0007:00021B16       aSingle_tid_rc
 0007:00021B24       aRrm_enabled
 0007:00021B30       aRrm_operating_
 0007:00021B47       aRrm_non_operat
 0007:00021B62       aTx_pwr_ctrl_en
 0007:00021B75       aMcast_bcast_fi
 0007:00021B90       aBtc_dhcp_bt_sl
 0007:00021BAB       aDynamic_ps_pol
 0007:00021BC1       aPs_nulldata_ap
 0007:00021BDD       aTele_bcn_wakeu
 0007:00021BF0       aTele_bcn_trans
 0007:00021C02       aTele_bcn_tra_0
 0007:00021C1E       aTele_bcn_max_l
 0007:00021C2E       aTele_bcn_max_0
 0007:00021C48       aBtc_a2dp_dhcp_
 0007:00021C67       aInfra_sta_keep
 0007:00021C83       aAssoc_sta_limi
 0007:00021C93       aSap_channel_se
 0007:00021CB4       aSap_channel__0
 0007:00021CD3       aSap_channel__1
 0007:00021CF5       aAp_data_avail_
 0007:00021D0F       aEnable_close_l
 0007:00021D21       aSDMacAddrDDDDD
 0007:00021D47       aSDInvalidStaId
 0007:00021D62       aSDStaDNeverAdd
 0007:00021D7E       aSDInfiniteLoop
 0007:00021D95       aSDEntryNotPres
 0007:00021DB9       aSDInvalidAssoc
 0007:00021DD6       aSDCouldNotRe_0
 0007:00021E0A       aSDAlreadyAdded
 0007:00021E28       aSDAssocidDHash
 0007:00021E56       aSDCouldNotInit
 0007:00021E77       aSDDoNotDropBea
 0007:00021EBE       a6WlanDoNotDrop
 0007:00021F08       aSDReceivedSir_
 0007:00021F51       aSDReceivedSi_0
 0007:00021F98       aSDUnableToGetS
 0007:00021FBF       aSDCouldNotUpda
 0007:00021FF0       aSDChannelChang
 0007:0002202B       aSDRegisteringT
 0007:00022070       aSDSysbbtproces
 0007:000220BA       aSDMaxNumberOfB
 0007:000220F3       aSDMemoryAllo_8
 0007:00022114       aSDMemoryAllo_9
 0007:0002213E       aSDDeregister_4
 0007:00022185       aSDInvalidSmeSt
 0007:000221A3       aSDCouldNotRe_1
 0007:000221CA       aSDCouldNotRe_2
 0007:000221FA       aSDCouldNotUp_0
 0007:00022224       aSDCouldNotRe_3
 0007:00022253       aSDCouldNotUp_1
 0007:0002227B       aSDCouldNotRe_4
 0007:000222B8       aSDCouldNotRe_5
 0007:000222E6       aSDCouldNotRe_6
 0007:00022315       aSDCouldNotRe_7
 0007:00022342       aSDCouldNotUp_2
 0007:0002236F       aSDCfgGetShortP
 0007:00022396       aSDCfgGetBssidF
 0007:000223B4       aSDLimCannotAll
 0007:000223F6       aSDLimPmmsendpo
 0007:00022422       aSDUnableToGetL
 0007:00022459       aSDMintxpowerSt
 0007:00022493       aSDInvalidAuthT
 0007:000224C8       aSDCouldNotRe_8
 0007:000224FB       aAuthResponseTi
 0007:00022511       aSDCannotCreate
 0007:00022545       aSDSendingSir_h
 0007:00022575       aSDPostingAdd_s
 0007:000225AB       aSDCallToPalall
 0007:000225E1       aSDUnableToPalA
 0007:00022617       aSDSendingHal_d
 0007:00022649       aSDPostingDelet
 0007:00022682       aSDUnableToPa_0
 0007:000226B8       aSDSendingSir_0
 0007:000226FE       aSDPostingDel_0
 0007:00022737       aSDApcapextract
 0007:00022764       aSDMoreThan12Ra
 0007:00022787       aSumOfSupported
 0007:000227C0       aRelyingOnlyOnT
 0007:000227ED       aSDCouldNotRe_9
 0007:00022829       aSDCouldNotR_10
 0007:00022855       aSDCfgGetFailed
 0007:0002287A       aSDX
 0007:00022886       aSDCouldNotR_11
 0007:000228B4       aSDOneOfBasicMc
 0007:000228F8       aSDCouldNotUp_3
 0007:00022929       aSDCannotEnable
 0007:0002294F       aSDNullPsession
 0007:0002296A       aSDDeletingDphH
 0007:0002299A       aSDParamBitmapD
 0007:000229B6       aSDErrorDeletin
 0007:000229D9       aSDLimPostingDi
 0007:00022A0F       aSDLimPostingDe
 0007:00022A43       aSDLimPostingPu
 0007:00022A7A       aSDPstadsIsNull
 0007:00022A92       aSDInitiateClea
 0007:00022AAE       aSDNoStaContext
 0007:00022AE1       aSDReceivedReAs
 0007:00022B27       aSDSessionDoe_0
 0007:00022B5B       aSDNoStaConte_0
 0007:00022B90       aSDDidNotReceiv
 0007:00022BE2       aSDReceivedCnf_
 0007:00022C11       aQosInAssocreqD
 0007:00022C38       aSDReceivedUnma
 0007:00022C79       aSDErrorGetting
 0007:00022CB5       aSDSendingSir_1
 0007:00022CDC       aSDPostingAdd_b
 0007:00022D12       aSDCouldnTGetAs
 0007:00022D5B       aSDCouldNotUp_4
 0007:00022D8A       aSDCouldnTGetLi
 0007:00022DB0       aSDUnableToAllo
 0007:00022DE2       aPo_0
 0007:00022DE7       aSDUapsd0xXMaxs
 0007:00022E0B       aSDSendingSir_2
 0007:00022E3F       aSDAdd_sta_reqF
 0007:00022E72       aSDIbssEnablePr
 0007:00022E97       aSDIbssDisableP
 0007:00022EBF       aSDDALegacyStaI
 0007:00022EF4       aSDNoMore11bSta
 0007:00022F2A       aSDHeartbeatFai
 0007:00022F52       aSDHeartbeatF_0
 0007:00022F6D       aSDAloneInIbss
 0007:00022F84       aSDIbssAdd_sta_
 0007:00022FAD       aSDIbssAdd_st_0
 0007:00022FDD       aSDIbssAdd_st_1
 0007:00023003       aSDIbssSendingI
 0007:00023034       aSDPstadsIsNu_0
 0007:0002304C       aSDEnableProtec
 0007:00023070       aSDNoSpaceInPro
 0007:00023092       aSDUnableToHand
 0007:000230D9       aSDSendingJoine
 0007:0002310E       aSDNumberOfPeer
 0007:0002314B       aSDNumberOfPe_0
 0007:0002317F       aSDIbssDel_bss_
 0007:000231B2       aSDIbssDel_bs_0
 0007:000231E5       aSDIbssDel_bs_1
 0007:0002321C       aSDUnableToAddB
 0007:0002324C       aSDCfgGetWni__7
 0007:0002327C       aSDCouldNotUp_5
 0007:000232AD       aSDCouldNotUp_6
 0007:000232E2       aSDAddbssFailur
 0007:000232FA       aSDUnableToSetF
 0007:0002332D       aSDIbssDel_bs_2
 0007:00023356       aSDSessionDoe_1
 0007:0002338A       aSDIbssDel_bs_3
 0007:000233B7       aSDIbssDel_bs_4
 0007:000233E6       aSDInvalidIbssA
 0007:00023403       aSDRxAddIbssSta
 0007:00023425       aSDStaExistsAlr
 0007:00023441       aSDCouldNotAddH
 0007:0002347E       aSDHashtbladdFa
 0007:000234A5       aSDIbssStaAddFa
 0007:000234CE       aSDUpdateBeacon
 0007:000234F2       aSDInitiatingAd
 0007:00023521       aSDIbssCoalesci
 0007:00023543       aSDIbbsSaveFail
 0007:0002356A       aSDIbbsSaveFa_0
 0007:00023594       aSDInitiatingIb
 0007:000235B8       aSDIncorrectLim
 0007:000235E9       aSDDelbssFailed
 0007:0002360B       aSDIbssPeerNode
 0007:00023640       aSDAllocFailDBy
 0007:00023676       aSDUnableToAl_0
 0007:000236A8       aSDDphNodePrese
 0007:000236D8       aSDLimIbssStaAd
 0007:00023705       aSDBeaconparams
 0007:0002374A       aSDPartnerJoine
 0007:00023794       aSDCouldNotActi
 0007:000237C0       a6WlanHeartbeat
 0007:000237DD       aSDHeartbeatF_1
 0007:000237F8       a6WlanHeartBeat
 0007:00023830       aSDHeartBeatMis
 0007:00023866       aSDFailToReActi
 0007:0002389F       aSDSessionDoe_2
 0007:000238D3       a6WlanNoProbers
 0007:00023916       a6WlanHandleDis
 0007:00023933       aSDNoProberspFr
 0007:00023974       aSDSkipStaDelet
 0007:0002399D       aSDPalallocat_1
 0007:000239D8       aSDBufferIsPoin
 0007:000239FC       aSDSessionDoe_3
 0007:00023A2C       aSDDeletingStat
 0007:00023A64       a6WlanSkipStaDe
 0007:00023A8E       aSDStaidMismatc
 0007:00023AB1       a6WlanStaidMism
 0007:00023AD5       aSDDeletingUnkn
 0007:00023AF9       aSDUnknownReaso
 0007:00023B18       aReceivedAActio
 0007:00023B3E       aSDUnhandledPub
 0007:00023B88       aSDUnhandledP_0
 0007:00023BB6       aSDUnhandledAct
 0007:00023BED       aRecvAddtsRespo
 0007:00023C02       aSDAddtsrspRecv
 0007:00023C2A       aSDStationConte
 0007:00023C61       aSDAddtsrspPars
 0007:00023C8D       aRecvdAddtsrspB
 0007:00023CC5       aAddtsrspTokenM
 0007:00023CFB       aSDStaDTooManyT
 0007:00023D32       aAddtsResponseF
 0007:00023D63       aRecvAddtsrspTs
 0007:00023D8E       aSDSelfEntryMis
 0007:00023DB9       aSDAddingEntryI
 0007:00023DEA       aSDAddtsrspRece
 0007:00023E22       aSDNoAcmBypassS
 0007:00023E59       aSDStationCon_0
 0007:00023E8D       aSDDeltsParsing
 0007:00023EB6       aSDIgnoringDelt
 0007:00023EEF       aSDIgnoringDe_0
 0007:00023F28       aSDDeltsWithUpD
 0007:00023F5F       aSDUnableToDele
 0007:00023F7C       aSDDeltsWithU_0
 0007:00023FC6       aSDAddbareqRcvd
 0007:0002401C       aSDTx_timer_dea
 0007:00024040       aSDQosActionDNo
 0007:00024063       aSDPalallocat_2
 0007:00024093       aSDFailedToUnpa
 0007:000240E1       aSDSpectrumMgmt
 0007:00024111       aSDWmeModeDisab
 0007:00024147       aSDWmeActionDNo
 0007:0002416A       aSDFailedToUn_0
 0007:000241B3       aSDStaContextNo
 0007:000241E9       aSDAddbaReqFrom
 0007:0002421B       aSDDeclinedTheA
 0007:0002424C       aSDFailedToPost
 0007:00024279       aSDFailedToUn_1
 0007:000242C3       aSDAddbaRspFrom
 0007:00024302       aSDDialoguetoke
 0007:00024356       aSDFailedToPo_0
 0007:00024383       aSDStaContext_0
 0007:000243B9       aSDDelbaIndFrom
 0007:000243E1       aSDFailedToUn_2
 0007:0002442C       aSDReceivedDelb
 0007:0002445F       aSDValidDelbaIn
 0007:000244A7       aSDReceivedAnIn
 0007:000244DC       aSDPostingWda_d
 0007:0002450A       aSDActionIdDNot
 0007:00024542       aSDActionCatego
 0007:0002456A       aSDTx_timer_act
 0007:0002458C       aSDPalallocat_3
 0007:000245BF       aSDAssocReqRsnI
 0007:000245E2       aSDNumberOfSupp
 0007:0002461C       aSDRsniedataInd
 0007:00024646       aSDWlan_cfggeti
 0007:0002466F       aSDBufferIsPo_0
 0007:00024693       aSDReceivedUnex
 0007:000246E3       aSDReceivedAsso
 0007:00024716       aSDReceivedReas
 0007:0002474B       aSDReceivedAs_0
 0007:0002476D       aSDPalAllocateM
 0007:0002479D       aSDParseErrorAs
 0007:000247D0       aSDCouldNotR_12
 0007:000247F9       aSDLocalCaps0xX
 0007:00024820       aSDReceivedAs_1
 0007:0002485F       aSDReceivedRe_0
 0007:000248A0       aSDReceivedAs_2
 0007:000248D6       aSDReceivedRe_1
 0007:0002490E       aSDReceivedAs_3
 0007:00024947       aSDReceivedRe_2
 0007:00024981       aSDSoftapWasIn1
 0007:000249BE       aSDSoftapWasI_0
 0007:000249FB       aSDLimInfoMissi
 0007:00024A3B       aSDLimInfoMis_0
 0007:00024A7D       aSDLimInfoMis_1
 0007:00024ABE       aSDLimInfoMis_2
 0007:00024B01       aSDLimInfoAssoc
 0007:00024B41       aSDLimInfoReass
 0007:00024B83       aSDLimInfoAss_0
 0007:00024BC1       aSDLimInfoRea_0
 0007:00024C01       aSDReceivedAs_4
 0007:00024C41       aSDReceivedRe_3
 0007:00024C82       aSDCouldNotR_13
 0007:00024CAC       aSDRejectingReA
 0007:00024CDA       aSDAdvcodingcap
 0007:00024D93       aSDApSupportsRs
 0007:00024DC3       aSDRejectingR_0
 0007:00024DED       aSDReceivedAs_5
 0007:00024E45       aSDReceivedRe_4
 0007:00024E9F       aSDReceivedAs_6
 0007:00024ECC       aSDReceivedRe_5
 0007:00024EFB       aSDCouldNotIn_0
 0007:00024F1C       aSDAdmitcontrol
 0007:00024F42       aSDAdmitcontr_0
 0007:00024F61       aSDReceivedAs_7
 0007:00024F8D       aSDReceivedRe_6
 0007:00024FBB       aSDCouldNotAd_0
 0007:00024FF9       aSDCouldNotUp_7
 0007:0002503A       aSDApDoNotSuppo
 0007:0002506A       aSDCouldNotAddS
 0007:00025095       aSDCouldNotDelS
 0007:000250C9       aSDPalfreeMemor
 0007:000250E9       aSDCouldNotGetR
 0007:0002511E       aSDCouldNotR_14
 0007:00025147       aSDEdcaErrorInA
 0007:00025169       aWmeEdcaSetUpda
 0007:0002519B       aSDWmeEdcaError
 0007:000251CB       aSDReceivedRe_7
 0007:00025201       aSDReceivedRe_8
 0007:0002523A       aSDPalAllocat_0
 0007:0002526A       aSDPalfreeMem_0
 0007:0002528A       aSDParseError_0
 0007:000252C0       aSDUnableToAl_1
 0007:000252FA       aSDReceivedRe_9
 0007:00025333       aSDCouldNotR_15
 0007:00025362       aSDReceivedR_10
 0007:00025396       aSDReceivedR_11
 0007:000253CF       aSDCouldNotGetH
 0007:000253FD       aSDSendingSelfS
 0007:00025417       aSDAssocRejecte
 0007:00025447       aSDFailedToSetT
 0007:0002546C       aSDErrorUnableT
 0007:000254B4       aSDPreAuthRespo
 0007:000254E5       aSDPreAuthDoneS
 0007:00025501       aSDReceivedAuth
 0007:00025545       aAuthStatusCode
 0007:00025567       aSeq_NoIncorrec
 0007:00025591       aSDReceivedAu_0
 0007:000255CA       aSDTkipCounterM
 0007:00025609       aSDNotEnoughSiz
 0007:00025645       aSDCouldNotR_16
 0007:00025670       aSDDecryptresul
 0007:000256AA       aSDCouldNotR_17
 0007:000256D2       aSDStaIsInitiat
 0007:0002570A       aSDStaIsIniti_0
 0007:00025746       aSDCouldNotR_18
 0007:00025770       aSDMaxPreAuthNo
 0007:00025794       aSDUnableToChgC
 0007:000257D0       aSDChallengeTex
 0007:00025811       aSDCouldNotR_19
 0007:0002583B       aSDAuthResponse
 0007:0002586A       aSDReceivedBeac
 0007:0002589D       aSDReceivedInva
 0007:000258D5       aSDRcvdBeaconIn
 0007:00025905       aSDReceivedIn_0
 0007:00025932       aSDUnableToAl_2
 0007:00025964       aSDUnableToRetr
 0007:000259B5       aSDTheTitanRela
 0007:000259FD       aSDFrm11aDFrom1
 0007:00025A6A       aSDReadingWni_c
 0007:00025AA6       aSDReadingProte
 0007:00025ACD       aSDCouldNotR_20
 0007:00025AFB       aSDCfgGetFail_0
 0007:00025B13       aSDCfgGetShor_0
 0007:00025B3A       aSDCfgGetWmeEna
 0007:00025B5E       aSDCfgGetWsmEna
 0007:00025B82       aSDCanTEnableWs
 0007:00025BA8       aSDCfgGetQosEna
 0007:00025BCC       aSDCfgGetHcfEna
 0007:00025BF0       aSDUnableToGetA
 0007:00025C1D       aSDCfgGet11dEna
 0007:00025C41       aSDCfgGetAssocS
 0007:00025C68       aSDCfgGetWni__8
 0007:00025C98       aSDCouldNotUp_8
 0007:00025CC9       aSDCouldNotR_21
 0007:00025CFF       aSDUnableToRe_0
 0007:00025D32       aSDUnsupportedC
 0007:00025D68       aSDCouldNotR_22
 0007:00025DA1       aSDCouldNotAc_0
 0007:00025DD3       aSDCouldNotR_23
 0007:00025DFA       aSDCouldNotR_24
 0007:00025E2A       aSDCouldNotUp_9
 0007:00025E54       aSDCouldNotR_25
 0007:00025E83       aSDCouldNotU_10
 0007:00025EAB       aSDFailedLimpos
 0007:00025EC9       aSDCouldNotR_26
 0007:00025EF5       aSDCouldNotR_27
 0007:00025F20       aSDCouldNotR_28
 0007:00025F51       aSDCouldNotR_29
 0007:00025F80       aSDCouldNotR_30
 0007:00025FB1       aSDCouldNotR_31
 0007:00025FDF       aSDCouldNotR_32
 0007:0002600D       aSDCouldNotR_33
 0007:0002603C       aSDCouldNotR_34
 0007:00026069       aSDCouldNotU_11
 0007:00026096       aSDCouldNotR_35
 0007:000260C3       aSDCouldNotR_36
 0007:00026100       aDeactivatingHe
 0007:00026128       aReactivatingHe
 0007:00026150       aSDLimCannotA_0
 0007:00026192       aSDLimPmmsend_0
 0007:000261BE       aSDCouldNotR_37
 0007:000261EA       aSDUnableToGetW
 0007:0002621C       aSDUnableToGe_0
 0007:0002624A       aSDReceivedDeau
 0007:000262C4       a6WlanReceivedD
 0007:00026309       aSDReceivedDe_0
 0007:00026352       aSDReceivedDe_1
 0007:00026395       aSDRcvDeauthFro
 0007:000263DA       aSDReceivedDe_2
 0007:0002641D       aSDReceivedDe_3
 0007:0002646B       aSDPreauthEntry
 0007:00026496       aSDRcvDeauthF_0
 0007:000264CF       a6WlanReceive_0
 0007:00026522       aSDReceivedDisa
 0007:0002657A       aSDIgnoreTheDis
 0007:000265D4       aSDReceivedDi_0
 0007:00026619       aSDIgnoringDisa
 0007:0002665F       aSDReceivedDi_1
 0007:000266BC       aSDSelfEntryM_0
 0007:000266E7       aSDReceivedDi_2
 0007:00026728       aSDSessionDSysr
 0007:0002678D       aSDFailToRetrie
 0007:000267C1       aSDFailToRetr_0
 0007:000267F7       aSDFailToRetr_1
 0007:0002682E       aSDFailToRetr_2
 0007:00026865       aSDFailToRetr_3
 0007:0002689C       aSDCouldNotAllo
 0007:000268D3       aSDInnavFailedT
 0007:0002690D       aSDBufferIsPo_1
 0007:00026931       aSDProcessingAb
 0007:00026953       aSDWaitingForHa
 0007:00026998       aSDForceAbortin
 0007:000269B6       aSDUnableToDefe
 0007:00026A2C       aSDReceivedResu
 0007:00026A60       aSDReceivedR_12
 0007:00026A9A       aSDProtversionD
 0007:00026AD4       aSDSessionDoe_4
 0007:00026B04       aSDRcvdFrameMat
 0007:00026B3B       aSDReceivedFram
 0007:00026B64       aSDUnexpectedFr
 0007:00026B9B       aSDProtversio_0
 0007:00026BC8       aSDUnexpectedMe
 0007:00026BF0       aSDReceivedMess
 0007:00026C16       aSDPsessionentr
 0007:00026C69       aSDUnoa1interva
 0007:00026CBB       aSDAddr2Mismatc
 0007:00026CE9       aSDDiscardingUn
 0007:00026D1C       aSDUnableToDe_0
 0007:00026D95       aSDCouldNotRead
 0007:00026DD5       aSDNullPointer
 0007:00026DEB       aSDInnavCouldNo
 0007:00026E2C       aSDInnavPosting
 0007:00026E6B       aSDInnavMemoryA
 0007:00026EC4       aSDBufferIsPo_2
 0007:00026EE8       aSDInnavFailedI
 0007:00026F0F       aSDInnavCalling
 0007:00026F42       aSDUnableToPa_1
 0007:00026F78       aSDErrorUnabl_0
 0007:00026FB6       aSDTryingToHide
 0007:00026FD6       aSDCouldnTGet_0
 0007:00026FFC       aSDCouldnTGetSh
 0007:00027021       aSDGfDChnlwidth
 0007:0002707B       aSDSendingWda_a
 0007:0002709F       aSDPostingAdd_0
 0007:000270D5       aSDPalallocat_4
 0007:000270F9       aSDWdapostctrlm
 0007:00027127       aSDWdapostctr_0
 0007:00027159       aSDInvalidState
 0007:0002718C       aSDChannelD
 0007:000271A0       aSDInvalidSta_0
 0007:000271D5       aSDInvalidPar_1
 0007:000271F0       aSDGlimsuspendl
 0007:00027232       aSDNextScanStat
 0007:0002726D       aSDSkippingChan
 0007:00027287       aSDGlimresumeli
 0007:000272C8       aSDSendingProbe
 0007:00027308       aSDSendProbereq
 0007:00027341       aSDCouldNotStar
 0007:0002736C       aSDUnableToDeac
 0007:0002739C       aSDCouldNotR_38
 0007:000273D2       aSDUnableToChan
 0007:000273FE       aSDCouldNotSt_0
 0007:00027429       aSDSendingStart
 0007:00027467       aSDReceivedUn_0
 0007:000274BC       aSDSessionDoe_5
 0007:000274F0       aSDCouldNotR_39
 0007:00027525       aSDNumberOfPreA
 0007:00027553       aSDCouldNotSt_1
 0007:0002757F       aSDSessionDoe_6
 0007:000275B3       aSDCouldNotSt_2
 0007:000275E6       aSDFailedToSe_0
 0007:0002760B       aSDReceivedUn_1
 0007:00027659       aSDSessionDoe_7
 0007:0002768D       aSDReceivedMlm_
 0007:000276C4       aSDReceivedMl_0
 0007:0002772A       aSDReceivedMl_1
 0007:0002775F       aSDPeerMacAddr
 0007:00027778       aSDCfgBssidAddr
 0007:00027794       aSDReceivedMl_2
 0007:000277CF       aSDReceivedMl_3
 0007:00027819       aSDReceivedMl_4
 0007:0002787C       aSDReceivedUn_2
 0007:000278B3       aSDInnavUnexpec
 0007:00027902       aSDCouldNotAl_0
 0007:0002793A       aSDLimprocessml
 0007:00027968       aSDLimsetlinkst
 0007:000279A6       aSDUnexpectedJo
 0007:000279DC       aSDReceivedUn_3
 0007:00027A2C       aSDReceivedMl_5
 0007:00027A95       aSDReceivedMl_6
 0007:00027ACA       aSDTryingToSetG
 0007:00027AF2       aSDTryingToSetU
 0007:00027B19       aSDReceivedMl_7
 0007:00027B7F       aSDTryingToSetK
 0007:00027BC7       aSDReceivedMl_8
 0007:00027BFE       aSDReceivedMl_9
 0007:00027C67       aSDReceivedUn_4
 0007:00027CA4       aSDReceivedUn_5
 0007:00027CE1       aSDCouldNotR_40
 0007:00027D03       aSDJoinFailureT
 0007:00027D2C       aSDReceivedUn_6
 0007:00027D6A       aSDReceivedUn_7
 0007:00027DA8       aSDSessionDoe_8
 0007:00027DD9       aSDReceivedUn_8
 0007:00027DFE       aSDReceivedUn_9
 0007:00027E3C       aSDReceivedU_10
 0007:00027E89       aSDAssocFailure
 0007:00027EB2       aSDPalallocat_5
 0007:00027EE7       aSDSessionDoe_9
 0007:00027F1C       aSDFailedToSend
 0007:00027F47       aSDSessionDo_10
 0007:00027F77       aSDPalallocat_6
 0007:00027F99       aSDErrorUnabl_1
 0007:00027FC9       aSDUnableToPa_2
 0007:00028010       aSDSessionDo_11
 0007:00028040       aSDStaContext_1
 0007:00028081       aSDReceivedU_11
 0007:000280C4       aSDReceivedAn_0
 0007:00028100       aSDAttemptToPos
 0007:00028141       aSDBaDeleteReas
 0007:0002819E       aSDBufferIsPo_3
 0007:000281C2       aSDSessionDo_12
 0007:000281F6       aSDStaContext_2
 0007:00028233       aSDReceivedU_12
 0007:00028272       aSDStaContext_3
 0007:000282AF       aSDReceivedU_13
 0007:000282EE       aSDFailedToPo_1
 0007:0002831B       aSDEndscanrspWi
 0007:00028346       aNoResumeLinkCa
 0007:00028383       aSDRcvdFinishsc
 0007:000283BB       aSDRcvdEndscanr
 0007:000283F0       aSDFinishScan
 0007:00028406       aSDInitscanrspW
 0007:00028432       aNoSuspendLinkC
 0007:00028470       aSDLimprocessin
 0007:000284BD       aSDStartscanrsp
 0007:000284EA       aSDRcvdStartsca
 0007:00028521       aSDPsessionen_0
 0007:00028541       aSDSessionDo_13
 0007:00028576       aSDRcvUnexpecte
 0007:000285B9       aSDRcvMlm_reass
 0007:000285EA       aSDDphEntryForS
 0007:00028611       aSDReceivedU_14
 0007:0002864A       aSDErrorRcvdDel
 0007:00028682       aSDStaAssocidDS
 0007:000286A7       aSDEncounteredN
 0007:000286C9       aSDReceivedU_15
 0007:00028705       aSDDel_sta_rspR
 0007:00028733       aSDDel_staFaile
 0007:0002874C       aSDApReceivedTh
 0007:00028782       aSDReceivedU_16
 0007:000287D4       aSDDeletedStaAs
 0007:00028801       aSDCouldNotAd_1
 0007:0002882C       aSDDelStaFailed
 0007:00028845       aSDSessionEntry
 0007:0002886B       aSDBssDel_bss_r
 0007:00028893       aSDReceivedU_17
 0007:000288CC       aSDBssDel_bss_0
 0007:000288F8       aSDReceivedM_10
 0007:00028932       aSDSessionDo_14
 0007:00028967       aSDReceivedM_11
 0007:0002899E       aSDSessionDo_15
 0007:000289D4       aSDReceivedU_18
 0007:00028A0C       aSDSessionDo_16
 0007:00028A3C       aSDReceivedU_19
 0007:00028A77       aSDReceivedU_20
 0007:00028AB1       aSDSessionDo_17
 0007:00028AE5       aSDCallToPala_0
 0007:00028B26       aSDMlmAssocindS
 0007:00028B66       aSDCallToPala_1
 0007:00028BA6       aSDCallToPala_2
 0007:00028BE9       aSDMlmReassocin
 0007:00028C2B       aSDSessionDo_18
 0007:00028C5F       aSDReceivedU_21
 0007:00028C96       a6WlanAssociati
 0007:00028CCB       aSDSessionDo_19
 0007:00028CFF       aSDReceivedU_22
 0007:00028D35       aSDCouldNotR_41
 0007:00028D60       a6WlanOpenAuthe
 0007:00028D9B       aSDCallToPala_3
 0007:00028DD4       aSDCouldNotR_42
 0007:00028E09       a6WlanAuthFailu
 0007:00028E2A       aSDAuthFailureO
 0007:00028E4A       aSDFailedToSe_1
 0007:00028E70       a6WlanAuthentic
 0007:00028E92       aSDCallToPala_4
 0007:00028ECC       aSDCouldNotR_43
 0007:00028F02       aSDCouldNotR_44
 0007:00028F31       aSDCouldnTGetWn
 0007:00028F62       aSDCouldNotR_45
 0007:00028F8D       aSDReceivedU_23
 0007:00028FC3       aSDStartingToAd
 0007:00028FE7       aSDSessionDo_20
 0007:0002901D       aSDReceivedU_24
 0007:00029054       aSDStartedBssIn
 0007:00029083       aSDStartedBss_0
 0007:000290B1       aSDStartedBss_1
 0007:000290DE       aSDReceivedU_25
 0007:00029114       aSDCouldNotAc_1
 0007:00029146       aSDFailToGetSta
 0007:00029174       aSDPostingAddbs
 0007:000291AE       aSDDelbssIsBein
 0007:000291FE       aSDNullAddBaRes
 0007:00029225       aSDSessionDo_21
 0007:0002925D       aSDPalallocat_7
 0007:00029293       aSDPlimmlmreass
 0007:000292D9       aSDChangeChanne
 0007:000292FA       aSDCouldNotSt_3
 0007:0002932F       aSDInvalidPoint
 0007:0002934A       aSDCouldNotAc_2
 0007:00029379       aSDFailedToGetW
 0007:000293B4       aSDReceivedU_26
 0007:000293EC       aSDLimmsgqBodyp
 0007:0002940D       aSDLimmsgqBod_0
 0007:0002942E       aSDCouldNotAc_3
 0007:0002945A       aSDFailedToGe_1
 0007:0002948B       aSDWda_add_bss_
 0007:000294BA       aSDReceivedU_27
 0007:000294F3       aSDWda_add_bs_0
 0007:0002952E       aSDCouldNotAd_2
 0007:0002955C       aSDCouldNotR_46
 0007:00029581       aSDMlmDD
 0007:00029594       aSDFailedToSe_2
 0007:000295B9       aSDSetTheMlmSta
 0007:000295E5       aSDUnableToPa_3
 0007:0002961B       aSDCouldnTGet_1
 0007:00029641       aSDOnStaAdd_bss
 0007:00029669       aSDCouldNotAd_3
 0007:0002969B       aSDAdd_bssFaile
 0007:000296B4       aSDStaReceivedT
 0007:000296E9       aSDFailureInSet
 0007:00029718       aSDDphEntryFo_0
 0007:0002973E       aSDDelBssFailed
 0007:00029757       aSDUnableToGetT
 0007:0002978E       aSDCannotActiva
 0007:000297B8       aSDAdd_staFaile
 0007:000297D1       aSDCallToPala_5
 0007:00029812       aSDCouldntSendT
 0007:0002983C       aReceivedAProbe
 0007:0002985B       aSDParseErrorPr
 0007:0002988F       aSDMemoryAll_10
 0007:000298B0       aFailedToCfgG_0
 0007:000298C9       aSDOverlapD
 0007:000298DF       aSDReceivedProb
 0007:0002991A       aSDParseError_1
 0007:00029948       aSDUnableToAl_3
 0007:0002997A       a6WlanReceivedP
 0007:000299B3       aSDReceivedPr_0
 0007:000299EA       aSDEdcaParamete
 0007:00029A13       aSDSelfEntryM_1
 0007:00029A3D       aSDCouldNotDefe
 0007:00029A5F       aSDReceivedSme_
 0007:00029A96       aSDCallToPala_6
 0007:00029AD4       aSDCouldNotR_47
 0007:00029B03       aSDCallToPala_7
 0007:00029B40       aSDBufferIsPo_4
 0007:00029B64       aSDCallToPala_8
 0007:00029B9E       aSDReceivedSm_0
 0007:00029BCF       aSDSessionAlrea
 0007:00029BFF       aSDReceivedSm_1
 0007:00029C37       aSDSessionCanNo
 0007:00029C5C       aSDPePersonaD
 0007:00029C72       aSDReceivedSm_2
 0007:00029CA7       aSDCallToPala_9
 0007:00029CE0       aSDCouldNotR_48
 0007:00029D13       aSDUapsdFlagFor
 0007:00029D3A       aSDFailToGetWni
 0007:00029D64       aSDReceivedU_28
 0007:00029D9A       aSDCallToPal_10
 0007:00029DD4       aSDReceivedSm_3
 0007:00029E08       aSDSessionDo_22
 0007:00029E38       aSDSessionInRea
 0007:00029E60       aSDUnknownBssid
 0007:00029E88       aSDReceivedU_29
 0007:00029EC1       aSDCallToPal_11
 0007:00029EFD       aSDCouldNotR_49
 0007:00029F35       aSDCouldNotR_50
 0007:00029F64       aSDCouldnTGet_2
 0007:00029F95       aSDCouldNotR_51
 0007:00029FC0       aSDReceivedIn_1
 0007:00029FF3       aSDReceivedDi_3
 0007:0002A033       aSDSessionDo_23
 0007:0002A063       aSDRcvdSme_disa
 0007:0002A0A1       aSDReceivedU_30
 0007:0002A0DB       aSDReceivedU_31
 0007:0002A115       aSDCallToPal_12
 0007:0002A152       aSDReceivedIn_2
 0007:0002A183       aSDReceivedU_32
 0007:0002A1B6       aSDReceivedU_33
 0007:0002A1EE       aSDCallToPal_13
 0007:0002A229       aSDCallToPal_14
 0007:0002A266       aSDReceivedIn_3
 0007:0002A29B       aSDNumkeysDIsMo
 0007:0002A2DC       aSDSessionDo_24
 0007:0002A30C       aSDCallToPal_15
 0007:0002A348       aSDNumOfKeysExc
 0007:0002A384       aSDReceivedU_34
 0007:0002A3CA       aSDCallToPal_16
 0007:0002A406       aSDReceivedIn_4
 0007:0002A43E       aSDCallToPal_17
 0007:0002A47D       aSDReceivedU_35
 0007:0002A4C2       aSDReceivedU_36
 0007:0002A4FF       aSDDphStationNu
 0007:0002A51F       aSDMac02x02x02x
 0007:0002A54B       aSDAssociatio_0
 0007:0002A567       aSDStationIndex
 0007:0002A582       aSDReceivedIn_5
 0007:0002A5B5       aSDSessionDo_25
 0007:0002A5E6       aSDReceivedU_37
 0007:0002A62D       aSDReceivedStop
 0007:0002A660       aSDDelbssFail_0
 0007:0002A682       aSessionDoesNot
 0007:0002A6AA       aAddtsReceivedO
 0007:0002A6CB       aAddtsReceivedW
 0007:0002A6FD       aCannotFindApCo
 0007:0002A723       aAddtsReceivedI
 0007:0002A748       aSDAddts_reqIgn
 0007:0002A774       aAddtsReceive_0
 0007:0002A7A1       aAddtsTokenDTsi
 0007:0002A7D4       aSDUnableToGetC
 0007:0002A80C       aSDAddtsrspTime
 0007:0002A833       aSDAddtsrspTi_0
 0007:0002A85E       aSDCalledWithSt
 0007:0002A89A       aSDFailedToPo_2
 0007:0002A8C7       aSDSessionDo_26
 0007:0002A8FB       aAddtsrsptimeou
 0007:0002A921       aAddtsrsptime_0
 0007:0002A943       aSDInvalidAddts
 0007:0002A975       aSDPmsgbufIsNul
 0007:0002A98F       aSDReceivedIn_6
 0007:0002A9C4       aSDReceivedU_38
 0007:0002AA04       aSDReceivedIn_7
 0007:0002AA51       aSDReceivedIn_8
 0007:0002AAD2       aSDReceivedSm_4
 0007:0002AB00       aSDSendingAssoc
 0007:0002AB37       aSDReceivedIn_9
 0007:0002AB75       aSDReceivedI_10
 0007:0002ABB3       aSDReceivedU_39
 0007:0002ABE3       aSDNumchnIsOutO
 0007:0002AC07       aSDCallToPal_18
 0007:0002AC46       aSDPalallocat_8
 0007:0002AC87       aSDReceivedI_11
 0007:0002ACB8       aSDPePersonaD_0
 0007:0002ACCF       aSDPalallocat_9
 0007:0002ACF3       aSDSecondarycha
 0007:0002AD48       aSDCouldNotSetW
 0007:0002AD84       aSDCallToPal_19
 0007:0002ADBE       aSDCouldNotR_52
 0007:0002ADF7       aSDRequestToSta
 0007:0002AE41       aSDCouldNotR_53
 0007:0002AE69       aSDCouldNotR_54
 0007:0002AE95       aSDCouldNotR_55
 0007:0002AEC0       aSDReceivedU_40
 0007:0002AEF8       aSDCouldNotSetN
 0007:0002AF27       aSDInvalidSme_s
 0007:0002AF5F       aSDSendingWda_s
 0007:0002AF8D       aSDWdapostctr_1
 0007:0002AFAC       aSDPalalloca_10
 0007:0002AFE2       aSDInvalidSme_d
 0007:0002B00C       aSDReceivedI_12
 0007:0002B03F       aSDReceivedU_41
 0007:0002B074       aSDReceivedU_42
 0007:0002B0AA       aSDReceivedDi_4
 0007:0002B0F5       aSDSelfEntryM_2
 0007:0002B120       aUnknownStatist
 0007:0002B13C       aUnableToForwar
 0007:0002B157       aSDCallToPal_20
 0007:0002B198       aSDCallToPal_21
 0007:0002B1DC       aSDUnableToAl_4
 0007:0002B214       aSDSendingSir_3
 0007:0002B249       aSDUnableToAl_5
 0007:0002B281       aSDReturningCbS
 0007:0002B2A7       aSDCfgsetintWni
 0007:0002B2E5       aSDNewCbState0x
 0007:0002B30E       aSDCouldNotU_12
 0007:0002B347       aSDAbortBackgro
 0007:0002B367       aSDFailToGetW_0
 0007:0002B3B2       aSDHadDConsecSc
 0007:0002B405       aSDCouldNotR_59
 0007:0002B434       aSDCouldNotR_56
 0007:0002B455       aSDCouldNotR_57
 0007:0002B482       aSDCouldNotR_58
 0007:0002B4AF       aSDSkippingBack
 0007:0002B4F6       aSDSmeShouldSen
 0007:0002B55D       aSDUnableToDe_1
 0007:0002B595       aSDSendDummySca
 0007:0002B5ED       aSDCollectedBss
 0007:0002B64E       aSDBeaconProbeR
 0007:0002B698       aSDCallForPalal
 0007:0002B6DF       aSDCompletedS_1
 0007:0002B726       aSDCouldNotAc_4
 0007:0002B754       aSDCouldNotR_60
 0007:0002B787       aSDCouldNotR_61
 0007:0002B7BA       aSDCouldNotR_62
 0007:0002B7F2       aSDBufferIsPo_5
 0007:0002B816       aSDUnableToPa_4
 0007:0002B852       aSDRequestToRem
 0007:0002B8B1       aSDSendingWda_r
 0007:0002B8DB       aSDPostingRemov
 0007:0002B913       aSDUnableToPa_5
 0007:0002B94F       aSDSendingWda_0
 0007:0002B979       aSDPostingRem_0
 0007:0002B9B1       aSDUnableToPa_6
 0007:0002B9EA       aSDUnableToRead
 0007:0002BA18       aSDSendingWda_1
 0007:0002BA3F       aSDPostingSet_s
 0007:0002BA74       aSDNumkeysDIs_0
 0007:0002BAB7       aSDSendingWda_2
 0007:0002BADE       aSDPostingSet_b
 0007:0002BB13       aSDPeerNotFound
 0007:0002BB43       aSDFailedToCalc
 0007:0002BB92       aSDPalpktallocF
 0007:0002BBC8       aSDFailedToPack
 0007:0002BBF7       aSDSendingADelb
 0007:0002BC18       aSDHaltxframeFa
 0007:0002BC40       aSDFailedToCa_0
 0007:0002BC8D       aSDFailedToP_10
 0007:0002BCBC       aSDSendingAnAdd
 0007:0002BCDE       aSDFailedToCa_1
 0007:0002BD2A       aSDFailedToP_11
 0007:0002BD59       aSDSendingAnA_0
 0007:0002BD7B       aSDFailedToCa_2
 0007:0002BDCA       aSDFailedToAl_2
 0007:0002BE08       aSDFailedToPopu
 0007:0002BE58       aSDFailedToP_12
 0007:0002BE8D       aSDFailedToSe_3
 0007:0002BEBD       aSDFailedToCa_3
 0007:0002BF09       aSDFailedToAl_3
 0007:0002BF44       aSDFailedToPo_3
 0007:0002BF91       aSDFailedToP_13
 0007:0002BFC4       aSDFailedToSe_4
 0007:0002BFF1       aSDAuthFrameFti
 0007:0002C01C       aSDCallToBufall
 0007:0002C04C       aSDAuth1FrameFt
 0007:0002C06A       aSDCouldNotSend
 0007:0002C0A1       aSDLimsendreass
 0007:0002C0E6       aSDFailedToCa_4
 0007:0002C13A       aSDFtIeReassocR
 0007:0002C15B       aSDFailedToAl_4
 0007:0002C19E       aSDFailedToPo_4
 0007:0002C1F1       aSDFailedToP_14
 0007:0002C22C       aSDReAssocReqFr
 0007:0002C24C       aSDFailedToSe_5
 0007:0002C280       aSDUnableToAl_6
 0007:0002C2B9       aSDMdie02x02x_0
 0007:0002C2D8       aSDMdieNotPrese
 0007:0002C2F2       aSDFailedToCa_5
 0007:0002C344       aSDFailedToAl_5
 0007:0002C385       aSDFailedToP_15
 0007:0002C3B8       aSDFailedToSe_6
 0007:0002C3EA       aSDFailedToCa_6
 0007:0002C42E       aSDFailedToCa_7
 0007:0002C476       aSDFailedToAl_6
 0007:0002C4B3       aSDFailedToPo_5
 0007:0002C502       aSDFailedToP_16
 0007:0002C533       aSDFailedToP_17
 0007:0002C568       aSDFailedToSe_7
 0007:0002C58D       aSDFailedToCa_8
 0007:0002C5DB       aSDFailedToCa_9
 0007:0002C62C       aSDFailedToP_18
 0007:0002C661       aSDFailedToP_19
 0007:0002C699       aSDFailedToSe_8
 0007:0002C6C7       aSDFailedToC_10
 0007:0002C71A       aSDUnableToGe_1
 0007:0002C74E       aSDUnableToGe_2
 0007:0002C789       aSDCallToBufa_0
 0007:0002C7BC       aSDFailedToPo_6
 0007:0002C810       aSDFailedToP_20
 0007:0002C84A       aSDAdditionalAs
 0007:0002C88B       aSDCouldNotSe_0
 0007:0002C8C3       aSDFailedToC_11
 0007:0002C910       aSDFailedToC_12
 0007:0002C960       aSDFailedToAl_7
 0007:0002C99C       aSDFailedToPo_7
 0007:0002C9EA       aSDFailedToP_21
 0007:0002CA1E       aSDFailedToP_22
 0007:0002CA55       aSDCouldNotSe_1
 0007:0002CA8C       aSDUnableToAl_7
 0007:0002CABF       aSDInvalidIesEi
 0007:0002CAFA       aPo_1
 0007:0002CAFF       aSDFailedToR_22
 0007:0002CB42       aFailedToCfgG_1
 0007:0002CB5B       aSDFailedToC_13
 0007:0002CBA7       aSDUnableToGe_3
 0007:0002CBDB       aSDUnableToGe_4
 0007:0002CC17       aSDUnableToGe_5
 0007:0002CC53       aSDUnableToGe_6
 0007:0002CC8F       aSDUnableToGe_7
 0007:0002CCCB       aSDUnableToGe_8
 0007:0002CD07       aSDUnableToGe_9
 0007:0002CD43       aSDUnableToGetF
 0007:0002CD7B       aSDFailedToAl_8
 0007:0002CDB6       aSDFailedToPo_8
 0007:0002CE03       aSDAdditionalPr
 0007:0002CE45       aSDNotAbleToIns
 0007:0002CE81       aSDCouldNotSe_2
 0007:0002CEA9       aSDFailedToC_14
 0007:0002CEF4       aSDFailedToAl_9
 0007:0002CF2E       aSDFailedToPo_9
 0007:0002CF7A       aSDFailedToP_23
 0007:0002CFAC       aSDCouldNotSe_3
 0007:0002CFD9       aSDAdadmitmaskU
 0007:0002CFFE       aSDAdadmitmaskD
 0007:0002D025       aSDForAcDAcmDAc
 0007:0002D04F       aSDWeNeedToDown
 0007:0002D075       aSDDowngradingA
 0007:0002D09B       aSDSendingWda_g
 0007:0002D0C7       aSDPostingWda_g
 0007:0002D105       aSDSendingWda_3
 0007:0002D131       aSDPostingWda_s
 0007:0002D16F       aSDUnableToPa_7
 0007:0002D1B0       aSDPostingWda_u
 0007:0002D1F7       aSDFailToAllo_2
 0007:0002D22E       aSDSendingWda_b
 0007:0002D257       aSDPostingWda_b
 0007:0002D298       aSDUnableToPa_8
 0007:0002D2DC       aSDPostingLinkS
 0007:0002D310       aSDUnableToPa_9
 0007:0002D354       aSDPostingWda_c
 0007:0002D393       aSDUnableToP_10
 0007:0002D3D2       aSDSendingWda_u
 0007:0002D3F7       aSDPostingWda_0
 0007:0002D434       aSDUnableToP_11
 0007:0002D477       aSDPostingWda_1
 0007:0002D4B8       aSDCallToPal_22
 0007:0002D4F6       aSDCallToPal_23
 0007:0002D535       aSDPalalloca_11
 0007:0002D570       aSDPalalloca_12
 0007:0002D5AC       aSDCallToPal_24
 0007:0002D5E9       aSDFailedToA_10
 0007:0002D60B       aSDPalalloca_13
 0007:0002D644       aSendsmedeltsin
 0007:0002D66E       aSDPalalloca_14
 0007:0002D69E       aSendsmedeltsrs
 0007:0002D6D2       aSDPalalloca_15
 0007:0002D702       aSendsmeaddtsin
 0007:0002D72E       aSDPalalloca_16
 0007:0002D75E       aSDPalalloca_17
 0007:0002D78D       aSDPalalloca_18
 0007:0002D7C5       aSDCallToPal_25
 0007:0002D805       aSDSessionDo_27
 0007:0002D839       aSDCouldNotGetN
 0007:0002D86A       aSDCallToPal_26
 0007:0002D8B2       aSDCallToPal_27
 0007:0002D90B       aSDStatuschgCod
 0007:0002D948       aSDLimsysproces
 0007:0002D96F       aSDCallToPal_28
 0007:0002D9B1       aSDCallToPal_29
 0007:0002D9F3       aSDCallToPal_30
 0007:0002DA35       aSDCallToPal_31
 0007:0002DA79       aSDCallToPal_32
 0007:0002DABD       aSDCallToPal_33
 0007:0002DB02       aSDCouldNotR_63
 0007:0002DB31       aSDCouldNotR_64
 0007:0002DB5D       aSDCallToPal_34
 0007:0002DB9C       aSDCouldNotGetS
 0007:0002DBCE       aSDReceivedSmeM
 0007:0002DC07       aSDSme_get_wpsp
 0007:0002DC3A       aSDSme_update_a
 0007:0002DC69       aSDNullPtrRecei
 0007:0002DC86       aSDSme_tkip_cnt
 0007:0002DCAF       aSDSme_get_asso
 0007:0002DCDE       aSDNullPtrRec_0
 0007:0002DCF9       aSDLenTooShortD
 0007:0002DD13       aSDInvalidRsnIe
 0007:0002DD45       aSDInvalidAddie
 0007:0002DD7B       aSDInvalidAdd_0
 0007:0002DDB2       aSDPowerCapsMin
 0007:0002DDE6       aSDMdie02x02x_1
 0007:0002DE03       aSDGetBssDescri
 0007:0002DE27       aSDInvalidSsidL
 0007:0002DE4C       aSDSsidLengthIs
 0007:0002DEA4       aSDInvalidRsn_0
 0007:0002DEDB       aSDInvalidNumra
 0007:0002DF0D       aSDExtraBytesLe
 0007:0002DF44       aSDInvalidLen_1
 0007:0002DF75       aSDNoKeysPresen
 0007:0002DFB2       aSDKeysPresentI
 0007:0002DFEC       aSDInvalidEdtyp
 0007:0002E01D       aSDUnableToRe_1
 0007:0002E046       aSDInvalidKeyle
 0007:0002E089       aSDUnableToRe_2
 0007:0002E0BA       aSDRsnWpaWapiEi
 0007:0002E0E6       aSDRsnIeLenDNot
 0007:0002E109       aSDWpaIeLenDNot
 0007:0002E142       aSDWapiIeLenDNo
 0007:0002E166       aSDMaxChannelTi
 0007:0002E193       aSDReceivedSm_5
 0007:0002E1C5       aSDInvalidAddIe
 0007:0002E204       aSDReceivedSm_6
 0007:0002E247       aSDReceivedSm_7
 0007:0002E28B       aSDReceivedSm_8
 0007:0002E2BF       aSDInvalidBssty
 0007:0002E2F5       aSDInvalidSsi_0
 0007:0002E32C       aSDInvalidOpera
 0007:0002E369       aSDRsnWpaEidDNo
 0007:0002E390       aSDFirstByteDIn
 0007:0002E3C4       aSDWpaIeIsPrese
 0007:0002E3F2       aSDOnlyRsnIeIsP
 0007:0002E412       aSDOnlyWpaIeIsP
 0007:0002E432       aSDInvalidStaD
 0007:0002E44A       aSDPostingToL_0
 0007:0002E474       aSDPostingMessa
 0007:0002E4A9       aSDCouldNotAc_5
 0007:0002E4D4       aSDCouldNotAc_6
 0007:0002E4FF       aSDCouldNotAc_7
 0007:0002E536       aSDFailToDeacti
 0007:0002E562       aSDSessionBeaco
 0007:0002E587       aSDFailToGetW_1
 0007:0002E5BA       aSDFailToChange
 0007:0002E5E1       aSDCouldNotAc_8
 0007:0002E60D       aSDUnableToDe_2
 0007:0002E63A       aSDUnableToDe_3
 0007:0002E66A       aSDGplimmlmscan
 0007:0002E68C       aSDUnableToCh_0
 0007:0002E6B8       aSDUnableToDe_4
 0007:0002E6E8       aSDUnableToCh_1
 0007:0002E714       aSDUnableToDe_5
 0007:0002E745       aSDCouldNotR_65
 0007:0002E77A       aSDUnableToCh_2
 0007:0002E7A7       aSDUnableToDe_6
 0007:0002E7D8       aSDCouldNotR_66
 0007:0002E80D       aSDUnableToCh_3
 0007:0002E83A       aSDUnableToDe_7
 0007:0002E872       aSDCouldNotR_67
 0007:0002E8A8       aSDUnableToCh_4
 0007:0002E8D6       aSDUnableToDe_8
 0007:0002E90A       aSDCouldNotR_68
 0007:0002E942       aSDUnableToCh_5
 0007:0002E978       aSDUnableToDe_9
 0007:0002E9A6       aSDCouldNotR_69
 0007:0002E9D8       aSDCouldNotR_70
 0007:0002EA0C       aSDUnableToCh_6
 0007:0002EA36       aSDUnableToD_10
 0007:0002EA66       aSDCouldNotR_71
 0007:0002EAA4       aSDUnableToCh_7
 0007:0002EAD0       aSDUnableToD_11
 0007:0002EB03       aSDCouldNotR_72
 0007:0002EB37       aSDUnableToCh_8
 0007:0002EB66       aSDUnableToD_12
 0007:0002EB9E       aSDCouldNotR_73
 0007:0002EBD7       aSDUnableToCh_9
 0007:0002EC0B       aSDTx_timer_d_0
 0007:0002EC30       aSDTx_timer_cha
 0007:0002EC51       aSDUnableToDeAc
 0007:0002ECA6       aSDUnableToC_10
 0007:0002ECFC       aSDUnableToD_13
 0007:0002ED56       aSDUnableToC_11
 0007:0002EDAC       aSDUnableToD_14
 0007:0002EDE9       aSDUnableToD_15
 0007:0002EE1B       aSDUnableToC_12
 0007:0002EE3B       aSDUnableToD_16
 0007:0002EE68       aSDCouldNotR_74
 0007:0002EE96       aSDUnableToC_13
 0007:0002EEBF       aSDInvalidPreAu
 0007:0002EEEA       aSDUnableToD_17
 0007:0002EF1C       aSDCouldNotR_75
 0007:0002EF54       aSDUnableToC_14
 0007:0002EF7D       aSDCouldNotR_76
 0007:0002EFB1       aMinChannelTime
 0007:0002EFC5       aSDCouldNotCrea
 0007:0002EFF1       aSDCouldNotR_77
 0007:0002F025       aMaxChannelTime
 0007:0002F039       aSDCouldNotCr_0
 0007:0002F065       aChannelSwitchT
 0007:0002F07A       aSDFailedToCrea
 0007:0002F0A9       aQuietTimer
 0007:0002F0B5       aSDFailedToCr_0
 0007:0002F0E1       aQuietBssTimer
 0007:0002F0F1       aJoinFailureTim
 0007:0002F106       aSDCouldNotCr_1
 0007:0002F133       aAssocFailureTi
 0007:0002F149       aSDCouldNotCr_2
 0007:0002F17D       aReassocFailure
 0007:0002F195       aSDCouldNotCr_3
 0007:0002F1CB       aSDFailToGetW_2
 0007:0002F1FB       aAddtsRspTimeou
 0007:0002F20D       aSDCouldNotCr_4
 0007:0002F23C       aAuthFailureTim
 0007:0002F251       aSDCouldNotCr_5
 0007:0002F27E       aHeartbeatTimeo
 0007:0002F290       aSDCallToCreate
 0007:0002F2BF       aProbeAfterHear
 0007:0002F2DD       aSDUnableToCrea
 0007:0002F309       aBackgroundScan
 0007:0002F321       aSDCallToCrea_0
 0007:0002F356       aDisassocThrott
 0007:0002F370       aSDCreateDisass
 0007:0002F3A3       aKeepalive_time
 0007:0002F3B5       aSDCannotCrea_0
 0007:0002F3DD       aSDCouldNotR_78
 0007:0002F40B       aCnf_miss_timeo
 0007:0002F41C       aSDCannotCrea_1
 0007:0002F443       aSDCouldNotR_79
 0007:0002F471       aSDPalalloca_19
 0007:0002F494       aSDCouldNotR_80
 0007:0002F4CA       aOlbcUpdateCach
 0007:0002F4E4       aSDCannotCrea_2
 0007:0002F513       aFtPreauthRspTi
 0007:0002F52B       aInvalidBssType
 0007:0002F53C       aPo_2
 0007:0002F541       aInvalidIesEidD
 0007:0002F574       aSDNewPmacLim_g
 0007:0002F5B0       aSDNewPmacLim_0
 0007:0002F5ED       aSDNumberOfChan
 0007:0002F618       aSDProtectionFr
 0007:0002F641       aSDProtection_0
 0007:0002F669       aSD11bProtect_0
 0007:0002F68F       aSD11gProtectio
 0007:0002F6B5       aSDTitanHtCapab
 0007:0002F6ED       aSDXXXXXX
 0007:0002F708       aSDInvalidIes_0
 0007:0002F743       aSDLimDoesNotHa
 0007:0002F77B       aSDPalalloca_20
 0007:0002F79D       aSDSessionDo_28
 0007:0002F7D1       aSDProbe_hb_fai
 0007:0002F809       aSDProbereponse
 0007:0002F84C       aSDUnexpectedWt
 0007:0002F87B       aSDCouldNotR_81
 0007:0002F8AB       aSDCouldNotR_82
 0007:0002F8F2       aSDPalalloca_21
 0007:0002F916       aSDPalzeromemor
 0007:0002F943       aSDInvalidCaseN
 0007:0002F966       aSD__limfilltxc
 0007:0002F99C       aSDPostingMes_0
 0007:0002F9C3       aSDCouldNotR_83
 0007:0002F9FC       aSDCouldNotRest
 0007:0002FA38       aSDCouldNotR_84
 0007:0002FA6E       aSDPostingFinis
 0007:0002FAA3       aSDNotInScanSta
 0007:0002FADA       aSDReceivedABea
 0007:0002FB0F       aSDTx_timer_d_1
 0007:0002FB34       aSDLimCouldNotR
 0007:0002FB87       aSDQuietBssResu
 0007:0002FBAF       aSDBackgroundSc
 0007:0002FBE2       aSDTx_timer_d_2
 0007:0002FC06       aSDUnableToActi
 0007:0002FC4E       aSDStaShutOffWi
 0007:0002FC96       aSDPalalloca_22
 0007:0002FCCC       aSDSendingWda_4
 0007:0002FCF2       aSDPostingWda_2
 0007:0002FD31       aSDPalalloca_23
 0007:0002FD66       aSDSendingSir_4
 0007:0002FD8B       aSDPostingWda_3
 0007:0002FDC5       aSDSendingWda_5
 0007:0002FDE6       aSDPostingWda_a
 0007:0002FE20       aSDWdapostctr_2
 0007:0002FE41       aSDCouldNotR_85
 0007:0002FE70       aSDUnableToG_10
 0007:0002FE99       aSDInvalidScanC
 0007:0002FEC6       aSDReceivedU_43
 0007:0002FF12       aSDBufferIsPo_6
 0007:0002FF36       aDelayed
 0007:0002FF3E       aImmediate
 0007:0002FF48       aSDRequestingAn
 0007:0002FF95       aSDCouldNotR_86
 0007:0002FFC7       aWlanSessionDoe
 0007:00030006       aSDSessionDo_29
 0007:00030036       aSDDeleteTsRequ
 0007:00030061       aCannotFindStat
 0007:0003008C       aInvalidStaOrSt
 0007:000300B1       aSDDelts_reqIgn
 0007:000300DD       aSDDeltsWithU_1
 0007:00030127       aSDSessionDo_30
 0007:00030157       aSDTspecEntryWi
 0007:00030188       aSDCouldNotFind
 0007:000301C4       aSDLimvalidated
 0007:000301E8       aSDInvalidMes_0
 0007:00030212       aSDLimpostmsgap
 0007:0003023E       aSDUnableToG_11
 0007:00030275       aSDChannelInfor
 0007:000302C1       aSDPrimaryChann
 0007:0003030F       aSDUnableToRe_3
 0007:00030347       aSDTheNextScanC
 0007:000303F3       aSDUnableToRe_4
 0007:0003047C       aSDUnableToAc_0
 0007:000304D8       aSDAttemptingTo
 0007:0003050C       aSDQuietBssStaS
 0007:0003053F       aSDDisableCbSec
 0007:0003055D       aSDCfgsetintW_0
 0007:0003059B       aSDSwitchCbSeco
 0007:000305BF       aSDSwitchCbSe_0
 0007:000305E6       aSDSwitchOldChn
 0007:00030613       aSDCouldNotR_87
 0007:00030662       aSDFailedToA_11
 0007:0003069B       aSDCallToPal_35
 0007:000306DA       aSDCountstadelI
 0007:0003071D       aSDCouldNotR_88
 0007:00030749       aSDCouldNotSt_4
 0007:00030771       aSDPrimaryChlDS
 0007:000307AC       aChannelSwitchC
 0007:000307EC       aSDDeviceIsNotI
 0007:0003082A       aSDChannel_swit
 0007:00030850       aSDChannel_sw_0
 0007:00030878       aSDChannel_sw_1
 0007:000308A6       aSDIncorrectSta
 0007:000308C0       aSDUnableToG_12
 0007:000308E7       aSDNoSpaceInSho
 0007:0003092A       aSDCouldNotU_13
 0007:0003095B       aSDCannotEnab_0
 0007:00030980       aSDNoSpaceInS_0
 0007:000309BF       aSD11b
 0007:000309CD       aSD11g
 0007:000309DB       aSDHt20
 0007:000309EA       aSDNongf
 0007:000309FA       aSDLsigtxopsupp
 0007:00030A16       aSDNoSpaceInP_0
 0007:00030A38       aSDTx_timer_a_0
 0007:00030A5A       aSDDeferredMess
 0007:00030A8B       aSDDDeferredMes
 0007:00030AD9       aSDCannotDeferr
 0007:00030B17       aEsir_infrastru
 0007:00030B30       aEsir_ibss_mode
 0007:00030B3F       aEsir_btamp_sta
 0007:00030B53       aEsir_btamp_ap_
 0007:00030B66       aEsir_auto_mode
 0007:00030B75       aOff
 0007:00030B79       aOn
 0007:00030B7C       aProberesponseM
 0007:00030B9D       aLinkmonitorMod
 0007:00030BBB       aDisabled
 0007:00030BC4       aBgndScanIsNowS
 0007:00030BD9       aSAttemptedToTr
 0007:00030C2F       aScanDisabled
 0007:00030C3E       aScanEnabled
 0007:00030C4C       aQuietieEnabled
 0007:00030C5D       aQuietieDisable
 0007:00030C6F       aMeasurementEna
 0007:00030C84       aMeasurementDis
 0007:00030C9A       aFalse
 0007:00030CA0       aTrue
 0007:00030CA5       a11hEnabledS
 0007:00030CB7       aNo
 0007:00030CBA       aYes_0
 0007:00030CBE       aIsSystemInLear
 0007:00030CDC       aQuietEnabledS
 0007:00030CF0       aQuietStateD
 0007:00030D02       aQuietCountD
 0007:00030D14       aQuietDurationI
 0007:00030D32       aQuietDuratio_0
 0007:00030D4D       aChannelSwitchS
 0007:00030D68       aNormal
 0007:00030D6F       aSilent
 0007:00030D76       aChannelSwitchM
 0007:00030D90       aChannelSwitchP
 0007:00030DB5       aChannelSwitc_0
 0007:00030DDD       aChannelSwitc_1
 0007:00030DFF       aChannelSwitc_2
 0007:00030E29       aRadarInterrupt
 0007:00030E4A       aRadarDetectedI
 0007:00030E7C       aRadarDetectedC
 0007:00030E98       aD_2
 0007:00030E9E       aDphTableDump
 0007:00030EAE       aAidStaidBssidE
 0007:00030EE2       aDDDDDDDDXXXXXX
 0007:00030F21       aEdcaParameterS
 0007:00030F40       aBroadcastParam
 0007:00030F56       aAcAciAcmAifsnC
 0007:00030F7F       aDDDDDDD
 0007:00030F95       aLocalParameter
 0007:00030FA8       aTspecEntryNo_D
 0007:00030FDD       aEntryDIsValid
 0007:00030FF0       aSta0x0x0x0x0x0
 0007:00031020       aTypeDLengthDAc
 0007:00031074       aPsbDAggDTraffi
 0007:000310BA       aSvcintMinDMaxD
 0007:000310F7       aMaxburstszDDel
 0007:00031142       aEntryDIsUnused
 0007:00031156       aLimTspecTableD
 0007:00031173       aNumIdxAidAckpo
 0007:000311AD       aDDDDDDDDDDD
 0007:000311CF       aSessionDoesN_0
 0007:00031209       aPreparingPreAu
 0007:00031229       aPreAuthDumpPal
 0007:00031255       aLimDebugInform
 0007:0003127B       aSLengthD
 0007:0003128C       aSLength02x
 0007:0003129F       aSAuthReq02x02x
 0007:000312BC       aSSession02x02x
 0007:000312D8       aSSession02x0_0
 0007:000312F7       aLimpostmsgapiE
 0007:00031321       aLogdumpFinishs
 0007:00031336       aFailure
 0007:0003133E       aSuccess
 0007:00031346       aPostedSir_lim_
 0007:00031376       aSendsmejoinreq
 0007:000313A3       aSDSessionEnt_0
 0007:000313DE       aSendsmestopbss
 0007:0003141A       aSendsmestopb_0
 0007:0003144A       aSendsmestopb_1
 0007:00031484       aInvalidSession
 0007:000314A3       aSessionDoesN_1
 0007:000314D2       aCouldNotFindSt
 0007:000314FC       aSendsmedisasso
 0007:0003152D       aSendsmedisas_0
 0007:00031568       aSCouldNotFindE
 0007:000315A1       aListOfActiveBa
 0007:000315E0       aTidRxbaTxbaRxb
 0007:00031621       aDumpPeSession
 0007:0003165E       aPeSessionD
 0007:00031677       aAvailableD
 0007:00031687       aPesessionidDSm
 0007:000316BF       aBssid02x02x02x
 0007:000316E7       aSelfmacaddr02x
 0007:00031715       aBssidxD
 0007:00031722       aValidD
 0007:0003172E       aLimmlmstateDS
 0007:00031744       aLimprevmlmstat
 0007:0003175E       aLimsmestateDS
 0007:00031774       aLimprevsmestat
 0007:0003178F       aUnknown_5
 0007:00031797       aLimsystemroleD
 0007:000317B0       aBsstypeDS
 0007:000317C3       aOpermodeD
 0007:000317D2       aDot11modeD
 0007:000317E2       aHtcapabalityD
 0007:000317F5       aLimrfbandD
 0007:00031805       aLimibssactiveD
 0007:00031819       aLimcurrentauth
 0007:00031832       aLimcurrentbssc
 0007:0003184A       aLimcurrentbssq
 0007:00031865       aLimcurrentbssp
 0007:00031880       aLimsentcapscha
 0007:0003189B       aLimaidD
 0007:000318A8       aReassocbssid02
 0007:000318D7       aLimreassocchan
 0007:000318F1       aLimreassocbssc
 0007:00031909       aLimreassocbssq
 0007:00031924       aLimreassocbssp
 0007:0003193F       aLimreassoctita
 0007:00031989       aSendsmestartbs
 0007:000319C7       aInvalidArgum_0
 0007:000319DB       aSendsmestart_0
 0007:00031A0C       aBtsta
 0007:00031A12       aBtap
 0007:00031A17       aIbss
 0007:00031A1C       aSendsmestart_1
 0007:00031A58       aLogdumpSetScan
 0007:00031A7E       aToSetProtectio
 0007:00031A99       aArg1OperationT
 0007:00031AED       aErrorUnableToA
 0007:00031B10       aSDBufferIsPo_7
 0007:00031B34       aSInvalidValueI
 0007:00031B65       aSInvalidValu_0
 0007:00031B8B       aSConfigSetForA
 0007:00031BBC       aSDeclineValueD
 0007:00031C0C       aLimHeartBeatSt
 0007:00031C31       aNo_OfHeartbeat
 0007:00031C62       aNo_OfProbeFail
 0007:00031C93       aNo_OfHeartbe_0
 0007:00031CC3       aCfgHeartbeatTh
 0007:00031CE1       aBeaconsRcvdInH
 0007:00031D0E       a2d8d
 0007:00031D29       a2d8d_0
 0007:00031D44       aResetHeartbeat
 0007:00031D61       aErrorDot11Mode
 0007:00031D9B       aCfgsetintFaile
 0007:00031DCE       aSVerifyingTheA
 0007:00031DEB       aInvalidArgum_1
 0007:00031E1D       aPmbmsgIsNull
 0007:00031E2D       aUpdatingTheSmp
 0007:00031E57       aUpdatingTheS_0
 0007:00031E7E       aTheDot11ModeIs
 0007:00031E9A       aReceivedDisass
 0007:00031ED2       aRecipient
 0007:00031EDC       aInitiator
 0007:00031EE6       aSAttemptedToSe
 0007:00031F5C       aSAttemptedTo_0
 0007:00031FAF       aSendsmescanreq
 0007:00031FE4       aSendsmescanr_0
 0007:00032011       aIvan
 0007:00032016       aSendsmescanr_1
 0007:00032049       aInvalidSessi_0
 0007:0003205F       aUnableToRetr_5
 0007:00032078       aCallingLimsend
 0007:0003209D       aPe300499
 0007:000320AA       aLimDumpStateSS
 0007:000320C8       aPe_limDumpTspe
 0007:000320E1       aPe_limDumpSpec
 0007:00032109       aPe_limDumpEdca
 0007:00032122       aPe_limDumpDphT
 0007:00032141       aPe_limDumpLink
 0007:00032161       aPe_limDumpSetT
 0007:000321AB       aPeLimDumpCsrSe
 0007:000321CD       aPeLimDumpAll11
 0007:000321EF       aPeLimDumpToEna
 0007:00032218       aPeLimDumpToE_0
 0007:0003223D       aPeLimDisableEn
 0007:00032264       aPe_limSendSmeS
 0007:00032282       aPeLimSetLogLev
 0007:000322B5       aPe_limEnableDi
 0007:000322D7       aPe_limTraceDum
 0007:000322F5       aPe_limSendFini
 0007:00032315       aPe_limForcePro
 0007:0003233B       aPe_schTriggerT
 0007:00032360       aPe_limSetAcmFl
 0007:0003237C       aPe_limSendAnAd
 0007:000323BE       aPe_limSendADel
 0007:00032424       aPe_limTriggerA
 0007:0003244F       aPe_limListActi
 0007:0003247D       aPe_limSetBackg
 0007:000324B4       aPe_limSetLinkM
 0007:000324D5       aPe_limAddsta6t
 0007:000324FE       aPe_limDelstaAi
 0007:00032513       aPe_limSetProbe
 0007:00032532       aPe_limSetProte
 0007:00032557       aPeLimSetTheDot
 0007:00032572       aPeEnableOrDisa
 0007:00032592       aPeLimSendSmPow
 0007:000325BA       aPeLimChangeCbM
 0007:000325D2       aPeLimAbortScan
 0007:000325E6       aPeLimStartStop
 0007:00032602       aPeLimPeStatist
 0007:00032624       aPeLimSetMacLog
 0007:0003265B       aPeLimSetScanIn
 0007:00032691       aPe_limSendSm_0
 0007:000326B4       aPe_limDumpPese
 0007:000326D1       aPe_limSendDisa
 0007:000326EE       aPe_limSendSm_1
 0007:0003271D       aPe_limSendSmeJ
 0007:0003273B       aPe_limTriggerP
 0007:00032762       aElim_unknown_r
 0007:00032774       aElim_ap_role
 0007:00032781       aElim_sta_in_ib
 0007:00032797       aElim_sta_role
 0007:000327A5       aElim_bt_amp_st
 0007:000327BA       aElim_bt_amp_ap
 0007:000327CE       aSDTryingToFind
 0007:00032803       aSDPtsinfoTraff
 0007:00032848       aSDTspecEntryD
 0007:00032862       aSDDeleteTspec0
 0007:0003287D       aSDDeletingTspe
 0007:000328A7       aSDAssocidDDone
 0007:000328C0       aSDTspecEntryDF
 0007:000328DE       aSDReceivedWda_
 0007:00032909       aSDSessionDo_31
 0007:00032943       aSDPalalloca_24
 0007:00032967       aSDCallingWdapo
 0007:00032989       aSDWdapostctr_3
 0007:000329AA       aSDInvalidAss_0
 0007:000329C8       aSDUpdatingTspe
 0007:000329F0       aSDFoundFreeSlo
 0007:00032A33       aSDAddedEntryFo
 0007:00032A5E       aSDAddedEntry_0
 0007:00032A89       aSDUnableToG_13
 0007:00032AB1       aSDUnableToG_14
 0007:00032ADB       aSDTspecDAssoci
 0007:00032B0D       aSDTotalBwDUsed
 0007:00032B4A       aSDRejectedByBw
 0007:00032B6F       aSDAdmitPolicyD
 0007:00032BA7       aSDTsidDDirectn
 0007:00032BED       aSDDuplicateTsp
 0007:00032C12       aSDInvalidEdcaT
 0007:00032C68       aSDReturnStatus
 0007:00032C82       aSDEdcaTspecInv
 0007:00032C9E       aSDAccesstypeDN
 0007:00032CC3       aSDMsdusizeNotS
 0007:00032CE3       aSDDatarateNotS
 0007:00032D03       aSDTspecRejecte
 0007:00032D33       aSDInvalidStati
 0007:00032D5B       aSDInvalidAcces
 0007:00032D7C       aSDFailedAccpol
 0007:00032DBA       aSDAccesspolicy
 0007:00032DF0       aSDNoSpaceInTsp
 0007:00032E10       aSDTspecValidat
 0007:00032E31       aSDSvcintCalcul
 0007:00032E52       aSDInvalidSes_0
 0007:00032E73       aSDSessionDNotA
 0007:00032E94       aSDTryingToDele
 0007:00032EBD       aSDSessionLooku
 0007:00032EE8       aSDMemoryAll_11
 0007:00032F09       aSDSessionCan_0
 0007:00032F50       aSDPalalloca_25
 0007:00032F84       aSDNullPaggrqos
 0007:00032FA0       aSDPalalloca_26
 0007:00032FC4       aSDWdapostctr_4
 0007:00032FE5       aSDUnableToRe_5
 0007:00033013       aSDCallToPal_36
 0007:0003304F       aSDCouldNotR_89
 0007:00033087       aSDCouldNotR_90
 0007:000330B6       aSDCouldnTGet_3
 0007:000330E7       aSDCouldNotR_91
 0007:00033112       aSDSendingSir_5
 0007:00033139       aSDPostingAdd_1
 0007:0003316F       aSFreeingPftpre
 0007:0003318E       aSSettingPsaved
 0007:000331BA       aSDeletingSessi
 0007:000331D6       aSFreeingAddbss
 0007:000331F3       aSFreeingAddsta
 0007:00033210       aSDStaContext_4
 0007:00033267       aSDBaRicIeCreat
 0007:000332A3       aSDNumberOfBaRi
 0007:000332E1       aFailedToAllo_1
 0007:000332FC       a4WlanVosAss_33
 0007:0003331F       aHomeAaProje_33
 0007:000333AE       aSAuthRspP
 0007:000333C1       aSDFillRicBaInf
 0007:000333F0       aPostedAuthRspT
 0007:00033408       aPostedAuthRs_0
 0007:00033432       aSReturning
 0007:00033442       aSDSessionCan_1
 0007:0003347A       aSDInvalidBssTy
 0007:00033494       aSRegulatoryMax
 0007:000334D6       aSCreatedSessio
 0007:000334FC       aSDUnableToP_12
 0007:00033538       aSDSir_hal_add_
 0007:00033569       aSDSavingSir_ha
 0007:0003359F       aPreAuthOnSameC
 0007:000335D4       aSDSessionDo_32
 0007:00033608       aSFtiesForAuthR
 0007:00033630       aSChangeChannel
 0007:00033663       aEnteredWaitAut
 0007:00033684       aSFtAuthRspTime
 0007:000336A8       aSFtAuthRspTi_0
 0007:000336C7       aSPeAuthFt_ies_
 0007:000336EF       aSUnableToFindS
 0007:00033723       aSPerformingPre
 0007:0003374C       aSDUnableToAl_8
 0007:00033781       aSDHalpostmsgap
 0007:0003379F       aSDNullPointerO
 0007:000337CD       aSDPie0xXDot11h
 0007:00033801       aSDSendingPfcTy
 0007:0003382E       aPo_3
 0007:00033833       aSDNoalenDOrigl
 0007:00033878       aSDFailedToA_12
 0007:000338B2       aSDCouldNotSe_4
 0007:000338D8       aSDPalalloca_27
 0007:00033912       aSNoPointerForR
 0007:0003393C       aUnableToChange
 0007:00033958       aRemainOnChanne
 0007:00033972       aNoRemainOnChan
 0007:0003398F       aSDSessionDo_33
 0007:000339C3       aSChangeChann_0
 0007:000339E6       aStartListenDur
 0007:00033A01       aSDUnableToC_15
 0007:00033A37       aSRemainOnChann
 0007:00033A61       aSDGplimremaino
 0007:00033A87       aSDSuspendLinkF
 0007:00033AA6       aSDSessionCan_2
 0007:00033ACB       aSDFailedToR_23
 0007:00033B12       aSDFailedToR_24
 0007:00033B63       aSDUnableToAc_1
 0007:00033B97       aSDReceivedWd_0
 0007:00033BE4       aSDRcvSuccessfu
 0007:00033C3A       aSDHalFailedToG
 0007:00033C89       aSDRcvdSuccessf
 0007:00033CBF       aSDRcvdFailureR
 0007:00033CF2       aSDRecvdWda_wow
 0007:00033D22       aSDRcvSuccess_0
 0007:00033D5D       aSDHalEnterWowl
 0007:00033D8D       aSDReceivedHal_
 0007:00033DC7       aSDReceivedSi_1
 0007:00033E0A       aSDReceivedSi_2
 0007:00033E47       aSDPmmuapsdRece
 0007:00033E85       aSDPmmuapsdRe_0
 0007:00033ED6       aSDPmmuapsdRe_1
 0007:00033F24       aSDPmmuapsdSir_
 0007:00033F65       aSDPmmimpsRecei
 0007:00033FA7       aSDPmmimpsRec_0
 0007:00033FF6       aSDPmmimpsRec_1
 0007:00034040       aSDPmmimpsRec_2
 0007:0003407F       aSDPmmimpsRec_3
 0007:000340C1       aSDPmmimpssleep
 0007:00034107       aSDPostingMes_1
 0007:0003413C       aSDSendingWda_e
 0007:00034167       aSDSendingWda_6
 0007:00034191       aSDWda_enterExi
 0007:000341CB       aSDPmmimpsWakeu
 0007:0003420B       aSDPmmimpsWak_0
 0007:00034246       aSDPmmimpsChang
 0007:0003429A       aSDSendingWda_w
 0007:000342BC       aSDPostingWda_w
 0007:000342F1       aSDExitWowlanRe
 0007:00034330       aSDFailToSendWd
 0007:00034368       aSDPostingWda_4
 0007:0003439D       aSDBeaconCountI
 0007:000343F5       aPmmNotAbleToAl
 0007:00034426       aSDPmmbmpsSendi
 0007:00034452       aSDPostingWda_e
 0007:0003448F       aSDPmmuapsdPala
 0007:000344BD       aSDUapsdMaskSta
 0007:00034511       aSDPmmuapsdSend
 0007:00034547       aSDPmmuapsdSe_0
 0007:0003457C       aSDPmmuapsdWda_
 0007:000345C1       aSDPmmuapsdSe_1
 0007:000345F6       aSDPmmuapsdRcvE
 0007:00034636       aSDPmmuapsdWaki
 0007:00034688       aSDPalalloca_28
 0007:000346AC       aSDSendingWda_7
 0007:000346E2       aSDFailToAllo_3
 0007:00034724       aSDDeleteBroadc
 0007:00034757       aSDSendingWda_8
 0007:0003477F       aSDPostingWda_5
 0007:000347B9       aSDFailToAllo_4
 0007:000347F8       aSDAddBroadcast
 0007:00034828       aSDSendingWda_9
 0007:00034857       aSDPostingWda_6
 0007:00034891       aSDPmmcfgPowerS
 0007:000348D7       aSDPmmcfgCfgget
 0007:00034909       aSDPmmcfgCfgg_0
 0007:0003493D       aSDPmmcfgCfgg_1
 0007:00034971       aSDPmmcfgCfgg_2
 0007:0003499C       aSDPmmcfgCfgg_3
 0007:000349D1       aSDPmmcfgCfgg_4
 0007:00034A07       aSDPmmcfgCfgg_5
 0007:00034A3C       aSDPmmcfgCfgg_6
 0007:00034A69       aSDPostingWda_p
 0007:00034AA3       aSDRcvdPmc_ente
 0007:00034AE1       aSDFailToAllo_5
 0007:00034B1A       aSDCfggetFailed
 0007:00034B5F       aSDCfggetFail_0
 0007:00034B9E       aSDCfggetFail_1
 0007:00034BD7       aSDCfggetFail_2
 0007:00034C14       aSDCfggetFail_3
 0007:00034C50       aSDSendEnter_wo
 0007:00034C8B       aSDPmmuapsdPmmS
 0007:00034CEF       aSDPmmuapsdHal_
 0007:00034D2F       aSDPmmbmpsRcvdE
 0007:00034D5F       aSDPmmbmpsDevic
 0007:00034DB1       aSDPmmbmpsSen_0
 0007:00034DE9       aSDPmmbmpsRcv_0
 0007:00034E1E       aSDPmmbmpsEwni_
 0007:00034E65       aSDPmmimpsPmmSt
 0007:00034EC8       aSDPmmimpsImpsS
 0007:00034F0A       aSDVos_mq_post_
 0007:00034F42       aSDSessionDo_34
 0007:00034F7C       aSDPmmbmpsRecei
 0007:00034FCF       aSDPmmbmpsHeart
 0007:00035014       aSDSessionDo_35
 0007:00035048       aSDTheDeviceWok
 0007:0003507A       aSDHeartbeatTim
 0007:000350B6       aSDReceivedSi_3
 0007:000350E8       aSDReceivedSi_4
 0007:0003512D       aSDReceivedSi_5
 0007:00035168       a6WlanRcvdSir_h
 0007:000351A1       aSDRcvdSir_hal_
 0007:000351D8       a6WlanRcvdSir_0
 0007:00035234       aSDPmmbmpsBmpsR
 0007:0003529F       aSDPmmbmpsInitP
 0007:000352E6       aSDPmmbmpsRec_0
 0007:0003532F       aSDPmmbmpsRec_1
 0007:00035381       aSDPmmbmpsBmps_
 0007:000353C0       aPmmNotAbleTo_0
 0007:000353F1       aSDFailToSendBe
 0007:0003541B       aPmmFailedToAll
 0007:0003544F       aSDPmmUnknownMe
 0007:00035499       aSDFailedToC_15
 0007:000354E5       aSDUnableToG_15
 0007:0003551E       aSDUnableToG_16
 0007:0003555D       aSDFailedToP_24
 0007:000355AA       aSDFailedToP_25
 0007:000355DD       aSDLimsendprobe
 0007:00035639       aSDLimsendpro_0
 0007:0003567A       aSDLimsendpro_1
 0007:000356D8       aSDIndicatingHa
 0007:00035721       aSDPostingSend_
 0007:0003575B       aSDSuccessfully
 0007:00035793       aSDFailedToSe_9
 0007:000357D3       aSDPostingStart
 0007:0003580C       aSDSchsendbeaco
 0007:00035845       aSDSessionLoo_0
 0007:00035863       aSDPrebeaconind
 0007:00035897       aSDCanNotSendBe
 0007:000358CB       aSDErrorPeHasRe
 0007:00035918       aSDUnableToG_17
 0007:00035950       aSDUnableToG_18
 0007:0003598F       aPo_4
 0007:00035994       aSDNotAbleToI_0
 0007:000359D0       aSDFailedToP_26
 0007:00035A06       aSDInitializedB
 0007:00035A33       aFailedToCfgG_2
 0007:00035A4C       aSDFailedToP_27
 0007:00035A82       aSDInitialize_0
 0007:00035AAD       aSDBeaconParsin
 0007:00035ACC       aSDChannelCha_0
 0007:00035B07       aSDSelfEntryM_3
 0007:00035B31       aSDBeaconForSes
 0007:00035B5F       aSDSendingBeaco
 0007:00035B92       aSDInvalidBeaco
 0007:00035BC9       aSDCfggetFail_4
 0007:00035BE7       aSDCfggetForDLe
 0007:00035C1A       aSDGetwmmlocalp
 0007:00035C3E       aSDFailedToCfgG
 0007:00035C6C       aSDInvalidEdca_
 0007:00035C9F       aWmm
 0007:00035CA3       aHiperf
 0007:00035CAA       aTitan
 0007:00035CB0       aSDEdcaprofileU
 0007:00035CD4       aSDSchgetparams
 0007:00035CF8       aSDQosupdatebro
 0007:00035D1C       aUnableToSetBea
 0007:00035D3A       aSDChannelSwitc
 0007:00035D66       aSDFailedToCf_0
 0007:00035D87       aSDCfgParamDInd
 0007:00035DB4       aSDUnknownMes_0
 0007:00035DE0       aSConcurrency_m
 0007:00035E1E       aSContextPStatu
 0007:00035E3C       aSBadParamConte
 0007:00035E58       aSInvalidContex
 0007:00035E7A       aHddBmpsRequest
 0007:00035EA2       aHddFullPowerCa
 0007:00035EC6       aWlan
 0007:00035ECB       aSHddAdaptorNul
 0007:00035EE8       a4WlanVosAss_34
 0007:00035F0B       aHomeAaProje_34
 0007:00035F8D       aSNewNetDeviceS
 0007:00035FAC       aSTimeoutOccure
 0007:00035FDC       aSScanIsNotPend
 0007:00035FFE       aErrorHddWaitFo
 0007:00036030       aSInvalidCont_0
 0007:00036044       aEnterS_0
 0007:0003604D       aHdd_softap_tki
 0007:00036084       aHdd_softap_sta
 0007:000360AA       aHdd_softap_s_0
 0007:000360CE       aExitS
 0007:000360D6       aSSme_hddreadyi
 0007:00036111       a6WlanSDSetLiDT
 0007:0003613F       aSKmallocFailed
 0007:00036151       aSSme_scanreq_0
 0007:0003617B       a6WlanRefuseToS
 0007:000361BE       aHomeAaProje_35
 0007:00036217       a6Netif_stop_qu
 0007:00036258       aSHddAdapterCon
 0007:00036278       aCouldNotPass_1
 0007:000362B1       aCouldNotPass_2
 0007:000362EA       aCouldNotPass_3
 0007:00036323       aSFailureWaitin
 0007:0003634B       aSFailureInWlan
 0007:0003636A       aSFailedToSetWn
 0007:0003639E       aCouldNotPass_4
 0007:000363D5       aWlanUnlockCpuH
 0007:000363FF       aWlanLockCpuHer
 0007:0003642A       aWlanUnlockCp_0
 0007:00036457       aInWlanStop
 0007:00036464       aWlanStopAll
 0007:00036473       aSFailedToStopV
 0007:0003648B       aSFailedToClo_7
 0007:000364AE       aCallingWlanVos
 0007:000364C9       aReturnedWlanVo
 0007:000364E5       aCallingWlanBal
 0007:00036500       aSHddderegister
 0007:0003651E       aInterrupt
 0007:00036528       aTimeout
 0007:00036530       aSSWhileRequest
 0007:00036553       aSRequestForFul
 0007:00036580       aSFailedToStopB
 0007:00036597       aInModuleExitCa
 0007:000365DF       aCouldNotCanc_1
 0007:0003663D       aSFailedToFreeP
 0007:0003665E       a6WlanSUnloadin
 0007:00036682       a3_1_0_24p27H_0
 0007:00036695       aSGlobalVosCo_2
 0007:000366B4       aSModuleExitCal
 0007:000366D8       aSResetInProgre
 0007:0003670F       a6WlanSDriverUn
 0007:0003672E       aSme_opensessio
 0007:00036766       aSessionIsNotOp
 0007:0003679C       aHdd_register_w
 0007:000367D6       aHdd_init_tx_rx
 0007:0003680D       aHdd_wmm_adapte
 0007:0003684A       aSFailedDev_all
 0007:00036863       aSFailedRegiste
 0007:0003687D       aSFailedRegis_0
 0007:00036898       aSqosOldPDevP
 0007:000368B3       aSIfaceSTypeD
 0007:000368CB       aSRequestForF_0
 0007:000368EE       aQcomWifiPerf
 0007:000368FD       aSCfgDownloadFa
 0007:00036915       aSCallerSetsInv
 0007:0003693B       aSCfgSizeD
 0007:0003694D       aSFirmwareSDown
 0007:0003696D       aSFirmwareSizeD
 0007:00036984       aWlanPrimaWcn_3
 0007:000369A6       aSNvSDownloadFa
 0007:000369C0       aSNvFileSizeD
 0007:000369D6       aSLoadedFirmwar
 0007:000369F5       aSHddContextI_1
 0007:00036A0D       aSDisablingOsTx
 0007:00036A28       aSStillOtherIfa
 0007:00036A61       aSFailedToPutWl
 0007:00036A86       aSAllInterfaces
 0007:00036AB3       aSChipAlreadyOu
 0007:00036AD3       aSFailedToBring
 0007:00036AFE       aSEnablingTxQue
 0007:00036B15       aProcCalibratio
 0007:00036B26       aSFileSFilp_ope
 0007:00036B43       aSGetInodeFromS
 0007:00036B61       aSReadUBytesFro
 0007:00036B8A       aSCfg80211InitF
 0007:00036BA3       aSFailedKmalloc
 0007:00036BC3       aSErrorParsingS
 0007:00036BD8       aWlanPrimaWcn_4
 0007:00036BF6       aSWlan_hdd_cfg8
 0007:00036C24       aSWlan_hdd_ftm_
 0007:00036C41       aSFtmDriverLoad
 0007:00036C65       aSVos_watchdog_
 0007:00036C82       aSFailedToConfi
 0007:00036CA9       aSVos_openFai_1
 0007:00036CBD       aSHalContextIsN
 0007:00036CD5       aSFailedHdd_set
 0007:00036CF3       aSHdd_wmm_initF
 0007:00036D0B       aSVos_prestartF
 0007:00036D23       aSConfigUpdateF
 0007:00036D3C       aMacaddr02x02x0
 0007:00036D62       aSMacAddress02x
 0007:00036D92       aSFailedToSetMa
 0007:00036DCB       aSVos_startFail
 0007:00036DE0       aSUnableToRetri
 0007:00036E13       aSUnableToRet_0
 0007:00036E46       a3SWcnssWlanVer
 0007:00036E9F       a6SWcnssWlanVer
 0007:00036EC6       aSUnableToRet_1
 0007:00036EFB       a6SWcnssSoftwar
 0007:00036F1D       aSUnableToRet_2
 0007:00036F52       a6SWcnssHardwar
 0007:00036F74       aSHdd_post_voss
 0007:00036F9A       aSoftap_D
 0007:00036FA4       aWlanD
 0007:00036FAB       aSHdd_open_adap
 0007:00036FC7       aSFailedToOpenB
 0007:00036FDE       aSFailedToInitB
 0007:00036FF5       aSFailedToSta_4
 0007:0003700C       aSHddregisterpm
 0007:00037028       aSReqRivaPowerO
 0007:0003704A       aSRegister_netd
 0007:00037071       aSNl_srv_initFa
 0007:00037088       aSBtc_activate_
 0007:000370A8       aSPtt_sock_acti
 0007:000370C9       aSHdd_init_wowl
 0007:000370E2       aPhddctxSap_loc
 0007:000370F5       a6WlanSLoadingD
 0007:00037117       aSLibraWlanNo_0
 0007:0003713E       aSWlanDeviceNot
 0007:0003715A       aSFailedToPreop
 0007:00037175       aSWlanDriverIni
 0007:0003719B       aInModuleInitEn
 0007:00037203       aCouldNotCanc_3
 0007:00037259       a3WlanSDriverLo
 0007:0003727C       a6WlanSDriverLo
 0007:00037299       aEnterS_1
 0007:000372A2       aSEnter
 0007:000372B0       aSMscanpendingI
 0007:000372C9       aSLogpInProgres
 0007:000372E8       aSNumssidD
 0007:000372FB       aMemoryAllocFai
 0007:0003731F       aSsidNumberDS
 0007:00037334       aSSmeScanFailSt
 0007:00037354       aExitS_0
 0007:0003735C       aSExit
 0007:00037369       aSCalledWithHal
 0007:000373B9       aSDeviceMismatc
 0007:000373D6       aSCalledWithMis
 0007:00037424       aHdd_indicatesc
 0007:00037459       aB
 0007:0003745B       aA
 0007:0003745D       aHdd_indicate_0
 0007:0003748D       aG
 0007:0003748F       aN
 0007:00037491       aSUnknownNetwor
 0007:000374B1       aIeee802_11S
 0007:000374BF       aHdd_indicate_1
 0007:000374F0       aHdd_indicate_2
 0007:00037521       aHdd_indicate_3
 0007:00037553       aAccessingArray
 0007:00037599       aHdd_indicate_4
 0007:000375CA       aAgeLu
 0007:000375D4       aHdd_indicate_5
 0007:00037602       aHdd_indicate_6
 0007:00037638       aSEnterBufferLe
 0007:00037656       aSMscanpendin_0
 0007:00037672       aIw_get_scanNul
 0007:00037691       aSExitTotalDBss
 0007:000376B4       aSUnableToAll_1
 0007:000376D2       a4WlanVosAss_35
 0007:000376F5       aHomeAaProje_36
 0007:00037777       aSSme_scanreq_1
 0007:00037796       aEnterS_2
 0007:0003779F       aSCalledWithUnk
 0007:000377C0       aSCalledWithAut
 0007:000377DC       aExitS_1
 0007:000377E4       aSValueDUnknown
 0007:00037807       aCounterMeasure
 0007:00037822       aCounterMeasu_0
 0007:0003783D       aSCalledWithUns
 0007:00037865       aSSetRoamAuthty
 0007:00037880       a02x02x02x02x_0
 0007:0003789E       aSDCipher_typeD
 0007:000378B6       aSDAuth_typeD
 0007:000378CC       aSDSPairwiseCip
 0007:000378F8       aSDSAuthenticat
 0007:00037923       aSDSCallingCsrr
 0007:00037962       aSDSWpaUnicastC
 0007:00037991       aSDSWpaAuthenti
 0007:000379C0       aSDGen_ie0D
 0007:000379D6       aSCsrAuthtypeDE
 0007:00037A17       aSLogpInProgr_0
 0007:00037A36       aSCounterMeasur
 0007:00037A59       aSSettingWapiAu
 0007:00037A8F       aSWapiAuthTypeP
 0007:00037AAB       aSWapiAuthTypeC
 0007:00037AC8       aSWapiPairwiseG
 0007:00037AF0       aSWlantl_clears
 0007:00037B3A       aSWapiStaRegist
 0007:00037B56       aHddRegisterTlS
 0007:00037B77       aHddRegisterTlQ
 0007:00037B96       aWlantl_registe
 0007:00037BDB       a4WlanVosAss_36
 0007:00037BFE       aHomeAaProje_37
 0007:00037C81       aOpenSharedAu_0
 0007:00037CCE       aUlaAuthStaid_0
 0007:00037D0F       aSPcsrroaminfoN
 0007:00037D38       aSBeaconIesIsNu
 0007:00037D4F       aSBeaconIesIsNo
 0007:00037D71       aSBeaconIesLeng
 0007:00037D8C       aSKmallocUnable
 0007:00037DB2       aBeaconies
 0007:00037DBD       aSBeaconIesLe_0
 0007:00037DE6       a6WlanConnected
 0007:00037E1C       aSPcsrroaminf_0
 0007:00037E41       aSAssocreqOrAss
 0007:00037E62       aSAssocrspIsNow
 0007:00037E82       a6WlanNewIbssCo
 0007:00037EC1       a6WlanDisconn_2
 0007:00037ED9       aHomeAaProje_38
 0007:00037F32       a6Netif_stop__0
 0007:00037F73       aSSentDisconnec
 0007:00037F9A       aHdd_roamderegi
 0007:00037FDD       aRic
 0007:00037FE2       aSRicIesIsOfLen
 0007:00038021       aAuth
 0007:00038027       aSAuthrspFtiesI
 0007:00038048       a3WlanNotAbleTo
 0007:0003806F       aCannotRegister
 0007:000380B0       a6WlanConnectio
 0007:000380CD       aCsrCallbackSta
 0007:000380FC       aSDHdd_roamdere
 0007:00038147       aEcsr_roam_di_1
 0007:00038167       aEcsr_roam_ibss
 0007:00038184       aEcsr_roam_as_0
 0007:000381AD       aIbssNewPeerInd
 0007:00038208       aCannotRegist_0
 0007:00038252       aIbssConnectInd
 0007:00038276       aIbssPeerDepart
 0007:000382BF       aMicMac02x02x02
 0007:000382E5       aKeySetForStaid
 0007:00038320       aNewIbssPeerBut
 0007:00038372       aS_4
 0007:00038377       aSSetMcBcFilter
 0007:0003839F       aTheFunctionIw_
 0007:000383CA       aTheFunctionI_0
 0007:000383F4       aSReceivedLengt
 0007:0003840B       aSReceivedDataS
 0007:00038420       aSInputDataBkid
 0007:00038446       aSBkidCnt0x04lx
 0007:0003845B       aBkidKeyList00x
 0007:0003846F       a02x_0
 0007:00038474       aTheFunctionI_1
 0007:0003849E       aSInputDataWreq
 0007:000384C3       aSWapiModeSetTo
 0007:000384DC       aSWapiModeSet_0
 0007:000384F4       aEnterS_3
 0007:000384FD       aInS_2
 0007:00038503       aSInvalidCont_1
 0007:00038521       aSLogpInProgr_1
 0007:00038540       aSReturnsIw_mod
 0007:0003855A       aSReturnsIw_m_0
 0007:00038574       aSReturnsIw_m_1
 0007:0003858D       aSReturnsApmode
 0007:000385A8       aInS_3
 0007:000385AF       aInvalidIesEi_0
 0007:000385E2       aSetband
 0007:000385EB       aSChangeBandToU
 0007:00038601       aSInvalidBandVa
 0007:0003861B       aSFailedToGetCu
 0007:00038641       aSCurrentBandVa
 0007:0003866E       aSFailedToSetTh
 0007:00038696       aSPacketFilteri
 0007:000386C0       aSPacketFilterR
 0007:000386EC       aSSetPacketFilt
 0007:00038715       aSNumberOfParam
 0007:0003873F       aProtoDCompFl_0
 0007:00038762       aDataOffsetDD_0
 0007:0003877E       aCdataDCdataDCd
 0007:000387B5       aMdataDMdataDMd
 0007:000387EC       aSFailureToExec
 0007:0003880F       aSClearPacketFi
 0007:0003883B       aSFailureToEx_0
 0007:00038860       aSPacketFilte_0
 0007:00038887       aSSetKeepAliveR
 0007:000388BA       aSKeepAliveRequ
 0007:000388DA       aSKeepAliveRe_0
 0007:0003890A       aHostIpAddressD
 0007:00038929       aDestIpAddressD
 0007:00038948       aDestMacAddress
 0007:0003896E       aSetKeepTpBefor
 0007:0003898A       aSFailureToEx_1
 0007:000389AD       aSUnableToRet_3
 0007:000389D3       aSSmeTimeoutWhi
 0007:000389FF       aExitS_2
 0007:00038A07       aSUnableToRet_4
 0007:00038A29       aSDSCalledWith0
 0007:00038A4E       aSDSCalledWithN
 0007:00038A6E       aSDCalledWithIe
 0007:00038AA9       aSDShouldBeReAs
 0007:00038ACD       aSDSCalledWithI
 0007:00038AF7       aSHostOffloadRe
 0007:00038B1B       aDisable_0
 0007:00038B26       aBcFilteringEna
 0007:00038B3D       aArpOffloadEnab
 0007:00038B53       aIpAddressD_D_D
 0007:00038B6E       aSHostOffload_0
 0007:00038B9C       aEnable_0
 0007:00038BA6       aIpAddressXXXXX
 0007:00038BCD       aSFailureToEx_2
 0007:00038BFA       aTheFunctionI_2
 0007:00038C24       aSGetWapiModeVa
 0007:00038C41       a6WlanGetWapiMo
 0007:00038C5C       aSInvalidKeyidD
 0007:00038C74       aTheFunctionI_3
 0007:00038C9E       aSInputDataKeyT
 0007:00038CE2       aAddIndex0x
 0007:00038CEF       aSWapiEncryptio
 0007:00038D16       aWapiEncryption
 0007:00038D2D       aSWapiIntegrity
 0007:00038D59       aWapiIntegrityC
 0007:00038D75       aWapiPnNumber0x
 0007:00038D88       a4dSFailedToSet
 0007:00038DBA       aSErrorWapiKeyA
 0007:00038DD7       a4dSme_roamse_0
 0007:00038E06       aTheFunctionI_4
 0007:00038E36       a4WlanVosAss_37
 0007:00038E59       aHomeAaProje_39
 0007:00038EDB       aSInputDataElem
 0007:00038F1B       aSAkmSuiteCnt0x
 0007:00038F34       aAkmSuite02d0x0
 0007:00038F4C       aSUnicastSuiteC
 0007:00038F69       aUnicastSuite02
 0007:00038F85       aSMulticastSuit
 0007:00038FB2       aSBkidCnt0x04x
 0007:00038FC7       aBkidList02d_bk
 0007:00038FDF       aSWapiAuthModeS
 0007:00038FFD       aSWapiAuthMod_0
 0007:00039023       aIw_set_genieIo
 0007:00039049       aSIe0xXLenD
 0007:00039060       aSSetWpsOui02x0
 0007:0003908F       aCannotAccommod
 0007:000390C3       aSSetWpaIeLenD
 0007:000390DA       aSSetOui02x02x0
 0007:00039105       aSSetRsnIeLenD
 0007:0003911C       aSSetUnknownIeX
 0007:00039131       aInvalidRetryLi
 0007:0003914C       aSetRetryLimitL
 0007:00039163       aSClearing
 0007:00039170       aWlanInitApTrig
 0007:00039188       aSoftap_D_0
 0007:00039192       aSoftap_0
 0007:0003919B       a6WlanStoppingA
 0007:000391B6       a6WlanSapAdapto
 0007:000391E2       aWlan0
 0007:000391E8       aSEnablingAmp
 0007:000391F9       aSDisablingAmp
 0007:0003920B       aSUnknownIoctlD
 0007:00039220       aS_
 0007:00039224       aWcnss
 0007:0003922A       aTransmitCalled
 0007:000394AF       aInvalidIoctlCo
 0007:000394CB       aAdd_ptrn
 0007:000394D5       aDel_ptrn
 0007:000394DF       aReceivedWe_set
 0007:000394F9       aSInvalidSubCom
 0007:00039515       aRetryLimitLd
 0007:00039528       aFragThresholdL
 0007:0003953E       aRtsThresholdLd
 0007:00039553       a11dStateLd
 0007:00039564       aReturnIbssStat
 0007:00039581       aPmcStateLd
 0007:00039592       aSSendingWlan_m
 0007:000395B3       aSTakeDownAmpPa
 0007:000395C9       aConcurrencyMod
 0007:000395DF       aInvalidIoctlGe
 0007:00039603       aNo_0
 0007:00039606       aYes
 0007:0003960A       aMagicPacketSPa
 0007:0003963C       aInvalidArgDInW
 0007:0003965E       aInterrupt_0
 0007:00039668       aTimeout_0
 0007:00039670       aSSmeSWhileRequ
 0007:00039697       aIwprivFullPowe
 0007:000396B4       aSSmeSWhileRe_0
 0007:000396D5       aIwprivRequestB
 0007:000396F4       aInvalidArgDI_0
 0007:0003971B       aInvalidArgDI_1
 0007:00039757       aFailureCouldNo
 0007:000397B0       aInvalidIoctlSe
 0007:000397DD       aSPadapterIsNul
 0007:000397F2       aSUnableToRet_5
 0007:0003981D       aSSmeSWhileRetr
 0007:0003984C       aSBadParamPcont
 0007:00039869       aSInvalidCont_2
 0007:00039899       a6SInvalidConte
 0007:000398CD       a6SPstatsPPcont
 0007:000398EF       aSBadParamPstat
 0007:00039918       a6SRssiDStaDPco
 0007:00039941       aGetgen_ieIoctl
 0007:00039952       aSDSCalledWithU
 0007:00039993       aSDSCalledWithA
 0007:000399C6       aSRsnIeOfDBytes
 0007:000399E7       aIwconfigWlan0K
 0007:00039A08       aIwconfigWlan_0
 0007:00039A1E       aSWrquData_leng
 0007:00039A3A       aSCallWithWep40
 0007:00039A59       aSCallWithWep10
 0007:00039A78       aSInvalidWepKey
 0007:00039A97       aActive_phy_mod
 0007:00039AAD       aSetchannelIoct
 0007:00039ABF       aIbssAssociated
 0007:00039AD0       aSChannelDIsOut
 0007:00039B07       aProamprofileOp
 0007:00039B2D       aSDCommandDisas
 0007:00039B81       aHomeAaProje_40
 0007:00039BDA       a6Netif_stop__1
 0007:00039C1B       aSDCommandDis_0
 0007:00039C75       aSDCommandShoul
 0007:00039CAB       aQcom802_11n
 0007:00039CB8       aHdd_tx_per_hit
 0007:00039CDD       aTx_fail
 0007:00039CE5       aSOldBssTypeD
 0007:00039CFA       aSSettingApMode
 0007:00039D1E       aSSettingApMo_0
 0007:00039D42       aSSettingApMo_1
 0007:00039D65       aSUnknownApMode
 0007:00039D7E       aErrorHdd_set_w
 0007:00039D9C       aErrorHddVosEve
 0007:00039DC0       aErrorHddScanEv
 0007:00039DE5       aHhu
 0007:00039DEA       aIncorrectForma
 0007:00039DFB       aPnoDataLenDDat
 0007:00039E13       aPnoInputIsNotC
 0007:00039E2C       aHhuN
 0007:00039E34       a6WlanDisablePn
 0007:00039E4A       a6WlanEnablePno
 0007:00039E5F       aPnoEnableDNetw
 0007:00039E89       a6WlanPnoEnable
 0007:00039EBD       aNetworkInputIs
 0007:00039EDA       aSsidLenDIsNotC
 0007:00039F04       a32sLuLuHhuN
 0007:00039F19       aPnoLenDSsidSAu
 0007:00039F58       a6WlanPnoLenDSs
 0007:00039FA3       aIncorrectCmd
 0007:00039FB1       aIncorrectNumbe
 0007:00039FCE       aLuN
 0007:00039FD5       aPnoBcastnetwty
 0007:00039FF4       aPnoRssiDOffset
 0007:0003A00A       a6WlanPnoRssiDO
 0007:0003A02A       aSetPnoPrivate
 0007:0003A03A       aAPreferredNetw
 0007:0003A06B       a6WlanPnoAPrefe
 0007:0003A0AB       aQcomFoundPrefe
 0007:0003A0DE       aSLog_dumpDArg1
 0007:0003A10E       aSP2p_noa_attrO
 0007:0003A17B       aInvalidIoctl_0
 0007:0003A194       aHddContextNull
 0007:0003A1A5       aWlanDriverEnte
 0007:0003A1C8       aWlanDriverEn_0
 0007:0003A1EE       aSDriverStopIsN
 0007:0003A210       aInvalidPointer
 0007:0003A220       aSWlanBeingExit
 0007:0003A242       aSWlanBeingEx_0
 0007:0003A266       aSNotInStandbyO
 0007:0003A29C       aAdapterNull
 0007:0003A2A9       aPowerModeD
 0007:0003A2B7       aSWlanDriverEnt
 0007:0003A2DA       aSWlanDriverE_0
 0007:0003A2F8       aSSmeSWhileRe_1
 0007:0003A31A       aBmpsIsNotEnabl
 0007:0003A339       aPowerParamsDat
 0007:0003A35A       aSetPowerParamI
 0007:0003A37F       aInvalidInput_1
 0007:0003A3BD       aPowerRequestPa
 0007:0003A3EB       aInvalidInput_2
 0007:0003A42A       aSetPowerParams
 0007:0003A443       a4dWlantl_finis
 0007:0003A475       aInvalidConfigu
 0007:0003A490       aSCipher_algDKe
 0007:0003A4C4       a4dWlan_hdd_che
 0007:0003A4FC       aSInvalidPhddct
 0007:0003A510       aSVos_event_s_0
 0007:0003A529       aSUnableToRet_6
 0007:0003A545       aSSmeSWhileRe_2
 0007:0003A567       a6SReqSLenD
 0007:0003A581       aReceivedSCmdFr
 0007:0003A5A6       a6SRestartInPro
 0007:0003A5C2       aCscan
 0007:0003A5C8       aStart
 0007:0003A5CE       aStartCommand
 0007:0003A5DD       aStart_0
 0007:0003A5E3       aSStartCmdStatu
 0007:0003A5FB       aStop
 0007:0003A600       aStopCommand
 0007:0003A60E       aStop_0
 0007:0003A613       aMacaddr
 0007:0003A61B       aMacaddr02x02_0
 0007:0003A643       aScanActive
 0007:0003A64F       aOk
 0007:0003A652       aScanPassive
 0007:0003A65F       aScanMode
 0007:0003A669       aScanmodeU
 0007:0003A677       aLinkspeed
 0007:0003A681       aLinkspeedU
 0007:0003A68E       aSUnableToEncod
 0007:0003A6B8       aCountry
 0007:0003A6C0       a6WlanSetCountr
 0007:0003A6DF       aSSmeChangeCoun
 0007:0003A702       aRssi
 0007:0003A707       aRssiD
 0007:0003A710       aSUnableToEnc_0
 0007:0003A734       aPowermode
 0007:0003A73E       aD_3
 0007:0003A741       aGetpower
 0007:0003A74A       aPowermodeU
 0007:0003A759       aBtcoexmode
 0007:0003A764       aBtcoexmode_0
 0007:0003A770       aBtcoexstat
 0007:0003A77B       aBtcoexStatus
 0007:0003A78A       aRxfilterStart
 0007:0003A799       aRxDataFilterSt
 0007:0003A7B7       aRxfilterStop
 0007:0003A7C5       aRxDataFilter_0
 0007:0003A7E2       aRxfilterStatis
 0007:0003A7F6       aRxDataFilter_1
 0007:0003A819       aRxfilterAdd
 0007:0003A826       aRxfilterAdd_0
 0007:0003A834       aRxfilterRemove
 0007:0003A844       aRxfilterRemo_0
 0007:0003A855       aPno
 0007:0003A859       aPno_0
 0007:0003A85E       aRssifilter
 0007:0003A869       aRssifilter_0
 0007:0003A875       aPowerparams
 0007:0003A881       aPowerparams_0
 0007:0003A88E       aConfigTxTracki
 0007:0003A8A1       aHhuHhuHhuLu
 0007:0003A8B4       aPeriodInputIsN
 0007:0003A8D0       aRatioInputIsNo
 0007:0003A8F7       aTxPacketNumber
 0007:0003A929       aSetTxPerTracki
 0007:0003A945       aUnsupportedGui
 0007:0003A960       a6SRspSLenDStat
 0007:0003A984       aSTransmissionT
 0007:0003A9A6       aSNullParamsB_1
 0007:0003A9C3       aSHddAdapterC_0
 0007:0003A9E3       a4WlanVosAss_38
 0007:0003AA06       aHomeAaProje_41
 0007:0003AA89       aSFailureWalkin
 0007:0003AAAA       aSFailureExtrac
 0007:0003AAD2       a3SkbPDataPEndP
 0007:0003AB0F       aHomeAaProje_42
 0007:0003AB92       aCorruptSkbDete
 0007:0003ABA9       aSFailureReturn
 0007:0003ABC7       aSFailureInIndi
 0007:0003ABF5       aSListLengthN_0
 0007:0003AC17       aSCouldNotRetur
 0007:0003AC43       aSNullParamsB_2
 0007:0003AC60       aSInvalidAcDPas
 0007:0003AC7F       aSVossInLowReso
 0007:0003ACA1       aSErrorInDeQueu
 0007:0003ACD7       aSErrorAttachin
 0007:0003ACEF       aSVosPacketRetu
 0007:0003AD17       aDowngradingUpD
 0007:0003AD33       aSTxQueueDReEna
 0007:0003AD4F       aHomeAaProje_43
 0007:0003ADA8       a6Netif_stop__2
 0007:0003ADE9       aSTxQueueFullFo
 0007:0003AE19       aSInsertTxQueue
 0007:0003AE40       aSFailedToSigna
 0007:0003AE62       aSNoAdapterToPi
 0007:0003AEA0       aSNotAEapolPack
 0007:0003AEC8       aSPacketRcvdAtM
 0007:0003AF10       aSPadapterIsN_0
 0007:0003AF25       aSAlreadyOneMgm
 0007:0003AF4D       aSNoPacketPendi
 0007:0003AF63       aSNotAbleToRemo
 0007:0003AF8F       aSNoPacketPen_0
 0007:0003AFA5       aSFailedToAll_2
 0007:0003AFC3       aSSendingAction
 0007:0003AFF1       aSWlansap_senda
 0007:0003B016       aSFullPowerStat
 0007:0003B031       aSSme_requestfu
 0007:0003B051       aSStandbyStatus
 0007:0003B069       aSSme_requestst
 0007:0003B087       aSUnregisterWla
 0007:0003B0B4       aSRegisterWlanS
 0007:0003B0DF       aSWlanBeingRese
 0007:0003B0F4       aSGlobalVosCo_1
 0007:0003B113       aSPreventingThe
 0007:0003B142       aSInvalidPconte
 0007:0003B157       aSInvalidSmec_0
 0007:0003B16E       aSWlanDriverShu
 0007:0003B18E       aSHddContextI_2
 0007:0003B1A6       aSHddderegist_0
 0007:0003B1C4       aSShuttingDownM
 0007:0003B1E0       aSShuttingDownT
 0007:0003B1FC       aSShuttingDownR
 0007:0003B218       aSFailedToSto_0
 0007:0003B22F       a4WlanVosAss_39
 0007:0003B252       aHomeAaProje_44
 0007:0003B2DD       aSDoingSmeStop
 0007:0003B2F0       aSDoingMacStop
 0007:0003B303       aSDoingTlStop
 0007:0003B315       aSFlushQueues
 0007:0003B326       aSDoingVosShutd
 0007:0003B33D       aWlan_0
 0007:0003B342       aSFailedToFre_0
 0007:0003B363       aSWlanDriverS_0
 0007:0003B385       aSVos_openFai_2
 0007:0003B399       aSHalContextI_0
 0007:0003B3B1       aSFailedHdd_s_0
 0007:0003B3CF       aSHdd_wmm_ini_0
 0007:0003B3E7       aSVos_prestar_0
 0007:0003B3FF       aSConfigUpdat_0
 0007:0003B418       aSFailedToSet_0
 0007:0003B451       aSVos_startFa_0
 0007:0003B466       aSHdd_post_vo_0
 0007:0003B48C       aSFailedToOpe_2
 0007:0003B4A3       aSFailedToIni_9
 0007:0003B4BA       aSFailedToSta_5
 0007:0003B4D1       aSHddregister_0
 0007:0003B4ED       aSReqRivaPowe_0
 0007:0003B50F       aSAssertingDeep
 0007:0003B528       aSPowerDownChip
 0007:0003B53C       aSFailedToSet_1
 0007:0003B571       aInLogpCancelXo
 0007:0003B592       aCouldNotCanc_2
 0007:0003B5E7       aSDoingVosClose
 0007:0003B5FB       aSPoweringUpChi
 0007:0003B616       aSLibraWlanNotP
 0007:0003B63D       aSVos_mem_alloc
 0007:0003B657       aSConfiguringMc
 0007:0003B690       aSNotAbleToSetM
 0007:0003B6B8       aS_5
 0007:0003B6BE       aSHddAdapterC_1
 0007:0003B6DE       aSEnabled
 0007:0003B6EC       aEnableSmeHosto
 0007:0003B711       aSFailedToEnabl
 0007:0003B73B       aSIpAddressIsNo
 0007:0003B75B       aSFailureToDisa
 0007:0003B788       aSWlanBeingResu
 0007:0003B7AD       a6WlanSWlanBein
 0007:0003B7DC       aSIgnoreResumeW
 0007:0003B806       a6SDSetListenIn
 0007:0003B83C       aSwitchToDtimD
 0007:0003B84F       aSSendWlanResum
 0007:0003B86F       aSFailedToDisab
 0007:0003B89B       aSWlanBeingSusp
 0007:0003B8C2       a6WlanSWlanBe_0
 0007:0003B8F3       aSIgnoreSuspend
 0007:0003B91E       a6WlanSDSetList
 0007:0003B95B       aSSendWlanSuspe
 0007:0003B97C       aSFailedToEna_0
 0007:0003B9A7       aSCallingHdd_se
 0007:0003B9C6       aSFailedInHdd_s
 0007:0003B9E7       aSCallingVos_st
 0007:0003B9FD       aSFailedInVos_s
 0007:0003BA15       aSCallingHdd_po
 0007:0003BA3C       aSFailedInHdd_p
 0007:0003BA65       aSme_opensess_0
 0007:0003BA9D       aSWlanBeingRe_0
 0007:0003BAC1       aSSme_request_0
 0007:0003BAED       aHomeAaProje_45
 0007:0003BB46       a6Netif_stop__3
 0007:0003BB87       aSRequestForF_1
 0007:0003BBA9       aSSme_request_1
 0007:0003BBC9       aSSme_request_2
 0007:0003BBF3       aSEntered
 0007:0003BBFF       aSQapIsDQosconn
 0007:0003BC33       aSAcDOn
 0007:0003BC40       aSAcDOff
 0007:0003BC4E       aSExiting
 0007:0003BC5A       aSEnteredWithHa
 0007:0003BC77       aSFoundHandle0x
 0007:0003BC99       aSFailedToDis_0
 0007:0003BCC0       aSDisabledUapsd
 0007:0003BCE3       aSEnteredContex
 0007:0003BCFB       aSHandle0xXNotF
 0007:0003BD15       aSFoundHandle_0
 0007:0003BD47       aSSmeFlowDRelea
 0007:0003BD6F       aSUnexpectedSme
 0007:0003BD8D       a4WlanVosAss_40
 0007:0003BDB0       aHomeAaProje_46
 0007:0003BE31       aSRecordAlready
 0007:0003BE5C       aSUnableToAll_2
 0007:0003BE7F       aSSettingUpQosC
 0007:0003BE9E       aSSme_qossetupr
 0007:0003BEC8       aSInvalidQosCon
 0007:0003BEE0       aQcomTsChangeUU
 0007:0003BEF8       aSSendingS
 0007:0003BF09       aSInvokedWithIn
 0007:0003BF28       aSNoServiceInte
 0007:0003BF49       aSNoChangeInUAp
 0007:0003BF6C       aSBmpsIsNotEnab
 0007:0003BF84       aSUApsdIsNotEna
 0007:0003BF9E       aSFailedToEna_1
 0007:0003BFC4       aSEnabledUapsdI
 0007:0003C002       aSStatusDFlowid
 0007:0003C022       aSSetupIsComple
 0007:0003C038       aSImplicitQosNo
 0007:0003C064       aSFailedToSig_0
 0007:0003C086       aSExplicitQosNo
 0007:0003C0AC       aSSetupIsComp_0
 0007:0003C0DA       aSImplicitQos_0
 0007:0003C0F9       aSSetupFailed
 0007:0003C10A       aSSetupInvalidP
 0007:0003C12E       aSSetupFailedNo
 0007:0003C14E       aSSetupPending
 0007:0003C160       aSSetupModified
 0007:0003C173       aSSetupSuccessf
 0007:0003C19A       aSReleaseIsComp
 0007:0003C1B2       aSFlowsStillAct
 0007:0003C1C9       aSLastFlow
 0007:0003C1D7       aSReleaseFailur
 0007:0003C1EB       aSQosLostIndica
 0007:0003C20C       aSReleasePendin
 0007:0003C220       aSReleaseInvali
 0007:0003C23B       aSModificationI
 0007:0003C263       aSModificationP
 0007:0003C27C       aSModifySuccess
 0007:0003C2A4       aNot
 0007:0003C2AC       aSCompleteAcces
 0007:0003C2DA       aSReassocSoNoWo
 0007:0003C2FA       aSUApsdMaskIs0x
 0007:0003C314       aSEnteredForAcD
 0007:0003C32A       aSQosNotConfigu
 0007:0003C34F       aSImplicitQosFo
 0007:0003C37F       aSImplicitQos_1
 0007:0003C3AF       aSNeedToSchedul
 0007:0003C3EE       aSUnableToAll_3
 0007:0003C40D       aSSchedulingWor
 0007:0003C437       aSPadapterPActy
 0007:0003C451       aSAcDDoesnTNeed
 0007:0003C470       aSSetupIsPendin
 0007:0003C496       aSSetupIsComp_1
 0007:0003C4B7       aSFailedToFindR
 0007:0003C4D8       aSStationMacAdd
 0007:0003C502       aPadapterHddwmm
 0007:0003C522       aSBwmmisenabled
 0007:0003C557       aApCountryCodeS
 0007:0003C56A       aFff
 0007:0003C56E       aMin
 0007:0003C572       aMax
 0007:0003C576       aMod
 0007:0003C57A       aSetconfigpower
 0007:0003C5A8       aCouldNotPass_5
 0007:0003C5D9       aCouldNotPass_6
 0007:0003C607       aCouldNotPass_7
 0007:0003C634       aCouldNotPass_8
 0007:0003C655       aCouldNotPass_9
 0007:0003C676       aCouldNotPas_10
 0007:0003C697       aCouldNotPas_11
 0007:0003C6B8       aCouldNotPas_12
 0007:0003C6D9       aCouldNotPas_13
 0007:0003C709       aCouldNotPas_14
 0007:0003C736       aCouldNotPas_15
 0007:0003C77C       aCouldNotPas_16
 0007:0003C7AD       a000000000000
 0007:0003C7BA       aCouldNotPas_17
 0007:0003C7E2       aMacAddrIbssBss
 0007:0003C82D       aCouldNotPas_18
 0007:0003C85F       aCouldNotPas_19
 0007:0003C88D       aFailureCould_0
 0007:0003C8DE       aCouldNotPas_20
 0007:0003C912       aCouldNotPas_21
 0007:0003C947       aCouldNotPas_22
 0007:0003C97F       aFailureCould_1
 0007:0003C9CB       aFailureCould_2
 0007:0003CA17       aFailureCould_3
 0007:0003CA65       aFailureCould_4
 0007:0003CABE       aFailureCould_5
 0007:0003CB0E       aCouldNotPas_23
 0007:0003CB4B       a6WlanHdd_updat
 0007:0003CBAF       aFailureCould_6
 0007:0003CBFB       aFailureCould_7
 0007:0003CC4C       aFailureCould_8
 0007:0003CC9C       aFailureCould_9
 0007:0003CCEA       aFailureCoul_10
 0007:0003CD44       aFailureCoul_11
 0007:0003CD9C       aFailureCoul_12
 0007:0003CDEF       aFailureCoul_13
 0007:0003CE49       aFailureCoul_14
 0007:0003CE9D       aFailureCoul_15
 0007:0003CEF5       aFailureCoul_16
 0007:0003CF4B       aFailureCoul_17
 0007:0003CF97       aFailureCoul_18
 0007:0003CFE1       aFailureCoul_19
 0007:0003D034       aFailureCoul_20
 0007:0003D08C       aCouldNotPas_24
 0007:0003D0C0       aU
 0007:0003D0C3       aX_0
 0007:0003D0C6       aS_11
 0007:0003D0C9       a02x02x02x02x_1
 0007:0003D0E7       aUnhandled
 0007:0003D0F6       aSSS
 0007:0003D101       a6WlanS_0
 0007:0003D10E       aWlanConfigurat
 0007:0003D137       aWlanPrimaWcn_5
 0007:0003D155       aSRequest_firmw
 0007:0003D175       aSSDownloadFail
 0007:0003D18D       aSKmallocFailur
 0007:0003D1A1       aSItem
 0007:0003D1AA       aEnd
 0007:0003D1AE       aSNumberOfItems
 0007:0003D1CF       aFoundSEntryFor
 0007:0003D1F8       aSFailedToReadR
 0007:0003D228       aSRegParameterS
 0007:0003D26F       aSRegParamete_0
 0007:0003D2B5       aSRegParamete_1
 0007:0003D300       aSRegParamete_2
 0007:0003D34A       aSInvalidValueS
 0007:0003D380       aSInvalidVarsiz
 0007:0003D3A6       aSInvalidMacAdd
 0007:0003D3DF       aSUnknownParamT
 0007:0003D416       aConfigValuesIn
 0007:0003D443       aNameRtsthresho
 0007:0003D465       aNameOperatingc
 0007:0003D48C       aNamePowerusage
 0007:0003D4B4       aNameFisimpsena
 0007:0003D4D9       aNameAutobmpsti
 0007:0003D504       aNameNautobmpst
 0007:0003D52F       aNameNvccrssitr
 0007:0003D555       aNameGibssbssid
 0007:0003D590       aNameIntf0macad
 0007:0003D5D0       aNameIntf1macad
 0007:0003D610       aNameIntf2macad
 0007:0003D650       aNameIntf3macad
 0007:0003D690       aNameGapenableu
 0007:0003D6B6       aNameGapcntryco
 0007:0003D6DD       aNameGenableapp
 0007:0003D701       aNameGapautoshu
 0007:0003D727       aNameGenablelis
 0007:0003D750       aNameGapprotect
 0007:0003D775       aNameGenableapo
 0007:0003D79E       aNameGapautocha
 0007:0003D7CD       aNameChannelbon
 0007:0003D7F7       aNameDot11modeV
 0007:0003D818       aNameWmmmodeVal
 0007:0003D837       aNameUapsdmaskV
 0007:0003D85A       aNamePktclassif
 0007:0003D888       aNameImplicitqo
 0007:0003D8B3       aNameInfrauapsd
 0007:0003D8DF       aNameInfrauap_0
 0007:0003D90C       aNameInfrauap_1
 0007:0003D938       aNameInfrauap_2
 0007:0003D965       aNameInfrauap_3
 0007:0003D991       aNameInfrauap_4
 0007:0003D9BE       aNameInfrauap_5
 0007:0003D9EA       aNameInfrauap_6
 0007:0003DA17       aNameInfradirac
 0007:0003DA3B       aNameInfranomms
 0007:0003DA69       aNameInframeand
 0007:0003DA99       aNameInframinph
 0007:0003DAC7       aNameInfrasbaac
 0007:0003DAED       aNameInfradir_0
 0007:0003DB11       aNameInfranom_0
 0007:0003DB3F       aNameInframea_0
 0007:0003DB6F       aNameInframin_0
 0007:0003DB9D       aNameInfrasba_0
 0007:0003DBC3       aNameInfradir_1
 0007:0003DBE7       aNameInfranom_1
 0007:0003DC15       aNameInframea_1
 0007:0003DC45       aNameInframin_1
 0007:0003DC73       aNameInfrasba_1
 0007:0003DC99       aNameInfradir_2
 0007:0003DCBD       aNameInfranom_2
 0007:0003DCEB       aNameInframea_2
 0007:0003DD1B       aNameInframin_2
 0007:0003DD49       aNameInfrasba_2
 0007:0003DD6F       aNameWfqbkweigh
 0007:0003DD92       aNameWfqbeweigh
 0007:0003DDB5       aNameWfqviweigh
 0007:0003DDD8       aNameWfqvoweigh
 0007:0003DDFB       aNameDelayedtri
 0007:0003DE28       aNameMcastbcast
 0007:0003DE57       aNameFhostarpof
 0007:0003DE7E       aNameFftenableV
 0007:0003DEA0       aNameFftresourc
 0007:0003DED0       aNameNneighborr
 0007:0003DF06       aNameNneighborl
 0007:0003DF3B       aNameNneighbors
 0007:0003DF6C       aNameNneighbo_0
 0007:0003DF9D       aNameNmaxneighb
 0007:0003DFC9       aNameNneighbo_1
 0007:0003DFF5       aNameNneighbo_2
 0007:0003E02F       aNameBurstsized
 0007:0003E05C       aNameTsinfoackp
 0007:0003E085       aNameRfsettling
 0007:0003E0AD       aNameBsingletid
 0007:0003E0D1       aNameGdynamicps
 0007:0003E0FC       aNameGaddtswhen
 0007:0003E126       aNameGvalidates
 0007:0003E14F       aNameGenablebta
 0007:0003E173       aNameBtampprefe
 0007:0003E1A0       aNameBandcapabi
 0007:0003E1C6       aNameFenablebea
 0007:0003E1FB       aNameTelebcnwak
 0007:0003E226       aNameTransliste
 0007:0003E251       aNameTranslinum
 0007:0003E27E       aNameMaxlisteni
 0007:0003E2A7       aNameMaxlinumid
 0007:0003E2D2       aNameBcnearlyte
 0007:0003E302       aNameGapdataava
 0007:0003E332       aNameGenablebyp
 0007:0003E35A       aNameGenabledfs
 0007:0003E384       aRtsthreshold
 0007:0003E391       aGfragmentation
 0007:0003E3A9       aGcalibration
 0007:0003E3B6       aGcalibrationpe
 0007:0003E3C9       aGoperatingchan
 0007:0003E3DB       aGshortslottime
 0007:0003E3F1       aG11dsupportena
 0007:0003E404       aGenforce11dcha
 0007:0003E417       aGcountrycodepr
 0007:0003E42C       aGenforcecountr
 0007:0003E445       aGenforcedefaul
 0007:0003E45B       aGcfg1id
 0007:0003E463       aGcfg2id
 0007:0003E46B       aGcfg3id
 0007:0003E473       aGcfg4id
 0007:0003E47B       aGcfg5id
 0007:0003E483       aGcfg1value
 0007:0003E48E       aGcfg2value
 0007:0003E499       aGcfg3value
 0007:0003E4A4       aGcfg4value
 0007:0003E4AF       aGcfg5value
 0007:0003E4BA       aGheartbeat24
 0007:0003E4C7       aGpowerusage
 0007:0003E4D3       aGenablesuspend
 0007:0003E4E2       aGenabledrivers
 0007:0003E4F4       aGenableimps
 0007:0003E500       aGenablelogp
 0007:0003E50C       aGimpsminsleept
 0007:0003E51E       aGimpsmaxsleept
 0007:0003E530       aGimpsmodsleept
 0007:0003E542       aGenablebmps
 0007:0003E54E       aGbmpsminlisten
 0007:0003E565       aGbmpsmaxlisten
 0007:0003E57C       aGbmpsmodlisten
 0007:0003E593       aGenableautobmp
 0007:0003E5B1       aGautobmpstimer
 0007:0003E5C5       aGdot11mode
 0007:0003E5D0       aGchannelbondin
 0007:0003E5E9       aGchannelbond_0
 0007:0003E601       aGmaxrxampdufac
 0007:0003E613       aGfixedrate
 0007:0003E61E       aGshortgi20mhz
 0007:0003E62C       aGblockackautos
 0007:0003E63F       aGscanresultage
 0007:0003E653       aGscanresulta_0
 0007:0003E667       aGscanresulta_1
 0007:0003E67A       aGscanresulta_2
 0007:0003E68D       aGscanresulta_3
 0007:0003E69F       aGrssicatgap
 0007:0003E6AB       aGstattimerinte
 0007:0003E6BE       aGshortpreamble
 0007:0003E6CD       aGautoibssbssid
 0007:0003E6DC       aGibssbssid
 0007:0003E6E7       a000af5040506
 0007:0003E6F4       aIntf0macaddres
 0007:0003E704       a000af5898980
 0007:0003E711       aIntf1macaddres
 0007:0003E721       a000af5898981
 0007:0003E72E       aIntf2macaddres
 0007:0003E73E       a000af5898982
 0007:0003E74B       aIntf3macaddres
 0007:0003E75B       a000af5898983
 0007:0003E768       aGenableapuapsd
 0007:0003E777       aGapcntrycode
 0007:0003E784       aGenableapprot
 0007:0003E792       aGapprotection
 0007:0003E7A0       aGenableapobssp
 0007:0003E7B2       aGdisableintrab
 0007:0003E7C6       aGminframesproc
 0007:0003E7DA       aGapchannelsele
 0007:0003E7F7       aGapchannelse_0
 0007:0003E812       aGapchannelse_1
 0007:0003E830       aGapautochannel
 0007:0003E848       aGdisablepacket
 0007:0003E85D       aGbeaconinterva
 0007:0003E86D       aGenablehandoff
 0007:0003E87C       aGenableidlesca
 0007:0003E88C       aGroamingtime
 0007:0003E899       aGvccrssitrigge
 0007:0003E8A9       aGvcculmaclosst
 0007:0003E8BD       aGpassivemaxcha
 0007:0003E8D4       aGpassivemincha
 0007:0003E8EB       aGactivemaxchan
 0007:0003E901       aGactiveminchan
 0007:0003E917       aGmaxpspoll
 0007:0003E922       aGtxpowercap
 0007:0003E92E       aGlowgainoverri
 0007:0003E93F       aGrssifilterper
 0007:0003E951       aGignoredtim
 0007:0003E95D       aGnumrxant
 0007:0003E967       aGenablefwheart
 0007:0003E984       aGenablefwbeaco
 0007:0003E99D       aGenablefwrssim
 0007:0003E9B5       aGdatainactivit
 0007:0003E9CC       aGnthbeaconfilt
 0007:0003E9DD       aWmmisenabled
 0007:0003E9EA       a80211eisenable
 0007:0003E9FA       aUapsdmask
 0007:0003EA04       aMaxsplength
 0007:0003EA10       aInfrauapsdvosr
 0007:0003EA24       aInfrauapsdvosu
 0007:0003EA39       aInfrauapsdvisr
 0007:0003EA4D       aInfrauapsdvisu
 0007:0003EA62       aInfrauapsdbesr
 0007:0003EA76       aInfrauapsdbesu
 0007:0003EA8B       aInfrauapsdbksr
 0007:0003EA9F       aInfrauapsdbksu
 0007:0003EAB4       aPktclassificat
 0007:0003EACB       aInfradiracvo
 0007:0003EAD8       aInfranommsdusi
 0007:0003EAED       aInframeandatar
 0007:0003EB03       aInframinphyrat
 0007:0003EB17       aInfrasbaacvo
 0007:0003EB24       aInfradiracvi
 0007:0003EB31       aInfranommsdu_0
 0007:0003EB46       aInframeandat_0
 0007:0003EB5C       aInframinphyr_0
 0007:0003EB70       aInfrasbaacvi
 0007:0003EB7D       aInfradiracbe
 0007:0003EB8A       aInfranommsdu_1
 0007:0003EB9F       aInframeandat_1
 0007:0003EBB5       aInframinphyr_1
 0007:0003EBC9       aInfrasbaacbe
 0007:0003EBD6       aInfradiracbk
 0007:0003EBE3       aInfranommsdu_2
 0007:0003EBF8       aInframeandat_2
 0007:0003EC0E       aInframinphyr_2
 0007:0003EC22       aInfrasbaacbk
 0007:0003EC2F       aWfqbkweight
 0007:0003EC3B       aWfqbeweight
 0007:0003EC47       aWfqviweight
 0007:0003EC53       aWfqvoweight
 0007:0003EC5F       aDelayedtrigger
 0007:0003EC74       aGwowlpattern
 0007:0003EC81       aImplicitqosise
 0007:0003EC96       a19p2mhzpmicclk
 0007:0003ECAC       aBtcexecutionmo
 0007:0003ECBD       aBtcconsbtslott
 0007:0003ECDC       aBtca2dpdhcppro
 0007:0003ECF4       aGenablephyagcl
 0007:0003ED0C       aGapautoshutoff
 0007:0003ED1B       aGftenabled
 0007:0003ED26       aGftresourcereq
 0007:0003ED3E       aGneighborscant
 0007:0003ED57       aGneighborreass
 0007:0003ED71       aGneighborlooku
 0007:0003ED8A       aGneighborscanc
 0007:0003EDA3       a16
 0007:0003EDA7       aGneighborsca_0
 0007:0003EDC3       aGneighborsca_1
 0007:0003EDDF       aGmaxneighborre
 0007:0003EDF4       aGneighborscanr
 0007:0003EE0F       aBurstsizedefin
 0007:0003EE23       aMcastbcastfilt
 0007:0003EE34       aHostarpoffload
 0007:0003EE43       aTsinfoackpolic
 0007:0003EE53       aSingletidrc
 0007:0003EE5F       aGdynamicpspoll
 0007:0003EE73       aGtelescopicbea
 0007:0003EE8D       aGstakeepalivep
 0007:0003EEA1       aGaddtswhenacmi
 0007:0003EEB4       aGvalidatescanl
 0007:0003EEC6       aGnulldataapres
 0007:0003EEDD       aGenablebtamp
 0007:0003EEEA       aBtamppreferred
 0007:0003EF00       aBandcapability
 0007:0003EF0F       aEnablebeaconea
 0007:0003EF2C       aWditraceenable
 0007:0003EF3E       aWditraceenab_0
 0007:0003EF50       aWditraceenab_1
 0007:0003EF62       aWditraceenab_2
 0007:0003EF74       aTelescopicbeac
 0007:0003EF98       aTelescopicbe_0
 0007:0003EFC7       aTelescopicbe_1
 0007:0003EFE9       aTelescopicbe_2
 0007:0003F016       aBeaconearlyter
 0007:0003F039       aGapdataavailpo
 0007:0003F052       aGenablecloselo
 0007:0003F063       aGenablebypass1
 0007:0003F074       aGenabledfschnl
 0007:0003F087       aGenabledynamic
 0007:0003F09A       aSme_exitwowlFa
 0007:0003F0C4       aSReturnCodeLd
 0007:0003F0DD       aSme_enterwowlF
 0007:0003F108       aDeletedPattern
 0007:0003F128       aTryingToAddDup
 0007:0003F157       aSMalformedPatt
 0007:0003F17C       aSInvalidLength
 0007:0003F1A1       aSMalformedPa_0
 0007:0003F1C6       aSMalformedPa_1
 0007:0003F1EC       aSKmallocFail_0
 0007:0003F200       aSme_wowladdbca
 0007:0003F235       aSUcpatetrnid0x
 0007:0003F24C       aSUcpatternbyte
 0007:0003F26B       aSUcpatternsize
 0007:0003F284       aSUcpatternmask
 0007:0003F2A1       aSPattern
 0007:0003F2AF       a02x_1
 0007:0003F2B5       aSPatternmask
 0007:0003F2C7       a02x_2
 0007:0003F2CC       aSCannotAddAnym
 0007:0003F2FB       aInnavHddBssids
 0007:0003F318       aInnavHddMeasur
 0007:0003F335       aInnavHddRepeti
 0007:0003F352       aInnavHddTimeIn
 0007:0003F36F       aInSMeasurement
 0007:0003F38D       aNumberOfBssids
 0007:0003F3B3       aNumberOfBssi_0
 0007:0003F3DA       aNumberOfRttRss
 0007:0003F42E       aModeCurrentlyN
 0007:0003F44C       aTheMeasurement
 0007:0003F48C       aInnavHddBssid0
 0007:0003F4C1       aQcomInnavMeasF
 0007:0003F4D9       aSMeasurementDF
 0007:0003F4F4       aQcomInnavMeasI
 0007:0003F512       aSMeasurement_0
 0007:0003F563       aQcomInnavMeasS
 0007:0003F57C       aSFailedInSme_g
 0007:0003F5A9       aInnavHddRspBss
 0007:0003F5E2       aNumsuccesfulme
 0007:0003F5F9       aInnavHddBssidN
 0007:0003F633       aSPmeasrspNull
 0007:0003F648       aInvalidNumberO
 0007:0003F66B       aPhyrxchain0DPh
 0007:0003F68A       aInvalidIoctl_1
 0007:0003F6A6       aEnterS_4
 0007:0003F6AF       aSFailedToPostM
 0007:0003F6D0       aExitS_3
 0007:0003F6D8       aSFtmHasNotStar
 0007:0003F707       aSPmsgbufIsNull
 0007:0003F71A       aSWlan_ftm_post
 0007:0003F735       aSPttResponseSt
 0007:0003F753       aSInvalidFreque
 0007:0003F76B       aWlan_ftm_priv_
 0007:0003F791       aSPtt_msg_get_t
 0007:0003F7B8       aWlan_ftm_pri_0
 0007:0003F7DE       aWlan_ftm_pri_1
 0007:0003F809       aInvalidIoctl_2
 0007:0003F82D       aChannelDFreqD
 0007:0003F846       aS__0
 0007:0003F84A       aWcnss_0
 0007:0003F850       aX_X
 0007:0003F857       aS_6
 0007:0003F85B       a3_1_0_24p27Htc
 0007:0003F86E       a02x02x02x02x_2
 0007:0003F88C       aWlan_ftm_pri_2
 0007:0003F8B6       aWlan_ftm_pri_3
 0007:0003F8DB       aChainselectSRx
 0007:0003F91F       aTxpowerDTxpktc
 0007:0003F94E       aWlan_ftm_pri_4
 0007:0003F973       aR0DR1D
 0007:0003F981       aWlan_ftm_pri_5
 0007:0003F9A7       aSInvalidRateIn
 0007:0003F9BE       aSReceivedLen_0
 0007:0003F9D5       aSReceivedDat_0
 0007:0003F9EA       aSetMacAddress
 0007:0003F9FB       aMacaddress02x0
 0007:0003FA26       aPmacaddress02x
 0007:0003FA52       aSWlan_ftm_po_0
 0007:0003FA6F       aNv_common_mac_
 0007:0003FA8E       aSWlan_ftm_po_1
 0007:0003FAAD       aWlan_ftm_pri_6
 0007:0003FAD7       aSFtmHasNotSt_0
 0007:0003FB05       aSCannotSetTxra
 0007:0003FB32       aWlan_ftm_pri_7
 0007:0003FB57       aSInvalidSubC_0
 0007:0003FB73       aSInvalidRateSt
 0007:0003FB8B       a0S
 0007:0003FB94       a002x
 0007:0003FB9F       aSNullHhal
 0007:0003FBAD       aSFailedToSto_1
 0007:0003FBC4       a4WlanVosAss_41
 0007:0003FBE7       aHomeAaProje_47
 0007:0003FC68       aPttSocketError
 0007:0003FC97       aSPbufIsNull
 0007:0003FCA7       aHalNvSizeD
 0007:0003FCB8       aSPu8bufIsNull
 0007:0003FCCA       aSUnknownIoct_0
 0007:0003FCDF       aInvalidIoctlAc
 0007:0003FD00       aWlanFtmInvalid
 0007:0003FD3E       aErrorHddVos_ev
 0007:0003FD61       aFailToGetCache
 0007:0003FD87       aNotValidNvFiel
 0007:0003FD9D       aNotValidNvTabl
 0007:0003FDB3       aNotSupportedTa
 0007:0003FDCF       aLastByteOfTheS
 0007:0003FDFB       aNotValidDriver
 0007:0003FE14       aInvalidTableSi
 0007:0003FE2A       aInvalidNvTable
 0007:0003FE56       aHostCommandHan
 0007:0003FE78       aSPadapterIsN_1
 0007:0003FE8C       aSFailedToClo_8
 0007:0003FEAF       aSFailedToClo_9
 0007:0003FEC7       aSFailedToCl_10
 0007:0003FEDF       aSFailedToCl_11
 0007:0003FEF6       aSFailedToCl_12
 0007:0003FF0E       aSFailedToCl_13
 0007:0003FF26       aSFailedToDes_1
 0007:0003FF47       aSFailedToDes_2
 0007:0003FF6E       aSFailedToDes_3
 0007:0003FF92       aSOpeningVoss_0
 0007:0003FFA3       aSTryingToOpe_0
 0007:0003FFCD       aSUnableToIni_0
 0007:0003FFEB       aSUnableToIni_1
 0007:0004000F       aSFailedToIn_10
 0007:0004003F       aSFailedToOpe_3
 0007:00040060       aSFailedToOpe_4
 0007:0004007E       aSFailedToOpe_5
 0007:0004009C       aSFailedToIn_11
 0007:000400C3       aSFailedToOpe_6
 0007:000400DA       aSFailedToOpe_7
 0007:000400F1       aSVos_openFai_3
 0007:00040105       aSHalContextI_1
 0007:0004011D       aWlanD_0
 0007:00040124       aSHdd_open_ad_0
 0007:00040140       aSNl_srv_init_0
 0007:00040157       aSPtt_sock_ac_0
 0007:00040178       aSFailedToCon_0
 0007:0004019F       aSNvTableBuffer
 0007:000401BE       aVosPrestart_0
 0007:000401CB       aFailedAtMacp_0
 0007:000401E2       aFailedToWdaP_0
 0007:000401FA       aSTimeoutOccu_3
 0007:00040224       aSWda_prestar_0
 0007:0004024E       aSStartingLib_0
 0007:00040264       aSMismatchInC_0
 0007:0004027C       aSMacNullCont_0
 0007:00040291       aSVos_prestar_1
 0007:000402A9       aSFailedToSta_6
 0007:000402C9       aSTimeoutOccu_4
 0007:00040304       aSWda_nvdownl_1
 0007:00040336       aSFailedToSta_7
 0007:0004034E       aSFailedToSta_8
 0007:00040366       aSMacCorrectl_0
 0007:00040380       aSTimeoutOccu_5
 0007:000403AF       aSWda_stopRep_0
 0007:000403D5       aWlanDriverIsIn
 0007:00040400       aSFailedToSta_9
 0007:00040426       aFtmStartFailed
 0007:00040437       aFtmStopFailed
 0007:00040447       aSFailedToSt_10
 0007:00040474       aSFailedD
 0007:00040483       aSTxValueIsInva
 0007:0004049B       aSPostingPtt_ms
 0007:000404CA       aSPtt_msg_confi
 0007:000404F2       aWlan_ftm_pri_8
 0007:00040521       aSCannotSetTxif
 0007:0004054D       aSIfsValueIsInv
 0007:00040566       aWlan_ftm_pri_9
 0007:0004058A       aSCannotSetTxpk
 0007:000405B9       aSPktcntValueIs
 0007:000405D4       aWlan_ftm_pr_10
 0007:000405FB       aSPayloadLenIsI
 0007:00040615       aWlan_ftm_pr_11
 0007:0004063C       aSInvalidChanne
 0007:00040658       aChannelD
 0007:00040665       aWlan_ftm_pr_12
 0007:0004068B       aSCannotSetTxpo
 0007:000406B9       aSInvalidTxPowe
 0007:000406CF       aWlan_ftm_pr_13
 0007:000406F5       aSInvalidRx_pkt
 0007:00040714       aWlan_ftm_pr_14
 0007:0004073B       aSRxModeValueIs
 0007:00040758       aWlan_ftm_pr_15
 0007:0004077A       aSInvalidChain
 0007:0004078B       aSCannotSelectC
 0007:000407BA       aWlan_ftm_pr_16
 0007:000407E1       aInvalidIoctl_3
 0007:0004080E       aSRequestBuffer
 0007:0004082A       aSInvalidModule
 0007:00040847       aSFtmHasAlready
 0007:00040868       aSFailedToSt_11
 0007:00040888       aSFtmHasNotSt_1
 0007:000408A2       aSFtmCommandPen
 0007:000408C8       aSTempMemAllocF
 0007:000408E2       aHostCommandH_0
 0007:00040903       aSFtmCommandFai
 0007:0004091C       aSVos_wait_sing
 0007:0004093D       aSCommandNotSup
 0007:0004095A       aStopped_0
 0007:00040962       aStarted
 0007:0004096A       aDisable_1
 0007:00040972       a11bGN
 0007:0004097A       a11gN
 0007:00040980       a11b
 0007:00040984       aNone
 0007:00040989       aR0R1
 0007:0004098F       aR0
 0007:00040992       aR1
 0007:00040995       aT0
 0007:00040998       aR0R1T0
 0007:000409A1       aSDIw_softap_se
 0007:000409F5       a6WlanIw_softap
 0007:00040A53       aRufDRmfDRbfDRu
 0007:00040AA7       aEnterS_5
 0007:00040AB0       aData02x02x02x0
 0007:00040AD3       aExitS_4
 0007:00040ADB       aSDGet_wpspbcpr
 0007:00040B00       aSDMacaddress02
 0007:00040B34       aErrorHddVosWai
 0007:00040B63       a4WlanVosAss_42
 0007:00040B86       aHomeAaProje_48
 0007:00040C0B       aVosUnableToAll
 0007:00040C2A       aSWpsIeType0xXI
 0007:00040C52       aSSetWpsBeaconI
 0007:00040C6F       aWpsVersionD
 0007:00040C7F       aWpsStateD
 0007:00040C8D       aApSetupLockD
 0007:00040C9F       aSelectedRegist
 0007:00040CB5       aPasswordIdX
 0007:00040CC6       aSelectRegistra
 0007:00040CEA       aRfBandD
 0007:00040CF7       aUnknownTlvInWp
 0007:00040D12       aSWpsIeMismatch
 0007:00040D28       aSSetUnknownI_0
 0007:00040D3D       aSSetWpsProbeRs
 0007:00040D5D       aPasswordIdD
 0007:00040D6E       aConfigMethodsD
 0007:00040D82       aPrimaryDevCate
 0007:00040D9C       aPrimaryDevOui0
 0007:00040DC5       aPrimaryDevSubC
 0007:00040DE3       aSDGetgen_ieIoc
 0007:00040DFC       aSDRsnIeOfDByte
 0007:00040E22       aCounterMeasu_1
 0007:00040E3D       aCounterMeasu_2
 0007:00040E58       aSCalledWithU_0
 0007:00040E80       aSSendingWlan_0
 0007:00040EA1       aSTakeDownAmp_0
 0007:00040EB7       aSDInvalidGetpa
 0007:00040EDB       aSDInvalidSetma
 0007:00040F00       aSDSetmaxassocV
 0007:00040F61       aSDSetmaxassocF
 0007:00040F88       aSDInvalidSetpa
 0007:00040FB5       aSUprivacyD
 0007:00040FC6       aSEncryptiontyp
 0007:00040FF7       a02x_3
 0007:00040FFE       a4dWlansap_setk
 0007:00041030       aSLogpInProgr_2
 0007:0004104F       a6WlanS_1
 0007:0004105C       aSFailedDev_a_0
 0007:00041075       aSFailedRegis_1
 0007:00041092       aSFailedRegis_2
 0007:000410AD       aErrorHostapdHd
 0007:000410D9       aSHdd_softap_in
 0007:000410FA       aSSapModifyAclA
 0007:00041141       aSDModifyAclFai
 0007:0004115C       aSDErrorHahandl
 0007:00041182       aSDSPairwiseC_0
 0007:000411AF       aSDSAuthentic_0
 0007:000411DB       aSDSWpaUnicas_0
 0007:0004120B       aSDSWpaAuthen_0
 0007:0004123B       aSDSGen_ie0D
 0007:00041256       aSDSCsrAuthtype
 0007:000412A0       a6WlanSCsrAutht
 0007:000412EB       aSDEncryptionty
 0007:0004131E       aSDSoftapMacadd
 0007:00041359       aSDSsidS_0
 0007:0004136B       aSDBeaconintDCh
 0007:0004138D       aSDHw_modeX
 0007:000413A1       aSDPrivacyDAuth
 0007:000413C2       aSDRsnWpalenD
 0007:000413DB       aSDUapsdD
 0007:000413EF       aSDProtenabledD
 0007:0004141F       aSDDisableintra
 0007:00041440       a6WlanSoftapMac
 0007:0004147C       a6WlanSsidS
 0007:0004148F       a6WlanBeaconint
 0007:000414B2       a6WlanHw_modeX
 0007:000414C8       a6WlanPrivacyDA
 0007:000414EA       a6WlanRsnWpalen
 0007:00041502       a6WlanUapsdD
 0007:00041517       a6WlanProtenabl
 0007:00041548       a6WlanDisablein
 0007:0004156A       aSDSapStartBssF
 0007:00041586       aSDWaitingForSc
 0007:000415C7       aAutoShut_indic
 0007:000415E7       aSDShuttingDown
 0007:0004161C       aHomeAaProje_49
 0007:00041675       a6Netif_stop__4
 0007:000416B6       aEsap_status_su
 0007:000416CA       aEsap_status_fa
 0007:000416DE       aSDBssConfigure
 0007:00041721       a6WlanBssConfig
 0007:00041764       aErrorStartbssE
 0007:00041784       aSDFailedToInit
 0007:000417B0       aSWlansap_setke
 0007:000417CD       aSWlansap_set_0
 0007:000417F1       aSoftap_enabled
 0007:00041800       aSDBssStopStatu
 0007:0004181E       a6WlanBssStopSt
 0007:0004183D       aSDSetKeyConfig
 0007:00041866       aSDEventReceive
 0007:00041881       aEsap_sta_del_0
 0007:00041898       aMicMac02x02x_0
 0007:000418BF       aAssociated02x0
 0007:000418EA       a6WlanAssocia_0
 0007:0004191E       aSDFailedToSt_1
 0007:0004194B       aSDAssocIeLengt
 0007:00041972       aDisassociated0
 0007:000419A0       a6WlanDisassoci
 0007:000419D7       aUserInitiatedD
 0007:000419F6       aMacInitiatedDi
 0007:00041A14       aErrorHddFailed
 0007:00041A38       aWpsPbcProbeReq
 0007:00041A69       aAssociatedStaN
 0007:00041ABA       aJoin_unknown_s
 0007:00041AE9       aS_7
 0007:00041AED       aPeer02x02x02x0
 0007:00041B9A       aSapMessageIsNo
 0007:00041BB6       aSDBssStopSta_0
 0007:00041BD3       aStopBss_respon
 0007:00041BE5       aMlmewpspbcprob
 0007:00041C03       aSTransmissio_0
 0007:00041C25       aSEnter_0
 0007:00041C2F       aSFailedToFin_0
 0007:00041C50       aSStationMacA_0
 0007:00041C7A       aSChangeStation
 0007:00041CA1       aSExit_0
 0007:00041CAA       aSNullParamsB_3
 0007:00041CC7       aSFailureExtr_0
 0007:00041CEF       aSHddAdapterC_2
 0007:00041D0F       aSCouldNotRet_0
 0007:00041D3B       aSFailureInIn_0
 0007:00041D69       aSNullParamsB_4
 0007:00041D86       a4WlanVosAss_43
 0007:00041DA9       aHomeAaProje_50
 0007:00041E33       aSInvalidStaidD
 0007:00041E55       aSUnregisteredS
 0007:00041E7C       aSInvalidAcDP_0
 0007:00041E9B       aSAcDPassedByTl
 0007:00041EB2       aSVossInLowRe_0
 0007:00041ED4       aSAcDHasPackets
 0007:00041EF2       aSErrorInDeQu_0
 0007:00041F28       aSErrorAttach_0
 0007:00041F40       aSVosPacketRe_0
 0007:00041F68       aSVosPacketIsEa
 0007:00041F87       aSTxQueueReEnab
 0007:00041F9F       aSValidVosPktRe
 0007:00041FC0       aSDeinitStation
 0007:00041FE1       aWlantl_clearst
 0007:00042027       aHdd_softap_dei
 0007:00042070       aSFailedToDereg
 0007:00042096       aSFailedToDer_0
 0007:000420B9       aSReinitStation
 0007:000420CF       aCleanUpOldEntr
 0007:000420ED       aRegisterStatio
 0007:00042100       aStationMac02x0
 0007:0004212A       aBssidforibss02
 0007:00042155       aSoftapSelfmac0
 0007:00042182       aHddSoftapRegis
 0007:000421A8       aSoftapWlantl_r
 0007:000421F4       aOpenSharedAu_1
 0007:00042241       aUlaAuthStaid_1
 0007:00042282       aTurnOnMonitorT
 0007:0004229F       aSStaIsUnregist
 0007:000422B7       aSClassifiedAsA
 0007:000422D5       aSStationDAcDQu
 0007:00042300       aSInsertTxQue_0
 0007:00042327       aSFailedToSig_1
 0007:00042353       aSExit_1
 0007:0004235E       aSFailureWalk_0
 0007:0004237F       aErrorInvalidNe
 0007:00042399       aSSkbAllocation
 0007:000423B2       aSSendOnePacket
 0007:000423D2       a3SkbPDataPEn_0
 0007:0004240F       aHomeAaProje_51
 0007:00042492       aCorruptSkbDe_0
 0007:000424A9       aSFailureRetu_0
 0007:000424C7       aSBcMcPacket
 0007:000424D9       aSStationNotCon
 0007:000424F7       aSNonEapolPacke
 0007:00042527       aHomeAaProje_52
 0007:00042580       a6Netif_stop__5
 0007:000425C1       aSTxQueueFull_0
 0007:000425F1       aSWlanBeingRe_1
 0007:00042616       aSWlanIsAlready
 0007:0004263B       aSGlobalVos_sch
 0007:00042660       aSResumingMcRxA
 0007:00042682       aSWlanSuspended
 0007:000426A8       aSHddContextI_3
 0007:000426C0       aSWlanIsAlrea_0
 0007:000426E7       aSSuspendingMcR
 0007:0004270C       aSNotAbleToSusp
 0007:0004273F       aSNotAbleToSu_0
 0007:00042772       aSNotAbleToSu_1
 0007:000427A5       aSNotAbleToSu_2
 0007:000427C2       aBsl_iocontrolN
 0007:000427E0       aBsl_destructNo
 0007:000427FD       aBslreleasephyc
 0007:0004280F       a4WlanVosAss_44
 0007:00042832       aHomeAaProje_53
 0007:000428B3       aBsl_close
 0007:000428BD       aBsl_closeNullH
 0007:000428DC       aBsl_closeSIsNo
 0007:000428F6       aBslreleaseclie
 0007:0004290B       aInvalidBslPoin
 0007:00042939       aCanTUnregister
 0007:00042958       aSWillFlushAllT
 0007:00042976       aInvalidBslPo_0
 0007:000429A0       aInvalidHddAdap
 0007:000429D6       aAlreadyRegiste
 0007:000429F8       aCanTAllocateHc
 0007:00042A2D       aUnableToRegist
 0007:00042A54       aSSkbIsBadIP
 0007:00042A67       aSCountSkbLenD
 0007:00042A7F       aSSkbIsEmpty
 0007:00042A90       aSFrameForUnkno
 0007:00042ABD       aSPctxIsBadIP
 0007:00042AD1       aSHciAclDataTxS
 0007:00042AED       aBslprocessacld
 0007:00042B02       aBslprocessac_0
 0007:00042B44       aBslprocessac_1
 0007:00042B81       aSHciCommand
 0007:00042B91       aSUnableToAll_4
 0007:00042BB0       aSSchedulingW_0
 0007:00042BF2       aSHciinterfacep
 0007:00042C3C       aSUnknownType
 0007:00042C4D       aBslfindandinit
 0007:00042C63       aBslfindandin_0
 0007:00042CB0       aWlanbap_even_0
 0007:00042CCB       aWlanbap_eventc
 0007:00042CF7       aPctxIsNullInS
 0007:00042D0A       aWlanbap_even_1
 0007:00042D3F       aWlanbap_even_2
 0007:00042D88       aWlanbap_even_3
 0007:00042DCF       aWlanbap_even_4
 0007:00042E1A       aWlanbap_even_5
 0007:00042E6C       aWlanbap_even_6
 0007:00042EB9       aWlanbap_even_7
 0007:00042F00       aWlanbap_even_8
 0007:00042F50       aWlanbap_even_9
 0007:00042F8E       aWlanbap_eve_10
 0007:00042FCB       aWlanbap_eve_11
 0007:00043017       aWlanbap_eve_12
 0007:00043039       aWlanbap_eve_13
 0007:00043067       aSFailureExtr_1
 0007:000430A0       aBslprocesshcic
 0007:000430C7       aBslprocesshc_0
 0007:00043100       aBslprocesshc_1
 0007:00043152       aCreatephysical
 0007:0004317C       aBslprocesshc_2
 0007:000431AE       aBslprocesshc_3
 0007:000431F0       aBslprocesshc_4
 0007:00043227       aBslprocesshc_5
 0007:00043279       aAcceptphysical
 0007:000432A3       aBslprocesshc_6
 0007:000432E5       aBslprocesshc_7
 0007:00043327       aBslprocesshc_8
 0007:0004337D       aBslprocesshc_9
 0007:000433C3       aBslprocessh_10
 0007:00043414       aBslprocessh_11
 0007:00043455       aBslprocessh_12
 0007:000434A6       aBslprocessh_13
 0007:000434E7       aBslprocessh_14
 0007:0004353C       aBslprocessh_15
 0007:00043581       aBslprocessh_16
 0007:000435D2       aBslprocessh_17
 0007:00043613       aBslprocessh_18
 0007:00043661       aBslprocessh_19
 0007:0004369F       aBslprocessh_20
 0007:000436D4       aBslprocessh_21
 0007:00043720       aBslprocessh_22
 0007:0004375C       aBslprocessh_23
 0007:0004379F       aSHciFlushComma
 0007:000437CB       aBslprocessh_24
 0007:00043800       aBslprocessh_25
 0007:0004384C       aSHciFlushCom_0
 0007:00043888       aBslprocessh_26
 0007:000438C5       aBslprocessh_27
 0007:00043910       aBslprocessh_28
 0007:0004396D       aBslprocessh_29
 0007:000439B9       aBslprocessh_30
 0007:00043A14       aBslprocessh_31
 0007:00043A5E       aBslprocessh_32
 0007:00043ABA       aBslprocessh_33
 0007:00043B05       aBslprocessh_34
 0007:00043B51       aBslprocessh_35
 0007:00043BB0       aBslprocessh_36
 0007:00043BFD       aBslprocessh_37
 0007:00043C50       aBslprocessh_38
 0007:00043C91       aBslprocessh_39
 0007:00043CD1       aBslprocessh_40
 0007:00043D22       aBslprocessh_41
 0007:00043D63       aBslprocessh_42
 0007:00043DA6       aBslprocessh_43
 0007:00043DFB       aBslprocessh_44
 0007:00043E3F       aBslprocessh_45
 0007:00043E9B       aBslprocessh_46
 0007:00043EE5       aBslprocessh_47
 0007:00043F42       aBslprocessh_48
 0007:00043F8D       aBslprocessh_49
 0007:00043FDF       aBslprocessh_50
 0007:00044020       aBslprocessh_51
 0007:00044064       aBslprocessh_52
 0007:000440AA       aBslprocessh_53
 0007:000440E8       aBslprocessh_54
 0007:00044129       aBslprocessh_55
 0007:00044182       aBslprocessh_56
 0007:000441CA       aBslprocessh_57
 0007:00044224       aBslprocessh_58
 0007:0004426D       aBslprocessh_59
 0007:000442BC       aBslprocessh_60
 0007:000442FB       aBslprocessh_61
 0007:00044342       aBslprocessh_62
 0007:0004437A       aBslprocessh_63
 0007:000443D2       aBslprocessh_64
 0007:00044412       aBslprocessh_65
 0007:00044464       aBslprocessh_66
 0007:000444A5       aBslprocessh_67
 0007:000444E5       aBslprocessh_68
 0007:00044532       aBslprocessh_69
 0007:00044586       aBslprocessh_70
 0007:000445C9       aBslprocessh_71
 0007:00044619       aBslprocessh_72
 0007:00044659       aBslprocessh_73
 0007:000446AA       aBslprocessh_74
 0007:000446EB       aBslprocessh_75
 0007:0004472D       aBslprocessh_76
 0007:0004476F       aSEnteredCont_0
 0007:00044787       aSPctxAndHdevNo
 0007:000447B2       aSFreeingSkbP
 0007:000447C5       aWlanbap_txco_0
 0007:000447F4       aWlanbap_txco_1
 0007:00044810       aSFailureExtr_2
 0007:00044838       aSSendingUpNumb
 0007:00044878       aWlanbap_star_0
 0007:00044889       aWlanbap_star_1
 0007:000448A4       aWlanbap_star_2
 0007:000448DF       aWlanbap_stafet
 0007:000448F6       aWlanbap_staf_0
 0007:00044917       aWlanbap_staf_1
 0007:00044959       aSPvospktVos_pk
 0007:00044976       aWlanbap_staf_2
 0007:000449B6       aSVosdatabuffVo
 0007:000449D8       aBsl_open
 0007:000449E1       aBsl_openAlread
 0007:000449FB       aBslfindandin_1
 0007:00044A14       aSBslclientctxD
 0007:00044A31       aBslfindandin_2
 0007:00044A72       aSWlan_getnewhn
 0007:00044A8C       aSWlan_bapregsi
 0007:00044AB3       aBslfindandin_3
 0007:00044AD6       aWlanbap_setcon
 0007:00044AF3       aWlanbap_setc_0
 0007:00044B1B       aWlanbap_setc_1
 0007:00044B43       aBsl_init
 0007:00044B4C       aInvalidBapPo_7
 0007:00044B7A       aDidnTRegisterA
 0007:00044B98       aDidnTRegiste_0
 0007:00044BDD       aCanTAllocate_0
 0007:00044C03       aEnterS_6
 0007:00044C0C       aSReceivedCiphe
 0007:00044C36       aSUnsupportedCi
 0007:00044C55       aSSettingUnicas
 0007:00044C7B       aSSettingMcastC
 0007:00044C9F       aInvalidIesEi_1
 0007:00044CD2       aSDevice_modeD
 0007:00044CE8       aExitS_5
 0007:00044CF0       aSIe0xXLenD_0
 0007:00044D07       aSInvalidWpaIe
 0007:00044D1A       aSSetWpsIeLenD
 0007:00044D30       aCannotAccomada
 0007:00044D68       a4WlanVosAss_45
 0007:00044D8B       aHomeAaProje_54
 0007:00044E11       aSSetWpaIeLen_0
 0007:00044E28       aPo_5
 0007:00044E2D       aSSetP2pIeLenD
 0007:00044E43       aCannotAccoma_0
 0007:00044E7A       aSSetRsnIeLen_0
 0007:00044E90       aWapiModeIsLu
 0007:00044EA4       aInvalidAkmsuit
 0007:00044EBC       aSWapiAuthMod_1
 0007:00044EDA       aSWapiAuthMod_2
 0007:00044F00       aSSetUnknownI_1
 0007:00044F15       aSSetWpaVersion
 0007:00044F2F       aSSetAuthentica
 0007:00044F53       aSSetAuthenti_0
 0007:00044F79       aSUnsupportedAu
 0007:00044FA0       aSFailedToSetAu
 0007:00044FC7       aSSettingKeyMgm
 0007:00044FE8       aSSettingKeyM_0
 0007:0004500B       aSUnsupportedKe
 0007:0004502C       aSFailedToSetAk
 0007:00045048       aSFailedToSetUn
 0007:0004506E       aSFailedToSetMc
 0007:00045092       aSFailedToParse
 0007:000450B5       aSDynamicWepNot
 0007:000450D3       aSSettingDefaul
 0007:0004510A       aSErrorDataStor
 0007:0004512D       aSBssTypeIsNotS
 0007:0004514D       aSWrongSsidLen
 0007:00045160       a6WlanConnectin
 0007:00045197       a6WlanTryingToC
 0007:000451C9       aSSettingWapi_0
 0007:000451FF       aSWapiAuthTyp_0
 0007:0004521B       aSWapiAuthTyp_1
 0007:00045238       aSWapiPairwis_0
 0007:00045260       aSNoValidRoamPr
 0007:0004527A       a6WlanConnectTo
 0007:000452CB       aSFailedToSetSe
 0007:000452ED       a6WlanConnect_0
 0007:00045328       aSConnectFailed
 0007:0004533B       aSNotScanningOn
 0007:00045360       aSMscanpendin_1
 0007:00045379       aSLogpInProgr_3
 0007:00045398       aScanRequestFor
 0007:000453B3       aMemoryAllocF_0
 0007:000453D7       aSsidNumberDS_0
 0007:000453EB       aSThisIsAP2pSea
 0007:00045404       aSSme_scanreq_2
 0007:0004542A       aSIeOfBssDescri
 0007:0004544C       aSCfg80211_info
 0007:00045470       aSRoamprofile_p
 0007:00045492       aSCalledWithH_0
 0007:000454E2       aSCalledWithM_0
 0007:00045528       aSNoScanResult
 0007:0004553C       aSNullReturnedB
 0007:00045566       a6WlanGetNullBs
 0007:00045585       aSNoScanResul_0
 0007:00045598       aRequestIsBecam
 0007:000455B0       aSDevice_modeDF
 0007:000455D2       aSChannelDIsO_0
 0007:00045609       aSFailedToGetVa
 0007:0004562F       aSInvalidChan_0
 0007:0004564A       aSSetChannelToD
 0007:00045676       aSIbssAssociate
 0007:000456A2       aSSetChannelToA
 0007:000456DA       aSInvalidDevice
 0007:0004570E       aSInterfaceType
 0007:00045735       aSIbssJoinIsCal
 0007:00045766       aSNoValidChanne
 0007:00045780       aSNotValidChann
 0007:00045799       aSSetChannelD
 0007:000457AC       aSNotValidCha_0
 0007:000457C6       aSFailedToPar_0
 0007:000457E5       aSFailedToSet_2
 0007:0004580B       aSDevice_mode_0
 0007:00045820       aSSettingInterf
 0007:0004584D       aSSettingInte_0
 0007:00045871       aP2pgo
 0007:00045877       aSoftap
 0007:0004587E       aSSettingInte_1
 0007:0004589F       aSErrorInitiali
 0007:000458C2       aSErrorWireless
 0007:000458E6       aSUnsupportedIn
 0007:00045905       aSDevice_modeDK
 0007:0004592B       aSInvalidKeyInd
 0007:00045944       aSDefaultTxKeyI
 0007:00045960       aSSme_roamsetke
 0007:00045987       aSWapiKeyLength
 0007:000459A3       aSWapiKeyDataD0
 0007:000459BE       a4dSme_roamse_1
 0007:00045A06       aSWiphyRegister
 0007:00045A20       aSWiphyInitFail
 0007:00045A36       aSAdapterIsNull
 0007:00045A4B       aSNotInStationC
 0007:00045A67       aSCcmcfgsetintF
 0007:00045A90       aSSetTxPowerLev
 0007:00045AAE       aSInvalidRtsThr
 0007:00045AD2       aSCcmcfgsetin_0
 0007:00045B06       aSSetRtsThresho
 0007:00045B20       aSInvalidFrag_t
 0007:00045B45       aSCcmcfgsetin_1
 0007:00045B7A       aSSetFragThresh
 0007:00045B95       aSCcmcfgsetin_2
 0007:00045BC6       aSSetLongRetryC
 0007:00045BE3       a6WlanDisconn_3
 0007:00045C14       aSDisconnectCal
 0007:00045C3E       aSCsrroamdiscon
 0007:00045C6A       aHomeAaProje_55
 0007:00045CC3       a6Netif_stop__6
 0007:00045D04       aSNoValidRoam_0
 0007:00045D1E       aSNotAssociated
 0007:00045D48       aSStationMacA_1
 0007:00045D72       aSHddAdapterC_3
 0007:00045D92       aErrorHddVosW_0
 0007:00045DC1       aSErrorStopping
 0007:00045DDF       aCouldNotPas_25
 0007:00045E1B       aCouldNotPas_26
 0007:00045E53       aPconfigDtim_pe
 0007:00045E73       aSDSCsrAuthty_0
 0007:00045EBD       aAclTypeDNoDeny
 0007:00045EDD       aAclTypeDNoAcce
 0007:00045EFF       aPo_6
 0007:00045F04       aWpsIeP2pIeWfdI
 0007:00045F35       aWpsIeP2pieLeng
 0007:00045F5B       aCouldNotPas_27
 0007:00045F96       aCouldNotPas_28
 0007:00045FD1       aCouldNotPas_29
 0007:00046009       aCouldNotPas_30
 0007:00046042       aCouldNotPas_31
 0007:0004607B       aCouldNotPas_32
 0007:000460B2       aSNoProbeRespon
 0007:000460E2       aCouldNotPas_33
 0007:00046119       aCouldNotPas_34
 0007:00046150       aSNoAssocRespon
 0007:00046180       aSDSoftapMaca_0
 0007:000461BB       aSDSsidS_1
 0007:000461CD       aSDBeaconintD_0
 0007:000461EF       aSDHw_modeX_0
 0007:00046203       aSDPrivacyDAu_0
 0007:00046224       aSDRsnWpalenD_0
 0007:0004623D       aSDUapsdD_0
 0007:00046251       aSDProtenable_0
 0007:00046281       aSDSapNotAbleTo
 0007:000462A4       aBssAlreadyStar
 0007:000462CD       aSDSapStartBs_0
 0007:000462E9       aSDWaitingFor_0
 0007:0004632A       aSErrorAllocati
 0007:00046352       aDeviceModeD
 0007:00046362       aSErrorAlloca_0
 0007:00046389       aSCalledWithKey
 0007:000463B8       aSUnsupported_0
 0007:000463D8       aSEncryptionTyp
 0007:000463EF       a4dWlansap_se_0
 0007:00046421       aSIbssNegotiate
 0007:0004644A       aSBssNegotiated
 0007:00046472       aSNoPeermacFoun
 0007:00046487       aSSetKeyForPeer
 0007:000464C5       a4dWlan_hdd_c_0
 0007:000464FD       aSSetKeyPeermac
 0007:00046537       aSSme_roamset_0
 0007:00046573       aSFrameTypeDFra
 0007:0004659A       aSDFrameLengthI
 0007:000465BF       aSDIndicateFram
 0007:000465ED       aSDIndicateFr_0
 0007:00046616       a4WlanVosAss_46
 0007:00046639       aHomeAaProje_56
 0007:000466BA       aSDUnableToAl_9
 0007:000466D9       aHddDInsufficie
 0007:00046716       a3SkbPDataPEn_1
 0007:00046753       aHomeAaProje_57
 0007:000467D6       aCorruptSkbDe_1
 0007:000467ED       aSDSuccess
 0007:000467FD       aSDFailedD
 0007:0004680F       aSDIndicateFr_1
 0007:0004683D       aEnterS_7
 0007:00046846       aSDevice_mode_1
 0007:0004685B       aExitS_6
 0007:00046863       aSHdd_open_ad_1
 0007:0004687F       aSendActionCnfA
 0007:000468A5       aNotAbleToGetMo
 0007:000468C5       aSDNotAbleToPul
 0007:000468EF       aSDNotAbleToPus
 0007:00046917       aSDNoHeadroomFo
 0007:0004693B       aChanHw_val0xXC
 0007:0004697C       aSAlreadyOneRem
 0007:000469A6       aSWlanLoadUnloa
 0007:000469CA       aSNotAbleToA_11
 0007:000469FE       aSWlansap_remai
 0007:00046A28       aSWlansap_regis
 0007:00046A54       aSDeauthDisasso
 0007:00046A97       aActionFrameTxR
 0007:00046AAF       aNotAbleToCompl
 0007:00046AF4       aSSme_sendactio
 0007:00046B15       aSWlansap_sen_0
 0007:00046B3A       aCancelRemainOn
 0007:00046B57       aSNoRemainOnCha
 0007:00046B94       aSInvalidDevi_0
 0007:00046BB1       aReadyOnChanInd
 0007:00046BC3       aSNoPendingRema
 0007:00046BEC       aSNoRemOnChanne
 0007:00046C24       aReceivedRemain
 0007:00046C43       aSWeNeedToRecei
 0007:00046C7B       aNlinkNetlink_b
 0007:00046CA4       aNlinkNl_srv_un
 0007:00046CD4       aNlinkNl_srv_re
 0007:00046D02       aNlinkNetlink_u
 0007:00046D36       aNlinkNetlink_k
 0007:00046D5A       aNlinkInvalidNe
 0007:00046DA9       aNlinkReceivedI
 0007:00046DD2       aNlinkReceive_0
 0007:00046DFB       aNlinkReceivedN
 0007:00046E27       aNlinkReceive_1
 0007:00046E48       aNlinkNoHandler
 0007:00046E71       aBtcAlloc_skbFa
 0007:00046E88       aWifiUnassociat
 0007:00046EBA       aNoMsgForAfhWil
 0007:00046ED6       aNewWifiChannel
 0007:00046F09       aNewAmpChannelD
 0007:00046F3B       aBtcAttemptToSe
 0007:00046F6A       aBtcReceivedPro
 0007:00046F90       aBtcReceivedBlu
 0007:00046FBA       aBtcSizeMismatc
 0007:00046FDF       aBtcReceivedInv
 0007:00047004       aSInvalidRadioI
 0007:0004701F       aSDev_alloc_skb
 0007:0004704C       aSSendingMsgTyp
 0007:00047074       aSErrorSendingA
 0007:000470A6       aSReceivedAni_n
 0007:000470D0       aSReceivedAni_m
 0007:000470F9       aSReceivedUnkno
 0007:0004711E       aSReceivedAni_0
 0007:00047146       aSAniMsg0xXInva
 0007:00047170       aSPtt_msg_read_
 0007:00047195       aSReadRegister0
 0007:000471BB       aSPtt_msg_write
 0007:000471F6       aSWriteRegister
 0007:0004722D       aSPtt_msg_rea_0
 0007:00047265       aSMemoryReadFai
 0007:0004728D       aSPtt_msg_dbg_w
 0007:000472CA       aSMemoryWriteFa
 0007:000472F8       aSPtt_msg_log_d
 0007:00047335       aSUnknownAniMsg
 0007:00047360       aSUnknownNlMsg0
 0007:0004737B       aTxcompleteTime
 0007:00047395       aThereIsNoReque
 0007:000473D8       aS_8
 0007:000473E4       aSEntered_0
 0007:000473F0       aSInvokedWith_0
 0007:00047413       a4WlanVosAss_47
 0007:00047436       aHomeAaProje_58
 0007:000474C5       aSInvalidWdaCon
 0007:000474DD       aSPwdaparamsRec
 0007:000474FA       aWda_receivefil
 0007:0004752B       aWda_receivef_0
 0007:0004755A       aWda_8023multic
 0007:00047584       aWda_keepaliver
 0007:000475A6       aWda_hostoffloa
 0007:000475CA       aWda_rembeaconf
 0007:000475F2       aSProcessWlanRe
 0007:00047614       aSRxpConfigFilt
 0007:00047634       aWda_updateuaps
 0007:0004765E       aSCfgDConfigFai
 0007:0004767C       aUnableToDest_0
 0007:000476A8       aUnableToDest_1
 0007:000476CC       aSInvokedWith_1
 0007:000476EA       aSWdawdiapimsgp
 0007:0004770B       aErrorInWdaStop
 0007:0004771D       aVosEventDestro
 0007:00047745       aErrorInWdaClos
 0007:00047759       aS_9
 0007:00047765       aSVosMemAllocFa
 0007:0004777F       aSWdamsgparamOr
 0007:000477B0       aFailureInSetPo
 0007:000477EE       aUpdateScanPara
 0007:000478AF       aUpdateScanPa_0
 0007:000478D2       aFailureInUpdat
 0007:00047911       aFailureInSetRs
 0007:0004794E       aSetLinkStateCa
 0007:00047984       aFailureInSetPn
 0007:000479B9       aSPwdaIsNull
 0007:000479C9       aInconsistentSt
 0007:000479E9       aFailureInTrigg
 0007:00047A28       aThereIsNoTidFo
 0007:00047A4A       aBaActivityTime
 0007:00047A69       aBaActivityTi_0
 0007:00047A89       aSInvokedWith_2
 0007:00047AAD       aWdiStopCallbac
 0007:00047AD0       aSPwdaXOrPfrmbu
 0007:00047AF1       aTxMgmtFrameSub
 0007:00047B16       aSPmacIsNull
 0007:00047B26       aTxCompleteTime
 0007:00047B46       aThereIsAlready
 0007:00047B7C       aVosEventResetF
 0007:00047BA2       aTxCompleteTi_0
 0007:00047BC9       aSendingMgmtFra
 0007:00047BF2       aSStatusDWhenWa
 0007:00047C20       aWdaHalDumpComm
 0007:00047C47       aSTimeoutOccu_6
 0007:00047C78       aSWda_haldumpRe
 0007:00047CA1       aFailureInSetTx
 0007:00047CD9       aSWdawdiapims_0
 0007:00047CFA       aFailureInStart
 0007:00047D3C       aWdaFtmCommandB
 0007:00047D5E       aSInvalidInput0
 0007:00047D7B       aFailureInBtAmp
 0007:00047DBC       aFailureInFlush
 0007:00047DF9       aFailureInNvDow
 0007:00047E39       aFailureInWowlE
 0007:00047E70       aFailureInWow_0
 0007:00047EA8       aFailureInWowlD
 0007:00047EEC       aFailureInWowlA
 0007:00047F2D       aWdaHipD_D_D_D
 0007:00047F43       aWdaDipD_D_D_D
 0007:00047F59       aWdaDmacDDDDDD
 0007:00047F76       aTimeperiodDPac
 0007:00047F92       aFailureInKeepA
 0007:00047FCA       aFailureInHostO
 0007:00048004       aFailureInSet_0
 0007:00048045       aFailureInRemov
 0007:00048087       aFailureInSetBe
 0007:000480C6       aSD_1
 0007:000480CD       aFailureInHostR
 0007:00048106       aPendingReceive
 0007:00048122       aFailureInSD
 0007:00048134       aFailureInConfi
 0007:00048176       aFailureInSetUa
 0007:000481B4       aSInvalidParam
 0007:000481C6       aSVosMemAlloc_0
 0007:000481E2       aFailureInSetPw
 0007:00048220       aFailureInExitU
 0007:00048258       aFailureInEnter
 0007:00048291       aFailureInExitB
 0007:000482C8       aFailureInEnt_0
 0007:000482FF       aFailureInExitI
 0007:00048336       aFailureInEnt_1
 0007:0004836E       aFailureInAddTs
 0007:000483A9       aFailureInSetP2
 0007:000483E5       aFailureInSendP
 0007:0004840E       aFailureInSendB
 0007:00048438       aFailureInUpd_0
 0007:0004847A       aFailureInDelTs
 0007:000484B5       aFailureInDelBa
 0007:000484F0       aFailureInAddBa
 0007:00048533       aFailureInUpd_1
 0007:0004856F       aFailureInSetLi
 0007:000485AB       aSInvokedWith_3
 0007:000485D1       aSWdawdicfgapim
 0007:000485F5       aThereIsNoHalCf
 0007:0004862D       aFailedToCfgG_3
 0007:00048646       aUnableToRetr_6
 0007:00048683       aWepKeyIndexDMa
 0007:000486B1       aSInvokedWith_4
 0007:000486DD       aSConfigparamIs
 0007:000486F4       aFailedToGetVal
 0007:0004871B       aFailedToGetV_0
 0007:0004874E       aFailedToGetV_1
 0007:00048781       aFailedToGetV_2
 0007:000487B3       aFailedToGetV_3
 0007:000487E9       aFailedToGetV_4
 0007:00048814       aFailedToGetV_5
 0007:00048840       aFailedToGetV_6
 0007:0004886A       aFailedToGetV_7
 0007:0004889A       aFailedToGetV_8
 0007:000488CA       aFailedToGetV_9
 0007:000488FD       aFailedToGet_10
 0007:0004892B       aFailedToGet_11
 0007:0004895D       aFailedToGet_12
 0007:0004898E       aFailedToGet_13
 0007:000489C6       aFailedToGet_14
 0007:000489FD       aFailedToGet_15
 0007:00048A33       aFailedToGet_16
 0007:00048A69       aFailedToGet_17
 0007:00048A94       aFailedToGet_18
 0007:00048AC5       aFailedToGet_19
 0007:00048AF9       aFailedToGet_20
 0007:00048B2C       aFailedToGet_21
 0007:00048B64       aFailedToGet_22
 0007:00048B9F       aFailedToGet_23
 0007:00048BD9       aFailedToGet_24
 0007:00048C11       aFailedToGet_25
 0007:00048C41       aFailedToGet_26
 0007:00048C7C       aFailedToGet_27
 0007:00048CB1       aFailedToGet_28
 0007:00048CE8       aFailedToGet_29
 0007:00048D24       aFailedToGet_30
 0007:00048D51       aFailedToGet_31
 0007:00048D82       aFailedToGet_32
 0007:00048DAE       aFailedToGet_33
 0007:00048DDC       aFailedToGet_34
 0007:00048E0A       aFailedToGet_35
 0007:00048E38       aFailedToGet_36
 0007:00048E66       aFailedToGet_37
 0007:00048E98       aFailedToGet_38
 0007:00048EC7       aFailedToGet_39
 0007:00048EFD       aFailedToGet_40
 0007:00048F2F       aFailedToGet_41
 0007:00048F6B       aFailedToGet_42
 0007:00048F9B       aFailedToGet_43
 0007:00048FD5       aFailedToGet_44
 0007:00049008       aFailedToGet_45
 0007:00049044       aFailedToGet_46
 0007:00049077       aFailedToGet_47
 0007:000490A9       aDumpingCfgTlv
 0007:000490C7       a02x02x02x02x_3
 0007:000490EF       a02x_4
 0007:00049113       aSLimpostmsgapi
 0007:00049130       aBaTriggerRspWi
 0007:00049156       aReceivedWdi_ha
 0007:00049187       aReceivedWdi_mi
 0007:000491B0       aReceivedWdi_un
 0007:000491E2       aReceivedWdi__0
 0007:00049209       aReceivedWdi_fa
 0007:00049230       aSVosMemAlloc_1
 0007:0004925D       aReceivedWda_be
 0007:00049283       aReceivedWdi_de
 0007:000492A6       aSVosMemAlloc_2
 0007:000492CC       aReceivedWdi_co
 0007:000492EC       aCoexWdaCoexInd
 0007:0004931D       aCompleteIndica
 0007:00049343       aTxCompleteIndi
 0007:00049375       aReceivedWdi_p2
 0007:0004939C       aMemoryAllocati
 0007:000493DA       aReceivedWdi_pr
 0007:00049407       aMemoryAlloca_0
 0007:0004944B       aGetWdi_tx_per_
 0007:00049462       aPostEwni_sme_t
 0007:0004948D       aReceivedUnknow
 0007:000494B3       aFailureInAdd_0
 0007:000494EE       aSPaddbareqpara
 0007:00049511       aFailureInGetSt
 0007:00049548       aFailureInRem_0
 0007:00049584       aFailureInSetBc
 0007:000495C3       aFailureInSetSt
 0007:000495FC       aFailureInRem_1
 0007:00049638       aFailureInSetBs
 0007:00049671       aInvalidPwdapar
 0007:000496A9       aSPwdaparamsIsN
 0007:000496C0       aInvalidOpera_0
 0007:000496E1       aSEndscanparamR
 0007:00049700       aSPwda_scanpara
 0007:00049721       aSWdawdiapims_1
 0007:0004973F       aSUnableToAll_5
 0007:0004975E       aFailureInDelSt
 0007:00049798       aFailureInAddSe
 0007:000497DD       aFailureInDel_0
 0007:00049819       aFailureInDelBs
 0007:0004984A       aFailureInCon_0
 0007:0004987E       aFailureInCon_1
 0007:000498B2       aFailureInProce
 0007:000498F6       aFailureInJoinW
 0007:00049924       aFailureInFinis
 0007:00049959       aFailureInEndSc
 0007:000499B3       aFailureInSta_0
 0007:00049A0F       aSEntered_1
 0007:00049A1C       aInnavWdaCallba
 0007:00049A3A       aWdaResumeDataT
 0007:00049A52       aSFinishscanpar
 0007:00049A6E       aSErrorInResume
 0007:00049A85       aSInvokedWith_5
 0007:00049AAB       aNewVosEventSet
 0007:00049AD4       aLateTlsuspendc
 0007:00049B04       aTlSuspendTimed
 0007:00049B37       aSStatusDWhen_0
 0007:00049B6C       aSVosMemAlloc_3
 0007:00049B85       aErrorInWdaInit
 0007:00049BA8       aFailureInWdiAp
 0007:00049BD1       aErrorObtaining
 0007:00049BED       aUnableToAlloca
 0007:00049C2B       aErrorCannotRet
 0007:00049C6D       aErrorCannotFin
 0007:00049C9D       aSPmsgIsNull
 0007:00049CAD       aSMsgtypeX
 0007:00049CC8       aWdaConfigDownl
 0007:00049CE4       aWda_pwr_save_c
 0007:00049D0B       aWda_enter_imps
 0007:00049D34       aWda_exit_imps_
 0007:00049D5C       aWda_enter_bmps
 0007:00049D85       aWda_exit_bmps_
 0007:00049DAD       aWda_enter_uaps
 0007:00049DD7       aWda_exit_uapsd
 0007:00049E00       aWda_update_uap
 0007:00049E2B       aHandlingMsgTyp
 0007:00049E57       aHandlingMsgT_0
 0007:00049E7C       aHandlingMsgT_1
 0007:00049EA0       aHandlingMsgT_2
 0007:00049EC8       aFailureInWda_p
 0007:00049F0B       aFidDFtDNparams
 0007:00049F29       aProtoDCompFl_1
 0007:00049F41       aDataOffsetDD_1
 0007:00049F5D       aCdataDDDDDD_0
 0007:00049F77       aMdataDDDDDD_0
 0007:00049F91       aFailureInSetfi
 0007:00049FC7       aFailureInWdi_f
 0007:0004A002       aFailureInWda_0
 0007:0004A04C       aSInputTptxcont
 0007:0004A070       aNoHandlingForM
 0007:0004A094       aSInvokedWith_6
 0007:0004A0B9       aSWdi_startFail
 0007:0004A0DA       aSUnableToUnblo
 0007:0004A0FA       aSInvokedFromWr
 0007:0004A11A       aSUnableToPrepa
 0007:0004A13B       aSWdiStartFaile
 0007:0004A150       aSTimeoutOccu_7
 0007:0004A176       aSErrorDWhileWa
 0007:0004A19F       aSWdi_startFa_0
 0007:0004A1C0       aSMacContextIsN
 0007:0004A1D7       aBaActivityChec
 0007:0004A1EF       aUnableToCreate
 0007:0004A212       aTxCompleteChec
 0007:0004A22A       aUnableToCrea_0
 0007:0004A255       aWdiSyncEventIn
 0007:0004A27F       aVosMgmtFrameEv
 0007:0004A2AF       aVosSuspendData
 0007:0004A2E4       aVosWaitOnWdiIn
 0007:0004A319       aWdiInitFailed
 0007:0004A329       aWdaHalps_getrs
 0007:0004A361       aWdaInvalidPara
 0007:0004A39A       aWdaInvalidPa_0
 0007:0004A3D0       aWdaFailedToGet
 0007:0004A3F8       aWdaInvalidPa_1
 0007:0004A42C       aWdaInvalidCont
 0007:0004A459       aWdaInvalidPa_2
 0007:0004A48C       aWdaInvalidCo_0
 0007:0004A4B8       aWdaInvalidWdaC
 0007:0004A4F9       aWdaWalkingPack
 0007:0004A527       a4WlanVosAss_48
 0007:0004A54A       aHomeAaProje_59
 0007:0004A5DC       aWdaPushingAPac
 0007:0004A602       aWdaInvalidPa_3
 0007:0004A639       aWlanTlInvalidR
 0007:0004A67F       aWdaFailedWhile
 0007:0004A6B2       aWlanTlDumpTxMe
 0007:0004A717       aSerializingWda
 0007:0004A73A       aWlanWdaInvalid
 0007:0004A768       aSerializingW_0
 0007:0004A78C       aWdaInvalidPa_4
 0007:0004A7C8       aWdaInvalidCo_1
 0007:0004A7FD       aWlanWdaWda_ds_
 0007:0004A817       aWlanWdaInval_0
 0007:0004A844       aWlanWdaInval_1
 0007:0004A88A       aWdaWda_ds_regi
 0007:0004A89F       aWlanTlTlFail_1
 0007:0004A8CF       aSWdaContextIsN
 0007:0004A8E6       a4WlanVosAss_49
 0007:0004A909       aHomeAaProje_60
 0007:0004A99F       aSDReturningDRo
 0007:0004A9BC       aSDBufferAlloca
 0007:0004A9DF       aSDUnknownMes_1
 0007:0004AA04       aSInvalidInputP
 0007:0004AA23       aSNullInputPoin
 0007:0004AA3B       aWlan_palSInval
 0007:0004AA62       a4WlanVosAss_50
 0007:0004AA85       aHomeAaProje_61
 0007:0004AB20       aSNullPacketPoi
 0007:0004AB39       aSFailed
 0007:0004AB45       aSNullInputPo_0
 0007:0004AB64       aSInvalidPacket
 0007:0004AB7D       aSFailedToAll_3
 0007:0004AB9D       aSInvalidPack_0
 0007:0004ABBA       aSInvalidTrimD
 0007:0004ABD0       aFailedToAllo_2
 0007:0004ABF0       aTryToAllocateU
 0007:0004AC1F       aGetNewRxPalPac
 0007:0004AC3A       aPrepareRxPacke
 0007:0004AC59       aInvalidArgForN
 0007:0004AC77       aSPtimerDCallba
 0007:0004AC9F       aSWrongParamPti
 0007:0004ACBB       aSWrongParamP_0
 0007:0004ACE4       a6WlanSUnknownT
 0007:0004AD11       a6WlanS_2
 0007:0004AD1E       a02x_5
 0007:0004AD24       a6Wlan1Fatal2_0
 0007:0004AD75       aX_1
 0007:0004AD77       a6Wlan2dSSSSS_0
 0007:0004ADCB       aDD2s3s_0
 0007:0004ADDF       aF_0
 0007:0004ADE2       aE_0
 0007:0004ADE5       aW_0
 0007:0004ADE8       aI_0
 0007:0004ADEB       aIh_0
 0007:0004ADEE       aIm_0
 0007:0004ADF1       aIl_0
 0007:0004ADF4       aSLoadingUnload
 0007:0004AE25       aSUnableToAll_6
 0007:0004AE47       aSWpaldeviceini
 0007:0004AE70       aDeleteEventFai
 0007:0004AE84       aCreateEventFai
 0007:0004AE98       aMutexRelease
 0007:0004AEA8       aMutexAcquireFa
 0007:0004AEBD       aMutexDeleteFai
 0007:0004AED1       aMutexInitFail
 0007:0004AEE3       aSFailToPostMsg
 0007:0004AEFB       aSSmsm_change_s
 0007:0004AF18       aSInvokedBefore
 0007:0004AF41       aSRegisterAddre
 0007:0004AF77       aSRegisterAdd_0
 0007:0004AFA6       aSInvokedWithNu
 0007:0004AFC5       aSTxInterruptHa
 0007:0004AFF1       aSRxInterruptHa
 0007:0004B01D       aSUnknownInterr
 0007:0004B03D       aSInvokedAfterS
 0007:0004B066       aSInvalidDevi_1
 0007:0004B079       aSWcnssMemoryMa
 0007:0004B09A       aSWcnssTxIrqUna
 0007:0004B0B7       aSWcnssRxIrqUna
 0007:0004B0D4       aSMemoryAllocat
 0007:0004B0F2       aSMemoryRemapFa
 0007:0004B10B       aSMemoryAddress
 0007:0004B146       aSUnknownInte_0
 0007:0004B160       aWcnss_wlan
 0007:0004B16B       aSRxIrqRequestF
 0007:0004B186       aSEnable_irq_wa
 0007:0004B1AC       aSTxIrqRequestF
 0007:0004B1C7       aSEnable_irq__0
 0007:0004B1ED       a4WlanVosAss_51
 0007:0004B210       aHomeAaProje_62
 0007:0004B2A2       aSInvalidParame
 0007:0004B2B9       aS_10
 0007:0004B2BC       aWdiApiCallBefo
 0007:0004B2F5       aUnknownWdiMess
 0007:0004B30B       aCallingRespons
 0007:0004B344       aOperationDIsNo
 0007:0004B369       aCallingRequest
 0007:0004B3A0       aFatalFailureRe
 0007:0004B3C7       aReceivedWdi__1
 0007:0004B3FA       aUnknownHalStat
 0007:0004B40D       aRemoveStaKeyFa
 0007:0004B437       aSetStaKeyFaile
 0007:0004B45E       aRemoveBssKeyFa
 0007:0004B489       aSetBssKeyFaile
 0007:0004B4B0       aInvalidParam_1
 0007:0004B4D7       aProcessingShut
 0007:0004B4FA       aInvalidParam_2
 0007:0004B528       aProcessingStop
 0007:0004B555       aInvalidParam_3
 0007:0004B582       aProcessingSt_0
 0007:0004B5A1       aInvalidParam_4
 0007:0004B5C8       aProcessUpdScan
 0007:0004B5E9       aUpdScanParamet
 0007:0004B611       aCoexWdiCoexInd
 0007:0004B642       aFinishScanResp
 0007:0004B66B       aFinishScanFail
 0007:0004B692       aEndScanFailedW
 0007:0004B6B7       aSCallBackFunct
 0007:0004B6D6       aStartScanFaile
 0007:0004B6FC       aUnableToAllo_0
 0007:0004B72E       aUnableToGetSen
 0007:0004B75C       aWdiSetPnoEnabl
 0007:0004B78B       aWdiSetPnoSsidD
 0007:0004B7A3       aWdiSetPnoScanT
 0007:0004B7DA       aUnableToGetS_0
 0007:0004B807       aPnoWdiPref_net
 0007:0004B84A       a6WlanPnoWdiPre
 0007:0004B897       aFailedToAllo_3
 0007:0004B8D2       aFailedToAllo_4
 0007:0004B90C       aFailedToAllo_5
 0007:0004B947       aWdiInnavRspSta
 0007:0004B979       aBssidNumDItera
 0007:0004B9AA       aAssociationFor
 0007:0004B9D5       aListIsEmptyRet
 0007:0004B9EC       aDequeueingNewA
 0007:0004BA0F       aInvalidSessi_1
 0007:0004BA36       aSCannotAllocat
 0007:0004BA5E       aSCannotAlloc_0
 0007:0004BA96       aSCannotAlloc_1
 0007:0004BAC0       aSCannotAlloc_2
 0007:0004BAEA       aSCannotAlloc_3
 0007:0004BB19       aQueueingUpNewA
 0007:0004BB3D       aCannotAllocate
 0007:0004BB61       aCannotAlloca_0
 0007:0004BB95       aInvalidParam_5
 0007:0004BBC4       aWdiBusyStateQu
 0007:0004BBE9       aInvalidParam_6
 0007:0004BC1A       aWdiBusyState_0
 0007:0004BC5C       aInvalidParam_7
 0007:0004BC8A       aWdiBusyState_1
 0007:0004BCAE       aInvalidParam_8
 0007:0004BCDD       aWdiBusyState_2
 0007:0004BD02       aWdi_dequeuepen
 0007:0004BD3C       aTimeoutOccurre
 0007:0004BD93       aDeviceErrorDet
 0007:0004BDD3       aSetLinkRespons
 0007:0004BE0A       aAssociationSeq
 0007:0004BE7E       aPostAssocNotAl
 0007:0004BEC8       aAssociationS_0
 0007:0004BF17       aAddStaToTheTab
 0007:0004BF36       aAddBcastStaToT
 0007:0004BF5B       aJoinOnlyAllowe
 0007:0004BFA9       aInvalidRespons
 0007:0004BFD4       aFailedToStopTh
 0007:0004C002       aInvalidParam_9
 0007:0004C02C       aReceivedStartW
 0007:0004C06F       aControlTranspo
 0007:0004C0A5       aInvalidStateOr
 0007:0004C0E3       aPostingEventDI
 0007:0004C111       aUnexpectedEven
 0007:0004C132       aInvalidMessage
 0007:0004C169       aWdi_keepaliver
 0007:0004C1B4       aSendIndication
 0007:0004C1D0       aFailedToSendIn
 0007:0004C20E       aSInvalidPara_0
 0007:0004C234       aUnableToGetS_1
 0007:0004C25E       aFailedToSendMe
 0007:0004C299       aUnableToGetS_2
 0007:0004C2CB       aUnableToGetS_3
 0007:0004C31A       aUnableToGetS_4
 0007:0004C361       aSFailedToAll_4
 0007:0004C3A6       aUnableToGetS_5
 0007:0004C3F3       aUsdataOffDUsse
 0007:0004C412       aOutFidDFtD
 0007:0004C424       aNparamsDCtD
 0007:0004C435       aOutProtoDCompF
 0007:0004C451       aDataOffsetDD_2
 0007:0004C46D       aCdataDDDDDD_1
 0007:0004C487       aMdataDDDDDD_1
 0007:0004C4A1       aUnableToGetS_6
 0007:0004C4E9       aBeginWdiUpdate
 0007:0004C50A       aUnableToGetS_7
 0007:0004C547       aEndUpdateScanP
 0007:0004C562       aSPnoNewVersion
 0007:0004C57A       aSPnoOldVersion
 0007:0004C592       aSFailedToPackR
 0007:0004C5B8       aUnableToGetS_8
 0007:0004C5EC       aUnableToGetS_9
 0007:0004C627       aUnableToGet_10
 0007:0004C667       aUnableToGet_11
 0007:0004C698       aUnableToGet_12
 0007:0004C6CD       aUnableToGet_13
 0007:0004C708       aUnableToGet_14
 0007:0004C743       aInvalidPara_10
 0007:0004C768       aUnableToGet_15
 0007:0004C79D       aProcessKeepAli
 0007:0004C7B7       aProcessKeepA_0
 0007:0004C7DD       aSendingKeepAli
 0007:0004C7FB       aUnableToGet_16
 0007:0004C832       aUnableToGet_17
 0007:0004C871       aUnableToGet_18
 0007:0004C8AD       aUnableToGet_19
 0007:0004C8E8       aUnableToGet_20
 0007:0004C926       aUnableToGet_21
 0007:0004C958       aUnableToGet_22
 0007:0004C98E       aUnableToGet_23
 0007:0004C9C2       aUnableToGet_24
 0007:0004C9F3       aUnableToGet_25
 0007:0004CA2C       aUnableToGet_26
 0007:0004CA62       aUnableToGet_27
 0007:0004CA98       aSetLinkRequest
 0007:0004CACE       aAssociationS_1
 0007:0004CB0C       aUnableToGet_28
 0007:0004CB45       aSInvalidPara_1
 0007:0004CB5D       aUnableToGet_29
 0007:0004CB9B       aUnableToGet_30
 0007:0004CBD7       aUnableToGet_31
 0007:0004CC0E       aUnableToGet_32
 0007:0004CC45       aUnableToGet_33
 0007:0004CC7C       aAssociationS_2
 0007:0004CCB1       aUnableToGet_34
 0007:0004CCE1       aDalHasNoFreeSe
 0007:0004CD14       aUnableToGet_35
 0007:0004CD49       aAssociationF_0
 0007:0004CD78       aUnableToGet_36
 0007:0004CDA7       aAssociationIsC
 0007:0004CDE3       aUnableToGet_37
 0007:0004CE18       aUnableToGet_38
 0007:0004CE4C       aSInvalidContro
 0007:0004CE66       aInvalidPacketR
 0007:0004CE9E       aReceivedRespon
 0007:0004CEE6       aProcessingSh_0
 0007:0004CF16       aFailedToSetAnE
 0007:0004CF2D       aUnableToGet_39
 0007:0004CF62       aThisStationDoe
 0007:0004CF9A       aAssociationS_3
 0007:0004CFE7       aAssociationS_4
 0007:0004D039       aPostAssocNot_0
 0007:0004D06E       aSUnableToExtra
 0007:0004D091       aInvalidRespo_0
 0007:0004D0C9       aFailedToStartD
 0007:0004D0F3       aFailedToWpalCl
 0007:0004D10B       aUnableToGet_40
 0007:0004D140       aUnableToGet_41
 0007:0004D171       aUnableToGet_42
 0007:0004D1A3       aUnableToGet_43
 0007:0004D1DC       aUnableToGet_44
 0007:0004D211       aWdiInitFailedT
 0007:0004D233       aWdiInitFaile_0
 0007:0004D257       aUnableToGet_45
 0007:0004D289       aUnableToGet_46
 0007:0004D2B8       aWdiInitFaile_1
 0007:0004D2E3       aSFailedToProce
 0007:0004D308       aWdiCloseFailed
 0007:0004D32D       aWdiInitFaile_2
 0007:0004D359       aSFailedToDelet
 0007:0004D377       aSFailedToReset
 0007:0004D39D       aSFailedToWaitO
 0007:0004D3C5       aFailedToDelete
 0007:0004D3DF       aInvalidInput_3
 0007:0004D404       aWdiModuleAlrea
 0007:0004D42C       aSFailureWhileI
 0007:0004D460       aSFailedToOpenP
 0007:0004D482       aSFailedToInitM
 0007:0004D4A6       aSFailedToInitR
 0007:0004D4D3       aSFailedToIn_12
 0007:0004D50A       aSFailedToIn_13
 0007:0004D540       aSFailedToIn_14
 0007:0004D576       aSFailedToOpe_8
 0007:0004D598       aSFailedToOpe_9
 0007:0004D5BC       aSFailedToIn_15
 0007:0004D5F0       aSFailedToInitA
 0007:0004D622       aSFailedToIn_16
 0007:0004D655       aWdi_start_req
 0007:0004D663       aWdi_stop_req
 0007:0004D670       aWdi_close_req
 0007:0004D67E       aWdi_init_sca_0
 0007:0004D690       aWdi_start_sc_0
 0007:0004D6A3       aWdi_end_scan_0
 0007:0004D6B4       aWdi_finish_s_0
 0007:0004D6C8       aWdi_join_req
 0007:0004D6D5       aWdi_config_b_0
 0007:0004D6E8       aWdi_del_bss__0
 0007:0004D6F8       aWdi_post_ass_0
 0007:0004D70B       aWdi_del_sta__0
 0007:0004D71B       aWdi_set_bss__0
 0007:0004D72F       aWdi_rmv_bss__0
 0007:0004D743       aWdi_set_sta__0
 0007:0004D757       aWdi_rmv_sta__0
 0007:0004D76B       aWdi_add_ts_req
 0007:0004D77A       aWdi_del_ts_req
 0007:0004D789       aWdi_upd_edca_0
 0007:0004D79F       aWdi_add_ba_s_0
 0007:0004D7B6       aWdi_del_ba_req
 0007:0004D7C5       aWdi_ch_switc_0
 0007:0004D7D7       aWdi_config_s_0
 0007:0004D7EA       aWdi_set_link_0
 0007:0004D7FE       aWdi_get_stat_0
 0007:0004D810       aWdi_update_c_0
 0007:0004D823       aWdi_add_ba_req
 0007:0004D832       aWdi_trigger__0
 0007:0004D845       aWdi_upd_bcon_0
 0007:0004D85B       aWdi_snd_bcon_0
 0007:0004D86C       aWdi_upd_prob_0
 0007:0004D88B       aWdi_set_sta__1
 0007:0004D8A5       aWdi_rmv_sta__1
 0007:0004D8BF       aWdi_set_max__0
 0007:0004D8D8       aWdi_p2p_go_n_0
 0007:0004D8F9       aWdi_enter_im_0
 0007:0004D90C       aWdi_exit_imp_0
 0007:0004D91E       aWdi_enter_bm_0
 0007:0004D931       aWdi_exit_bmp_0
 0007:0004D943       aWdi_enter_ua_0
 0007:0004D957       aWdi_exit_uap_0
 0007:0004D96A       aWdi_set_uaps_0
 0007:0004D982       aWdi_update_u_0
 0007:0004D99D       aWdi_configur_1
 0007:0004D9BA       aWdi_set_beac_0
 0007:0004D9D4       aWdi_rem_beac_0
 0007:0004D9EE       aWdi_set_rssi_0
 0007:0004DA0A       aWdi_host_off_0
 0007:0004DA1F       aWdi_wowl_add_0
 0007:0004DA38       aWdi_wowl_del_0
 0007:0004DA51       aWdi_wowl_ent_0
 0007:0004DA64       aWdi_wowl_exi_0
 0007:0004DA76       aWdi_configur_2
 0007:0004DA9E       aWdi_nv_downl_0
 0007:0004DAB2       aWdi_flush_ac_0
 0007:0004DAC3       aWdi_btamp_ev_0
 0007:0004DAD7       aWdi_aggr_add_0
 0007:0004DAEB       aWdi_add_sta__0
 0007:0004DB00       aWdi_del_sta__1
 0007:0004DB15       aWdi_ftm_cmd__0
 0007:0004DB25       aWdi_start_in_0
 0007:0004DB3E       aWdi_host_res_0
 0007:0004DB52       aWdi_keep_ali_0
 0007:0004DB65       aWdi_set_pref_0
 0007:0004DB7E       aWdi_set_rssi_1
 0007:0004DB96       aWdi_update_s_0
 0007:0004DBB1       aWdi_set_tx_p_0
 0007:0004DBCD       aWdi_8023_mul_0
 0007:0004DBE9       aWdi_receive__1
 0007:0004DC0B       aWdi_packet_c_0
 0007:0004DC38       aWdi_receive__2
 0007:0004DC5C       aWdi_init_sca_1
 0007:0004DC72       aWdi_hal_dump_0
 0007:0004DC87       aWdi_shutdown_0
 0007:0004DC98       aWdi_set_power_
 0007:0004DCB1       aWdi_start_resp
 0007:0004DCC0       aWdi_stop_resp
 0007:0004DCCE       aWdi_close_resp
 0007:0004DCDD       aWdi_init_scan_
 0007:0004DCF0       aWdi_start_scan
 0007:0004DD04       aWdi_end_scan_r
 0007:0004DD16       aWdi_finish_sca
 0007:0004DD2B       aWdi_join_resp
 0007:0004DD39       aWdi_config_bss
 0007:0004DD4D       aWdi_del_bss_re
 0007:0004DD5E       aWdi_post_assoc
 0007:0004DD72       aWdi_del_sta_re
 0007:0004DD83       aWdi_set_bss_ke
 0007:0004DD98       aWdi_rmv_bss_ke
 0007:0004DDAD       aWdi_set_sta_ke
 0007:0004DDC2       aWdi_rmv_sta_ke
 0007:0004DDD7       aWdi_add_ts_res
 0007:0004DDE7       aWdi_del_ts_res
 0007:0004DDF7       aWdi_upd_edca_p
 0007:0004DE0E       aWdi_add_ba_ses
 0007:0004DE26       aWdi_del_ba_res
 0007:0004DE36       aWdi_ch_switch_
 0007:0004DE49       aWdi_config_sta
 0007:0004DE5D       aWdi_set_link_s
 0007:0004DE72       aWdi_get_stats_
 0007:0004DE85       aWdi_update_cfg
 0007:0004DE99       aWdi_add_ba_res
 0007:0004DEA9       aWdi_trigger_ba
 0007:0004DEBD       aWdi_upd_bcon_p
 0007:0004DED4       aWdi_snd_bcon_r
 0007:0004DEE6       aWdi_upd_probe_
 0007:0004DF06       aWdi_set_sta_bc
 0007:0004DF21       aWdi_rmv_sta_bc
 0007:0004DF3C       aWdi_set_max_tx
 0007:0004DF56       aWdi_enter_imps
 0007:0004DF6A       aWdi_exit_imps_
 0007:0004DF7D       aWdi_enter_bmps
 0007:0004DF91       aWdi_exit_bmps_
 0007:0004DFA4       aWdi_enter_uaps
 0007:0004DFB9       aWdi_exit_uapsd
 0007:0004DFCD       aWdi_set_uapsd_
 0007:0004DFE6       aWdi_update_uap
 0007:0004E002       aWdi_configure_
 0007:0004E020       aWdi_set_beacon
 0007:0004E03B       aWdi_rem_beacon
 0007:0004E056       aWdi_set_rssi_t
 0007:0004E073       aWdi_host_offlo
 0007:0004E089       aWdi_wowl_add_b
 0007:0004E0A3       aWdi_wowl_del_b
 0007:0004E0BD       aWdi_wowl_enter
 0007:0004E0D1       aWdi_wowl_exit_
 0007:0004E0E4       aWdi_configur_0
 0007:0004E10D       aWdi_nv_downloa
 0007:0004E122       aWdi_flush_ac_r
 0007:0004E134       aWdi_btamp_even
 0007:0004E149       aWdi_aggr_add_t
 0007:0004E15E       aWdi_add_sta_se
 0007:0004E174       aWdi_del_sta_se
 0007:0004E18A       aWdi_start_inna
 0007:0004E1A4       aWdi_host_resum
 0007:0004E1B9       aWdi_p2p_go_not
 0007:0004E1DB       aWdi_ftm_cmd_re
 0007:0004E1EC       aWdi_keep_alive
 0007:0004E200       aWdi_set_pref_n
 0007:0004E21A       aWdi_set_rssi_f
 0007:0004E233       aWdi_update_sca
 0007:0004E24F       aWdi_set_tx_per
 0007:0004E26C       aWdi_8023_multi
 0007:0004E289       aWdi_receive_fi
 0007:0004E2AC       aWdi_packet_coa
 0007:0004E2DA       aWdi_receive__0
 0007:0004E2FF       aWdi_hal_dump_c
 0007:0004E315       aWdi_shutdown_r
 0007:0004E327       aEhal_status_su
 0007:0004E33B       aPal_status_inv
 0007:0004E34C       aPal_status_alr
 0007:0004E35F       aPal_status_emp
 0007:0004E370       aPal_status_fai
 0007:0004E383       aEhal_status_fa
 0007:0004E397       aEhal_status_in
 0007:0004E3B5       aEhal_status__0
 0007:0004E3D0       aEhal_status_dp
 0007:0004E3F6       aEhal_status_no
 0007:0004E410       aEhal_status__1
 0007:0004E42E       aEhal_status_st
 0007:0004E449       aEhal_status_du
 0007:0004E463       aEhal_status_bs
 0007:0004E47D       aEhal_status__2
 0007:0004E495       aEhal_status__3
 0007:0004E4B1       aEhal_status__4
 0007:0004E4CC       aEhal_status__5
 0007:0004E4E9       aEhal_status__6
 0007:0004E507       aEhal_status__7
 0007:0004E521       aEhal_status_se
 0007:0004E550       aEhal_status_um
 0007:0004E576       aEhal_status__8
 0007:0004E598       aEhal_status_ba
 0007:0004E5B7       aEhal_status__9
 0007:0004E5DE       aEhal_status_10
 0007:0004E603       aEhal_status_ti
 0007:0004E622       aEhal_status_11
 0007:0004E640       aEhal_status_12
 0007:0004E659       aEhal_status_13
 0007:0004E675       aEhal_status_de
 0007:0004E6A9       aEhal_status_ad
 0007:0004E6DD       aEhal_status_fw
 0007:0004E6FC       aTypeDDMacS08x_
 0007:0004E752       a4WlanVosAss_52
 0007:0004E775       aHomeAaProje_63
 0007:0004E80A       aWdi_statablefi
 0007:0004E82D       aStationIdSentB
 0007:0004E858       a4WlanVosAss_53
 0007:0004E87B       aHomeAaProje_64
 0007:0004E911       aFailedToUpdate
 0007:0004E943       aStaIdInvalidOn
 0007:0004E970       aErrorAllocatin
 0007:0004E99C       aWcts_sendmessa
 0007:0004E9CB       a4WlanVosAss_54
 0007:0004E9EE       aHomeAaProje_65
 0007:0004EA89       aWcts_sendmes_0
 0007:0004EAD0       aWcts_sendmes_1
 0007:0004EB01       aWcts_sendmes_2
 0007:0004EB38       aWcts_sendmes_3
 0007:0004EB78       aWcts_closetran
 0007:0004EBAA       aSSmd_closeFail
 0007:0004EBCE       aSFailedToRecei
 0007:0004EBFB       aWcts_opentrans
 0007:0004EC2C       aWcts_opentra_0
 0007:0004EC55       aWcts_opentra_1
 0007:0004EC78       aWcts_opentra_2
 0007:0004ECA7       aSSmd_named_ope
 0007:0004ECD8       aSFailedToRec_0
 0007:0004ECFD       aWcts_palopenca
 0007:0004ED30       aWcts_palopen_0
 0007:0004ED64       aSReceivedUnexp
 0007:0004ED89       aSReceivedSmd_e
 0007:0004EDAE       aSReceivedSmd_0
 0007:0004EDE9       aSReceivedSmdDa
 0007:0004EE20       aSReceivedSmd_1
 0007:0004EE45       aSReceivedSmd_2
 0007:0004EE6B       aWcts_clearpend
 0007:0004EEA0       aSReceivedSmd_3
 0007:0004EED8       aSReceivedSmd_4
 0007:0004EEFF       aSReceivedSmd_5
 0007:0004EF2C       aSUnexpectedEve
 0007:0004EF56       aWcts_palreadca
 0007:0004EF88       aWcts_palread_0
 0007:0004EFB8       aWcts_palread_1
 0007:0004EFEB       aWcts_palwritec
 0007:0004F01E       aWcts_palwrit_0
 0007:0004F04B       aSEnter_1
 0007:0004F054       aSExit_2
 0007:0004F09F       aChannelNumberD
 0007:0004F0C2       aNumdescDNumfre
 0007:0004F0ED       aHeadcb0xXNext0
 0007:0004F110       aTailcb0xXNext0
 0007:0004F133       aHeadcbOrderDTa
 0007:0004F154       aNumfragmentcur
 0007:0004F181       aWlandxe_client
 0007:0004F1AB       aWlandxe_clie_0
 0007:0004F1DA       aWlandxe_clie_1
 0007:0004F20A       aWlandxe_clie_2
 0007:0004F23B       aWlandxe_clie_3
 0007:0004F2AE       aDescriptorDump
 0007:0004F2DF       aCtrlWord0xXTra
 0007:0004F2FF       aSrcAdd0xXDstAd
 0007:0004F32A       aGetFreeRxBuffe
 0007:0004F352       a4WlanVosAss_55
 0007:0004F375       aHomeAaProje_66
 0007:0004F404       aDxeContextData
 0007:0004F42F       aWlanSDataRecei
 0007:0004F456       aDxerxpacketava
 0007:0004F47C       aKickOffDxe
 0007:0004F489       aNoNeedToKickOf
 0007:0004F4A1       aSmsmTxRingEmpt
 0007:0004F4B4       aSmsmTxRingNotE
 0007:0004F4CB       aCXSX
 0007:0004F4D3       aNullPdxecontex
 0007:0004F4F5       aWlandxe_setpow
 0007:0004F51F       aRxThreadSetPow
 0007:0004F556       aSEnableRxReady
 0007:0004F578       aSEnableTxCompI
 0007:0004F599       aTxThreadSetPow
 0007:0004F5D0       aDxechannelstop
 0007:0004F5F1       aWlandxe_stopIn
 0007:0004F60D       aSChannelRegist
 0007:0004F640       aControlRegiste
 0007:0004F656       aStatusRegister
 0007:0004F66B       aSourceAddressR
 0007:0004F688       aDestinationAdd
 0007:0004F6AA       aDescriptorAddr
 0007:0004F6CB       aDxechannelst_0
 0007:0004F6F6       aDxechannelst_1
 0007:0004F722       aWlandxe_stopCh
 0007:0004F744       aDxechannelcl_0
 0007:0004F772       aSChannelIntCle
 0007:0004F794       aDxechannelclea
 0007:0004F7C4       aDxetxcompframe
 0007:0004F7DF       aDxetxcompfra_0
 0007:0004F809       aDxetxcompfra_1
 0007:0004F846       aDxerxframeread
 0007:0004F86E       aDxetxcompfra_2
 0007:0004F895       aWlandxe_comple
 0007:0004F8B6       aSRivaIsInDRetu
 0007:0004F8DA       aDxetxcompletee
 0007:0004F914       aTxEventHandler
 0007:0004F935       aDxetxeventha_0
 0007:0004F959       aDxetxeventhand
 0007:0004F97B       aDxetxeventha_1
 0007:0004F99D       aWlandxe_startI
 0007:0004F9BA       aWlandxe_star_0
 0007:0004F9D8       aWlandxe_star_1
 0007:0004F9F6       aDxetxpushframe
 0007:0004FA1B       aDxetxpushfra_0
 0007:0004FA3D       aDxetxpushfra_1
 0007:0004FA61       aNumTxFragDTota
 0007:0004FA80       aDxetxpushfra_2
 0007:0004FAA3       aDxetxpushfra_3
 0007:0004FAD5       aSmsm_retLoDHiD
 0007:0004FAEA       aDxetxpushfra_8
 0007:0004FB1A       aDxetxpushfra_6
 0007:0004FB4C       aDxetxpushfra_4
 0007:0004FB75       aDxetxpushfra_5
 0007:0004FBA6       aDxetxpushfra_7
 0007:0004FBD6       aWlandxe_txfram
 0007:0004FBF9       aDxechannelinit
 0007:0004FC2A       aDxerxframebuff
 0007:0004FC56       aDxerxframebu_0
 0007:0004FC7F       aDxerxframebu_1
 0007:0004FCB4       aRxPalPacketAll
 0007:0004FD09       aH2hTestRxD
 0007:0004FD1C       aInterruptPathM
 0007:0004FD38       aWlandxe_startC
 0007:0004FD57       aDxedesclinkall
 0007:0004FD83       aDxedesclinka_0
 0007:0004FDAA       aAllocatedDescr
 0007:0004FDD0       aDxedesclinka_1
 0007:0004FDFE       aDxedesclinka_2
 0007:0004FE33       aWlandxe_startA
 0007:0004FE6A       aDxechannelin_0
 0007:0004FEA0       aDxechannelin_1
 0007:0004FED7       aDxechannelin_2
 0007:0004FF0D       aDxechannelin_3
 0007:0004FF46       aDxechannelin_4
 0007:0004FF7C       aDxechannelstar
 0007:0004FFAE       aDxechannelst_2
 0007:0004FFDA       aDxechannelst_3
 0007:00050007       aWlandxe_star_3
 0007:0005002E       aWlandxe_star_2
 0007:00050052       aWlandxe_startT
 0007:00050084       aWlandxe_startR
 0007:000500B7       aDxetxcomplet_0
 0007:000500F3       aWlandxe_startD
 0007:0005011D       aDxerxpacketa_0
 0007:00050153       aDxerxframere_0
 0007:0005017E       aDxerxframere_1
 0007:000501B3       aReceivedDFrame
 0007:000501C5       aHeadDescCw0xXN
 0007:000501ED       aDxerxeventhand
 0007:0005021A       aSRivaIsInDJust
 0007:00050259       aDxerxeventha_0
 0007:0005028A       aDxerxeventha_1
 0007:000502BA       aWlanSDataRec_0
 0007:000502DF       aDxerxeventha_2
 0007:0005030C       aRxEventHandler
 0007:0005032D       aDxerxeventha_4
 0007:00050351       aDxerxeventha_3
 0007:00050380       aDxeChannelNumb
 0007:000503B3       aDxerxeventha_5
 0007:000503DD       aDxerxeventha_6
 0007:0005040E       aDxerxframere_2
 0007:00050434       aDxerxframere_3
 0007:00050467       aDxerxframere_4
 0007:00050493       aDxetxcompisrDi
 0007:000504C3       aAvoidingSerial
 0007:000504EA       aDxetxcompisrIn
 0007:0005051A       aWlandxe_openCo
 0007:00050540       aWlandxe_open_0
 0007:00050567       aWlandxe_openCh
 0007:0005058A       aWlandxe_open_1
 0007:000505C7       aDxectrlblkallo
 0007:000505F2       aDxectrlblkopen
 0007:0005061E       aDxectrlblkop_0
 0007:0005064A       aWlandxe_openAl
 0007:00050683       aWlandxe_openLo
 0007:000506AE       aWlandxe_open_2
 0007:000506D3       aWlandxe_open_3
 0007:000506F2       aWlandxe_open_4
 0007:00050711       aWlandxe_open_5
 0007:00050745       aSmsmChannelIni
 0007:0005075F       aWlandxe_openSu
 0007:00050774       aTx_low_pri
 0007:0005077F       aTx_high_pri
 0007:0005078B       aRx_low_pri
 0007:00050796       aRx_high_pri
 0007:000507A2       aDxelinkdescand
 0007:000507D3       aDxelinkdesca_0
 000A:00000000       __mod_con_modetype4193
 000A:00000016       __mod_description4190
 000A:0000003A       __mod_author4189
 000A:0000004A       __mod_license4188
 000A:0000005E       __mod_ioctl_debugtype90
 000A:00000078       __module_depends
 000A:00000081       __mod_vermagic5
 000B:00000000       __kstrtab_SQOS_data_from_wifi_driver
 000B:0000001B       __kstrtab_SQOS_channel_bandwidth_from_wifi_driver
 000C:00000000       __param_con_mode
 000C:00000010       __param_ioctl_debug
 000D:00000000       aHomeAaProje_67
 000D:00000056       aHomeAaProje_68
 000D:000000AC       aHomeAaProje_69
 000D:00000102       aHomeAaProje_70
 000D:00000158       aHomeAaProje_71
 0010:00000000       regChannels
 0010:00000004       countryInfoTable
 0010:0000038C       gVosTraceInfo
 0010:000003DC       bapPhysLinkMachineInitial
 0010:000003E0       TLVS.37458
 0010:000004D0       TLVS.30674
 0010:000005C0       TLVS.32219
 0010:000006B0       WLANBAP_LLC_HEADER
 0010:000006B8       hexValue
 0010:000006C8       bapSsidPrefixValue
 0010:000006CC       btampRSNIE.42510
 0010:000006E4       pRSNOui00
 0010:000006E8       pRSNOui01
 0010:000006EC       pRSNOui02
 0010:000006F0       pRSNOui03
 0010:000006F4       pRSNOui04
 0010:000006F8       pRSNOui05
 0010:000006FC       authConsts
 0010:00000704       aniSsmIeRsnOui
 0010:00000708       btampStaRSNIE.35943
 0010:00000720       suppConsts
 0010:00000728       btampRSNIE.35892
 0010:00000740       BAP_RSN_LLC_HEADER
 0010:00000748       gAniSsmAesKeyWrapIv
 0010:00000750       WLANBAP_LLC_HEADER_0
 0010:00000758       WLANTL_LLC_HEADER
 0010:00000760       ccmMenuDumpTable
 0010:0000076C       csrWpaOui
 0010:00000784       csrRSNOui
 0010:0000079C       csrWapiOui
 0010:000007A8       csrWmeInfoOui
 0010:000007AC       csrWmeParmOui
 0010:000007B0       csrMenuDumpTable
 0010:000007D4       pmcMenuDumpTable
 0010:000008D0       sme_QosUPtoACMap
 0010:000008F0       sme_QosACtoUPMap
 0010:00000900       mgmtType
 0010:00000958       ctlType
 0010:00000998       dataType
 0010:00000A10       gCfgFunc
 0010:00000A20       gCfgParamName
 0010:00000E18       sendDisassocFrame
 0010:00000E1C       glimTriggerBackgroundScanDuringQuietBss_Status
 0010:00000E20       limMenuDumpTable
 0010:00001048       macAddr.49254
 0010:00001050       wlan_drv_ops
 0010:000010D4       hdd_netdev_notifier
 0010:000010E0       wlan_mon_drv_ops
 0010:00001164       ccpWpaOui04
 0010:00001168       ccpWpaOui02
 0010:0000116C       ccpWpaOui00
 0010:00001170       ccpWpaOui01
 0010:00001174       ccpWpaOui05
 0010:00001178       ccpRSNOui04
 0010:0000117C       ccpRSNOui02
 0010:00001180       ccpRSNOui00
 0010:00001184       ccpRSNOui01
 0010:00001188       ccpRSNOui05
 0010:0000118C       ccpRSNOui03
 0010:00001190       ccpWpaOui03
 0010:00001194       g_registry_table
 0010:00002774       rateName_rateIndex_tbl
 0010:00002A74       net_ops_struct
 0010:00002AF8       wlan_hdd_band_2_4_GHZ
 0010:00002B24       wlan_hdd_band_5_GHZ
 0010:00002B50       wlan_hdd_band_p2p_2_4_GHZ
 0010:00002B7C       wlan_hdd_cfg80211_ops
 0010:00002C74       hdd_channels_2_4_GHZ
 0010:00002E6C       g_mode_rates
 0010:00002EFC       hdd_social_channels_2_4_GHZ
 0010:00002F68       hdd_channels_5_GHZ
 0010:000032C8       a_mode_rates
 0010:00003328       nl_srv_sem
 0010:0000333C       gTraceInfo
 0010:00003354       pfnRspProcTbl
 0010:000034A8       pfnReqProcTbl
 0010:000035D8       ac_mask.31444
 0010:000035DC       channelList
 0010:0000360C       channelBaseAddressList
 0010:00003628       channelInterruptMask
 0010:00003644       txCompInt
 0010:00003658       chanTXLowPriConfig
 0010:00003684       chanTXHighPriConfig
 0010:000036B0       chanRXLowPriConfig
 0010:000036DC       chanRXHighPriConfig
 0011:00000000       __this_module
 0012:00000000       ____versions
 0013:00000000       pnvEFSTable
 0013:00000004       gnvEFSTable
 0013:00000008       gpVosPacketContext
 0013:0000000C       is_vote_on.28488
 0013:00000010       persistentTimerCount
 0013:00000014       persistentTimerCountLock
 0013:00000038       gpVosContext
 0013:00000040       gHtcVosContext
 0013:0001B0A8       gpVosWatchdogContext
 0013:0001B0AC       gpVosSchedContext
 0013:0001B0B0       wlan_shutdown_counter.59543
 0013:0001B0B4       gpBtampCtx
 0013:0001B0B8       gBapCoexPriority
 0013:0001B0BC       pBtStaOwnMacAddr
 0013:0001B0C4       pBtStaOwnSsid
 0013:0001B0DC       btampHCI_AMP_Info
 0013:0001B0FC       btampHCI_Data_Block_Size
 0013:0001B104       btampHCI_Version_Info
 0013:0001B110       btampHCI_Supported_Cmds
 0013:0001B150       buf.42481
 0013:0001B168       ssId.42502
 0013:0001B188       keyData.36082
 0013:0001B18C       gReadToSetKey
 0013:0001B190       bapRsnFsmTxCmpHandler
 0013:0001B194       bapRsnFsmRxFrameHandler
 0013:0001B198       gUcIsWai
 0013:0001B199       ucPMPDUHLen.46464
 0013:0001B19A       first_data_pkt_arrived.45964
 0013:0001B19B       first_data_pkt_arrived.45859
 0013:0001B19C       numAMSDUFrames.44827
 0013:0001B1A0       preFWNotification.44843
 0013:0001B1A4       g_pMac
 0013:0001B1A8       g_pchannelPowerInfoList24
 0013:0001B1AC       g_pchannelPowerInfoList5
 0013:0001B1B0       csrRoamPowerTableFromEeprom
 0013:0001B340       csrRoamPowerTableFromEeprom40MHz
 0013:0001B4D0       csrRoamRoamSession
 0013:0001C844       nvTables.48334
 0013:00021844       x.45241
 0013:000219CC       ssid.45242
 0013:000219F0       sme_QosCb
 0013:00023DF0       nvTables.48957
 0013:00028DF0       gStopEvt
 0013:00028E04       buf.47556
 0013:00029E04       gTraceData
 0013:00029E18       traceCBTable
 0013:00029E4C       gTraceTbl
 0013:0002B5BC       auth.48972
 0013:0002C64C       ar.48601
 0013:0002DBA0       ar.48515
 0013:0002EC28       gpSapCtx
 0013:0002EC2C       __gCfgIBufMin
 0013:0002EF20       __gCfgIBufMax
 0013:0002F214       __gCfgIBuf
 0013:0002F508       __gCfgSBuf
 0013:00030234       __gSBuffer
 0013:00030334       __gCfgEntry
 0013:0003072C       __gParamList
 0013:00030808       frm.48171
 0013:00031D5C       frm.48337
 0013:000332B0       frm.47570
 0013:00034338       token.47314
 0013:0003433C       enable.47657
 0013:00034340       gSchProbeRspTemplate
 0013:00034540       gSchBeaconFrameBegin
 0013:00034740       gSchBeaconFrameEnd
 0013:00034940       beaconStruct.47390
 0013:00034EC8       SQOS_dev
 0013:00034ECC       pSQOS_Adapter
 0013:00034ED0       con_mode
 0013:00034ED8       wlan_wake_lock
 0013:00034F20       ioctl_debug
 0013:00034F24       g_full_pwr_status
 0013:00034F28       g_standby_status
 0013:00034F2C       wlan_early_suspend
 0013:00034F40       hddWmmDscpToUpMap
 0013:00035040       pAdapterHandle
 0013:00035044       g_hdd_wowl_ptrns
 0013:00035064       ftm_status
 0013:00035098       __key.9346
 0013:00035494       BslPhyLinksDescPool
 0013:000354B8       bBslInited
 0013:000354BC       gpBslctx
 0013:000354C0       BslPhyLinkCtx
 0013:00035520       Buff.67837
 0013:000357DC       num_packets.67734
 0013:000357E0       BslClientCtx
 0013:00035848       BslPhyLinksDesc
 0013:00035854       gpCtx
 0013:00035858       nl_srv_sock
 0013:0003585C       nl_srv_msg_handler
 0013:00035880       pHddCtx
 0013:00035884       gBtcDriverMode
 0013:00035888       gAmpChannel
 0013:0003588C       gWiFiChannel
 0013:00035890       pAdapterHandle_0
 0013:00035894       nlmsg_seq.57630
 0013:00035898       wpalPacketAvailableCB
 0013:0003589C       gContext
 0013:000358A0       gpEnv
 0013:000358A4       gWDICb
 0013:00037C5C       gWDIInitialized
 0013:00037C60       gwctsHandle
 0013:00037C64       gSetPowerStateCbInfo
 0013:00037C6C       tempDxeCtrlBlk
 0000:7B822A5A Abs   __crc_SQOS_data_from_wifi_driver
 0000:F8D33746 Abs   __crc_SQOS_channel_bandwidth_from_wifi_driver
